XAS99 CROSS-ASSEMBLER   VERSION 1.8.1
**** **** ****     > zqx-one.a99
0001               *********************************************************************
0002               *
0003               * ZQX-one (Zaxxon clone)
0004               * For the TI-99/4A home computer with F18A
0005               *
0006               * February 2021 -
0007               * Rasmus Moustgaard <rasmus.moustgaard@gmail.com>
0008               *
0009               
0010                      copy "macros.a99"
**** **** ****     > macros.a99
0001               **
0002               * Macros
0003               *
0007               
0013               
0017               
0022               
**** **** ****     > zqx-one.a99
0011                      copy "sound-defs.a99"
**** **** ****     > sound-defs.a99
0001               * Sound channel structure
0002               snd_channel_addr:
0003                      equ  0
0004               snd_channel_duration:
0005                      equ  2
0006               snd_channel_attn:
0007                      equ  3
0008               snd_channel_freq:
0009                      equ  4
0010               snd_channel_size:
0011                      equ  6
0012               
0013               * Sound track structure
0014               snd_track_channel:                     ; Channel to play track in, zero if track inactive
0015                      equ  0
0016               snd_track_location:                    ; Location in track, points to sequence pointer or command
0017                      equ  2
0018               snd_track_seq_location:                ; Location in active sequecne
0019                      equ  4
0020               snd_track_duration_count:              ; Node (within sequence) duration counter
0021                      equ  6
0022               snd_track_repeat_count:                ; Repeat count for track loops
0023                      equ  7
0024               snd_track_size:
0025                      equ  8
0026               
0027               **
0028               * Sound structure
0029               *
0030               snd_operation:                         ; 80=T1, A0=T2, C0=T3, E4=W0, E5=W1, E6=W2
0031                      equ  0
0032               snd_duration:                          ; Number of frames
0033                      equ  1
0034               snd_attn_start:                        ; 0-255
0035                      equ  2
0036               snd_attn_step:                         ; Signed byte
0037                      equ  3
0038               snd_freq_step:                         ; Signed word, n/a for noise
0039                      equ  4
0040               
0041               **
0042               * Operations
0043               *
0044      0080     T1     equ  >80                        ; 1000ffff Tone generator 1
0045      00A0     T2     equ  >A0                        ; 1010ffff Tone generator 2
0046      00C0     T3     equ  >C0                        ; 1100ffff Tone generator 3
0047      00E0     P0     equ  >E0                        ; 11100000 Periodic noise type 0
0048      00E1     P1     equ  >E1                        ; 11100001 Periodic noise type 1
0049      00E2     P2     equ  >E2                        ; 11100010 Periodic noise type 2
0050      00E3     P3     equ  >E3                        ; 11100011 Periodic noise type 3
0051      00E4     W0     equ  >E4                        ; 11100100 White noise type 0
0052      00E5     W1     equ  >E5                        ; 11100101 White noise type 1
0053      00E6     W2     equ  >E6                        ; 11100110 White noise type 2
0054      00E7     W3     equ  >E7                        ; 11100111 White noise type 3
0055               
0056               **
0057               * Note frequencies
0058               *
0059      03F9     A1     equ  >03f9
0060      03C0     A#1    equ  >03c0
0061      038A     B1     equ  >038a
0062      0357     C1     equ  >0357
0063      0327     C#1    equ  >0327
0064      02FA     D1     equ  >02fa
0065      02CF     D#1    equ  >02cf
0066      02A7     E1     equ  >02a7
0067      0281     F1     equ  >0281
0068      025D     F#1    equ  >025d
0069      023B     G1     equ  >023b
0070      021B     G#1    equ  >021b
0071      01FC     A2     equ  >01fc
0072      01E0     A#2    equ  >01e0
0073      01C5     B2     equ  >01c5
0074      01AC     C2     equ  >01ac
0075      0194     C#2    equ  >0194
0076      017D     D2     equ  >017d
0077      0168     D#2    equ  >0168
0078      0153     E2     equ  >0153
0079      0140     F2     equ  >0140
0080      012E     F#2    equ  >012e
0081      011D     G2     equ  >011d
0082      010D     G#2    equ  >010d
0083      00FE     A3     equ  >00fe
0084      00F0     A#3    equ  >00f0
0085      00E2     B3     equ  >00e2
0086      00D6     C3     equ  >00d6
0087      00CA     C#3    equ  >00ca
0088      00BE     D3     equ  >00be
0089      00B4     D#3    equ  >00b4
0090      00AA     E3     equ  >00aa
0091      00A0     F3     equ  >00a0
0092      0097     F#3    equ  >0097
0093      008F     G3     equ  >008f
0094      0087     G#3    equ  >0087
0095      007F     A4     equ  >007f
0096      0078     A#4    equ  >0078
0097      0071     B4     equ  >0071
0098      006B     C4     equ  >006b
0099      0065     C#4    equ  >0065
0100      005F     D4     equ  >005f
0101      005A     D#4    equ  >005a
0102      0055     E4     equ  >0055
0103      0050     F4     equ  >0050
0104      004C     F#4    equ  >004c
0105      0047     G4     equ  >0047
0106      0043     G#4    equ  >0043
0107      0040     A5     equ  >0040
0108      003C     A#5    equ  >003c
0109      0039     B5     equ  >0039
0110      0035     C5     equ  >0035
0111      0032     C#5    equ  >0032
0112      0030     D5     equ  >0030
0113      002D     D#5    equ  >002d
0114      002A     E5     equ  >002a
0115      0028     F5     equ  >0028
0116      0026     F#5    equ  >0026
0117      0024     G5     equ  >0024
0118      0022     G#5    equ  >0022
0119      0020     A6     equ  >0020
0120      001E     A#6    equ  >001e
0121      001C     B6     equ  >001c
0122      001B     C6     equ  >001b
0123      0019     C#6    equ  >0019
0124      0018     D6     equ  >0018
0125      0016     D#6    equ  >0016
0126      0015     E6     equ  >0015
0127      0014     F6     equ  >0014
0128      0013     F#6    equ  >0013
0129      0012     G6     equ  >0012
0130      0011     G#6    equ  >0011
0131               
0132               **
0133               * Module structure
0134               *
0135               * First word is the speed 0-x.
0136               * Then follows a zero terminated list of pointers to up to 4 tracks.
0137               *
0138               * Track structure
0139               *
0140               * First word is a pointer to the channel where the track is played.
0141               * Then follows a zero terminated list of words.
0142               * Each word can either be a pointer to a sequence,
0143               * or it can be a repeat command.
0144               * A repeat command consists of two words:
0145               * - The number of repeats, which must be smaller than 256 to distinguish it from a sequence pointer
0146               * - The repeat address
0147               *
0148               * Sequence structure
0149               *
0150               * A sequence is a zero terminated list of words.
0151               * Each word can either be pointer to a note,
0152               * or it can be the number of frames to wait,
0153               * which must be smaller than 256 to distinguish it from a note pointer
0154               *
0155               * Note structure
0156               *
0157               * A note consists of a pointer to an instrument,
0158               * followed by the frequency of the note.
0159               *
0160               note_instr:
0161                      equ  0
0162               note_freq:
0163                      equ  2
**** **** ****     > zqx-one.a99
0012               
0013               **
0014               * Memory mapped addresses
0015               *
0016      8C00     vdpwd  equ  >8c00                      ; VDP write data
0017      8C02     vdpwa  equ  >8c02                      ; VDP set read/write address
0018      8800     vdprd  equ  >8800                      ; VDP read data
0019      8802     vdpsta equ  >8802                      ; VDP status
0020      8400     sound  equ  >8400                      ; PSG sound
0021      9000     spchrd equ  >9000                      ; Speech read
0022      9400     spchwt equ  >9400                      ; Speech write
0023      9800     grmrd  equ  >9800                      ; GROM read data
0024      9802     grmra  equ  >9802                      ; GROM address read
0025      9C00     grmwd  equ  >9C00                      ; GROM write data
0026      9C02     grmwa  equ  >9C02                      ; GROM address write
0027               
0028               **
0029               * VDP memory map
0030               *
0031               name_table_base:                       ; Name table base
0032                      equ  >0000
0033               name_table_p_0:                        ; Name table page 0
0034                      equ  >0000
0035               vdp_variables:                         ; VDP variables
0036                      equ  >03c0
0037               vdp_gpu_status:                        ; GPU status
0038                      equ  >03c0
0039               vdp_scroll_pos:                        ; Scroll position
0040                      equ  >03c2
0041               vdp_sub_level:                         ; Sub-level
0042                      equ  >03c4
0043               tile_attr_table:                       ; Tile attribute table
0044                      equ  >0400
0045               sprite_attr_table:                     ; Sprite attribute table
0046                      equ  >0500
0047               sprite_attr_table_2:                   ; Sprite attribute table 2
0048                      equ  >0580
0049               vdp_sprite_buffer:                    ; Sprite buffer (182 bytes for 18 sprites)
0050                      equ  >0600
0051               name_table_p_1:                        ; Name table page 1
0052                      equ  >0800
0053               vdp_collisions:                        ; Collision results
0054                      equ  >0bc0
0055               name_table_2:                          ; Name table 2 base (64 bytes free)
0056                      equ  >0c00
0057               pattern_table_base:                    ; Pattern table base
0058                      equ  >1000
0059               pattern_table_p_0:                     ; Pattern table plane 0
0060                      equ  >1000
0061               pattern_table_p_1:                     ; Pattern table plane 1
0062                      equ  >1800
0063               pattern_table_p_2:                     ; Pattern table plane 2
0064                      equ  >2000
0065               gpu_prg_tmp:                           ; GPU program temporary location
0066                      equ  >2800
0067               sprite_pattern_table_base:             ; Sprite pattern table base
0068                      equ  >2800
0069               sprite_pattern_table_0:                ; Sprite pattern table plane 0
0070                      equ  >2800
0071               sprite_pattern_table_1:                ; Sprite pattern table plane 1
0072                      equ  >3000
0073               sprite_pattern_table_2:                ; Sprite pattern table plane 2
0074                      equ  >3800
0075               gpu_prg:                               ; GPU program location
0076                      equ  >4000
0077               
0078               **
0079               * Constants
0080               *
0081               backdrop_color:
0082                      equ  0
0083               screen_height:
0084                      equ  240
0085               screen_width:
0086                      equ  256
0087               screen_height_chars:
0088                      equ  30
0089               screen_width_chars:
0090                      equ  32
0091               window_width:
0092                      equ  224
0093               window_left:
0094                      equ  16
0095               window_top:
0096                      equ  -36
0097               map_0_width:
0098                      equ  128
0099               map_1_width:
0100                      equ  228
0101               map_2_width:
0102                      equ  288
0103               map_height:
0104                      equ  26
0105               map_0_bank_select:
0106                      equ  >600C
0107               map_1_bank_select:
0108                      equ  >6008
0109               map_2_bank_select:
0110                      equ  >600A
0111               map:
0112                      equ  >6000
0113               tl2_first_char:
0114                      equ  140
0115               tl2_chars:
0116                      equ  256-tl2_first_char
0117               max_sprites:
0118                      equ  18
0119               sprite_patterns_0_bank_select:
0120                      equ  >601c
0121               sprite_patterns_1_bank_select:
0122                      equ  >600e
0123               sprite_patterns_2_bank_select:
0124                      equ  >601e
0125               sprite_patters_base_addr:
0126                      equ  >6800
0127               sprite_create_x:
0128                      equ  255
0129               n_sprite_patterns:
0130                      equ  64
0131               patterns_0_bank_select:
0132                      equ  >601a
0133               patterns_1_bank_select:
0134                      equ  >6010
0135               patterns_2_bank_select:
0136                      equ  >6016
0137               patterns_base_addr:
0138                      equ  >6800
0139               tile_attr_base_addr:
0140                      equ  >6400
0141               max_uploaded_chars_per_frame:
0142                      equ  4
0143               isometric_x0:
0144                      equ  16
0145               isometric_y0:
0146                      equ  80
0147               isometric_z0:
0148                      equ  16
0149               isometric_center_y:
0150                      equ  128
0151               player_start_x:
0152                      equ  -64
0153               player_y_min:
0154                      equ  72
0155               player_y_max:
0156                      equ  178
0157               player_z_max:
0158                      equ  71;
0159               player_z_min:
0160                      equ  8
0161               char_space:
0162                      equ 140
0163               char_zero:
0164                      equ 156
0165               char_zero_high:
0166                      equ  240
0167               char_space_high:
0168                      equ  255
0169               char_mask:
0170                      equ  250
0171               char_life:
0172                      equ  235
0173               char_fuel:
0174                      equ  239
0175               fuel_unit:
0176                      equ  64
0177               fuel_max:
0178                      equ  16*fuel_unit-1
0179               sub_level_0_sprites:
0180                      equ  16
0181               
0182               **
0183               * Scratch pad
0184               *
0185      83C0     rndsd  equ  >83c0                      ; Random number seed
0186      8300     pad    equ  >8300
0187      8300     wrksp  equ  pad                        ; Workspace
0188      8301     r0lb   equ  wrksp+1                    ; Low byte of register 0
0189      8303     r1lb   equ  wrksp+3
0190      8305     r2lb   equ  wrksp+5
0191      8307     r3lb   equ  wrksp+7
0192      8309     r4lb   equ  wrksp+9
0193      830B     r5lb   equ  wrksp+11
0194      830D     r6lb   equ  wrksp+13
0195      830F     r7lb   equ  wrksp+15
0196      8311     r8lb   equ  wrksp+17
0197      8313     r9lb   equ  wrksp+19
0198      8315     r10lb  equ  wrksp+21
0199      8317     r11lb  equ  wrksp+23
0200      8319     r12lb  equ  wrksp+25
0201      831B     r13lb  equ  wrksp+27
0202      831D     r14lb  equ  wrksp+29
0203      831F     r15lb  equ  wrksp+31
0204      8320     sndws  equ  wrksp+>20
0205      8340     stack  equ  sndws+>20                  ; Stack (grows up)
0206               **
0207               * PAD constants
0208               *
0209               padcon:
0210                      equ  stack+>10                  ; Start of pad constants
0211               **
0212               * PAD variables
0213               *
0214               padvar:
0215                      equ  padcon+2                   ; Start of pad variables
0216               vdp_status:
0217                      equ  padvar
0218               rand_no:
0219                      equ  vdp_status+2
0220               map_width:
0221                      equ  rand_no+2
0222               scroll_pos:
0223                      equ  map_width+2
0224               scroll_x:
0225                      equ  scroll_pos+2
0226               scroll_y:
0227                      equ  scroll_x+2
0228               scroll_max:
0229                      equ  scroll_y+2
0230               player_scale_z:
0231                      equ  scroll_max+2
0232               char_diff_ptr:
0233                      equ  player_scale_z+2
0234               char_diff_end:
0235                      equ  char_diff_ptr+2
0236               chars_to_upload:
0237                      equ  char_diff_end+2
0238               sprite_def_ptr:
0239                      equ  chars_to_upload+2
0240               sprites_end_ptr:
0241                      equ  sprite_def_ptr+2
0242               map_bank_select:
0243                      equ  sprites_end_ptr+2
0244               char_patterns_bank_select:
0245                      equ  map_bank_select+2
0246               sprite_patterns_bank_select:
0247                      equ  char_patterns_bank_select+2
0248               player_sprite:
0249                      equ  sprite_patterns_bank_select+2
0250               player_shadow:
0251                      equ  player_sprite+2
0252               player_fire:
0253                      equ  player_shadow+2
0254               player_died:
0255                      equ  player_fire+2
0256               level:
0257                      equ  player_died+2
0258               sub_level_index:
0259                      equ  level+2
0260               sub_level_data:
0261                      equ  sub_level_index+2
0262               walls_ptr:
0263                      equ  sub_level_data+2
0264               score:
0265                      equ  walls_ptr+2
0266               old_score:
0267                      equ  score+2
0268               high_score:
0269                      equ  old_score+2
0270               old_height:
0271                      equ  high_score+2
0272               fuel:
0273                      equ  old_height+2
0274               old_fuel:
0275                      equ  fuel+2
0276               lives:
0277                      equ  old_fuel+2
0278               boss_active:
0279                      equ  lives+2
0280               boss_sprite:
0281                      equ  boss_active+2
0282               boss_rocket_hits:
0283                      equ  boss_sprite+2
0284               boss_bonus:
0285                      equ  boss_rocket_hits+2
0286               current_char_zero:
0287                      equ  boss_bonus+2
0288               frames_to_wait:
0289                      equ  current_char_zero+2
0290               extra_life_given:
0291                      equ  frames_to_wait+2
0292               snd_channel_1:
0293                      equ  extra_life_given+2
0294               snd_channel_2:
0295                      equ  snd_channel_1+snd_channel_size
0296               snd_channel_3:
0297                      equ  snd_channel_2+snd_channel_size
0298               snd_channel_4:
0299                      equ  snd_channel_3+snd_channel_size
0300               pad_max:
0301                      equ  snd_channel_4+2
0302               
0303               ***************************************************************
0304               *
0305               * Lower memory
0306               *
0307                      aorg >2000
0308               
0309               ***************************************************************
0310               *
0311               * Main program
0312               *
0313               main:
0314 2000 0300  24        limi 0                          ; Interrupts off
     2002 0000 
0315 2004 02E0  18        lwpi wrksp                      ; Setup workspace
     2006 8300 
0316 2008 020A  20        li   r10,stack                  ; Setup stack pointer
     200A 8340 
0317 200C 020F  20        li   r15,vdpwd                  ; Constant for writing to VDP
     200E 8C00 
0318 2010 C820  54        mov  @rndsd,@rand_no            ; Save random number seed
     2012 83C0 
     2014 8354 
0319 2016 06A0  32        bl   @one_time_init
     2018 26EC 
0320               intro:
0321 201A 06A0  32        bl   @display_intro
     201C 2CA4 
0322               start_game:
0323 201E 06A0  32        bl   @init_game
     2020 2704 
0324               start_level:
0325 2022 06A0  32        bl   @init_level
     2024 2728 
0326               start_sub_level:
0327 2026 06A0  32        bl   @init_sub_level
     2028 278A 
0328               run_game_loop:
0329 202A 06A0  32        bl   @game_loop
     202C 2072 
0330               *      Check if player died or completed sub-level
0331 202E 0760  38        abs  @player_died
     2030 8378 
0332 2032 160A  14        jne  run_game_loop_1
0333               *      Sub level completed
0334 2034 05A0  34        inc  @sub_level_index
     2036 837C 
0335 2038 C020  34        mov  @sub_level_index,r0
     203A 837C 
0336 203C 0280  22        ci   r0,n_sub_levels
     203E 0003 
0337 2040 16F2  14        jne  start_sub_level
0338               *      Level completed
0339 2042 06A0  32        bl   @display_level_completed
     2044 2AFC 
0340 2046 10ED  14        jmp  start_level
0341               *      Died
0342               run_game_loop_1:
0343 2048 06A0  32        bl   @play_explosion_1
     204A A09E 
0344 204C 0200  20        li   r0,120
     204E 0078 
0345 2050 C800  38        mov  r0,@frames_to_wait
     2052 839A 
0346 2054 06A0  32        bl   @dead_loop
     2056 20DA 
0347 2058 0620  34        dec  @lives
     205A 838E 
0348 205C 1305  14        jeq  game_over
0349 205E 06A0  32        bl   @resurrect_player
     2060 275C 
0350 2062 06A0  32        bl   @reposition_player
     2064 2774 
0351 2066 10DF  14        jmp  start_sub_level
0352               *      Game over
0353               game_over:
0354 2068 06A0  32        bl   @display_game_over
     206A 2B6C 
0355 206C 06A0  32        bl   @update_high_scores
     206E 2A90 
0356 2070 10D4  14        jmp  intro
0357               *// main
0358               
0359               *********************************************************************
0360               *
0361               * Game loop
0362               *
0363               game_loop:
0001 2072 CE8B  34        mov  r11,*r10+
0365               game_loop_1:
0366 2074 06A0  32        bl   @vsync
     2076 2100 
0367 2078 06A0  32        bl   @set_vdp_regs
     207A 2114 
0368 207C 06A0  32        bl   @gpu_run
     207E 2EC4 
0369 2080 06A0  32        bl   @upload_characters
     2082 21A8 
0370 2084 06A0  32        bl   @draw_column
     2086 2268 
0371 2088 06A0  32        bl   @wait_gpu
     208A 2EAE 
0372               ;       bl   @player_collisions
0373 208C 06A0  32        bl   @bullet_collisions
     208E 24B0 
0374 2090 06A0  32        bl   @move_player
     2092 22FE 
0375 2094 06A0  32        bl   @fire
     2096 23E2 
0376 2098 06A0  32        bl   @move_sprites
     209A 2422 
0377 209C 06A0  32        bl   @create_sprites
     209E 250C 
0378 20A0 06A0  32        bl   @upload_sprites
     20A2 2150 
0379 20A4 06A0  32        bl   @display_height
     20A6 25B0 
0380 20A8 06A0  32        bl   @display_score
     20AA 2688 
0381 20AC 06A0  32        bl   @display_fuel
     20AE 2642 
0382 20B0 06A0  32        bl   @snd_player
     20B2 A146 
0383 20B4 06A0  32        bl   @use_fuel
     20B6 2612 
0384 20B8 06A0  32        bl   @display_fuel
     20BA 2642 
0385 20BC 0760  38        abs  @player_died
     20BE 8378 
0386 20C0 1609  14        jne  game_loop_2
0387 20C2 06A0  32        bl   @scroll
     20C4 26BE 
0388 20C6 8820  54        c    @scroll_pos,@scroll_max
     20C8 8358 
     20CA 835E 
0389 20CC 1AD3  14        jl   game_loop_1
0390 20CE C020  34        mov  @boss_active,r0
     20D0 8390 
0391 20D2 16D0  14        jne  game_loop_1
0392               game_loop_2:
0001 20D4 064A  14        dect r10
0002 20D6 C2DA  26        mov  *r10,r11
0003 20D8 045B  20        b    *r11
0394               *// game_loop
0395               
0396               *********************************************************************
0397               *
0398               * Game loop after dying
0399               *
0400               dead_loop:
0001 20DA CE8B  34        mov  r11,*r10+
0402               dead_loop_1:
0403 20DC 06A0  32        bl   @vsync
     20DE 2100 
0404 20E0 06A0  32        bl   @gpu_run
     20E2 2EC4 
0405 20E4 06A0  32        bl   @wait_gpu
     20E6 2EAE 
0406 20E8 06A0  32        bl   @move_sprites
     20EA 2422 
0407 20EC 06A0  32        bl   @upload_sprites
     20EE 2150 
0408 20F0 06A0  32        bl   @snd_player
     20F2 A146 
0409 20F4 0620  34        dec  @frames_to_wait
     20F6 839A 
0410 20F8 16F1  14        jne  dead_loop_1
0001 20FA 064A  14        dect r10
0002 20FC C2DA  26        mov  *r10,r11
0003 20FE 045B  20        b    *r11
0412               *// dead_loop
0413               
0414               *********************************************************************
0415               *
0416               * Wait for vertical retrace (CRU)
0417               *
0418               vsync:
0419 2100 D820  54        movb @vdpsta,@vdp_status
     2102 8802 
     2104 8352 
0420 2106 04CC  14        clr  r12
0421               vsync_1:
0422 2108 1F02  20        tb   2                          ; Test CRU bit for VDP interrupt
0423 210A 13FE  14        jeq  vsync_1
0424 210C D820  54        movb @vdpsta,@vdp_status
     210E 8802 
     2110 8352 
0425 2112 045B  20        rt
0426               *// vsync
0427               
0428               *********************************************************************
0429               *
0430               * Set VDP registers
0431               *
0432               set_vdp_regs:
0001 2114 CE8B  34        mov  r11,*r10+
0434               *      Horizontal scroll offset
0435 2116 C020  34        mov  @scroll_x,r0
     2118 835A 
0436 211A 0240  22        andi r0,>00ff
     211C 00FF 
0437 211E 0260  22        ori  r0,>1b00
     2120 1B00 
0438 2122 06A0  32        bl   @vwtr
     2124 34FE 
0439               *      Calculate vertical page and offset
0440 2126 04C0  14        clr  r0
0441 2128 C060  34        mov  @scroll_y,r1
     212A 835C 
0442 212C 0202  20        li   r2,screen_height
     212E 00F0 
0443 2130 3C02  128        div  r2,r0                      ; r0 quotient=pages, r1 remainder=offset
0444               *      Vertical page (name table)
0445 2132 0240  22        andi r0,1                       ; Bit 0 of quotient
     2134 0001 
0446 2136 0A10  56        sla  r0,1                       ; Shift to select name table
0447 2138 0260  22        ori  r0,>0200                   ; Name table
     213A 0200 
0448 213C 06A0  32        bl   @vwtr
     213E 34FE 
0449               *      Vertical scroll offset
0450 2140 C001  18        mov  r1,r0                      ; Offset
0451 2142 0260  22        ori  r0,>1c00
     2144 1C00 
0452 2146 06A0  32        bl   @vwtr
     2148 34FE 
0001 214A 064A  14        dect r10
0002 214C C2DA  26        mov  *r10,r11
0003 214E 045B  20        b    *r11
0454               *// set_vdp_regs
0455               
0456               *********************************************************************
0457               *
0458               * Upload sprites
0459               *
0460               upload_sprites:
0001 2150 CE8B  34        mov  r11,*r10+
0462 2152 0200  20        li   r0,vdp_sprite_buffer
     2154 0600 
0463 2156 06A0  32        bl   @vwad
     2158 3510 
0464 215A 0202  20        li   r2,r1lb
     215C 8303 
0465 215E 0204  20        li   r4,sprites
     2160 D462 
0466               upload_sprites_1:
0467 2162 8804  38        c    r4,@sprites_end_ptr
     2164 836A 
0468 2166 131B  14        jeq  upload_sprites_4
0469 2168 C1A4  34        mov  @sprite_type(r4),r6
     216A 0000 
0470 216C 1315  14        jeq  upload_sprites_3
0471 216E C0E4  34        mov  @sprite_z(r4),r3
     2170 0006 
0472 2172 1112  14        jlt  upload_sprites_3           ; Skip if z < 0
0473 2174 D7C4  30        movb r4,*r15                    ; Sprite address
0474 2176 D7E0  46        movb @r4lb,*r15
     2178 8309 
0475 217A C066  34        mov  @sprite_type_index(r6),r1  ; Type index
     217C 0000 
0476 217E D7C1  30        movb r1,*r15
0477 2180 D7D2  38        movb *r2,*r15
0478 2182 C064  34        mov  @sprite_x(r4),r1
     2184 0004 
0479 2186 D7C1  30        movb r1,*r15
0480 2188 D7D2  38        movb *r2,*r15                   ; Low byte
0481 218A C064  34        mov  @sprite_y(r4),r1
     218C 0002 
0482 218E D7C1  30        movb r1,*r15
0483 2190 D7D2  38        movb *r2,*r15                   ; Low byte
0484 2192 C043  18        mov  r3,r1                      ; z
0485 2194 D7C1  30        movb r1,*r15
0486 2196 D7D2  38        movb *r2,*r15                   ; Low byte
0487               upload_sprites_3:
0488 2198 0224  22        ai   r4,sprite_size
     219A 000A 
0489 219C 10E2  14        jmp  upload_sprites_1
0490               upload_sprites_4:
0491 219E 04DF  26        clr  *r15
0492 21A0 04DF  26        clr  *r15
0493               upload_sprites_5:
0001 21A2 064A  14        dect r10
0002 21A4 C2DA  26        mov  *r10,r11
0003 21A6 045B  20        b    *r11
0495               *// upload_sprites
0496               
0497               *********************************************************************
0498               *
0499               * Upload characters
0500               *
0501               * diff_ptr points to the difference structure
0502               *
0503               upload_characters:
0001 21A8 CE8B  34        mov  r11,*r10+
0505 21AA C020  34        mov  @scroll_x,r0
     21AC 835A 
0506 21AE 0240  22        andi r0,7
     21B0 0007 
0507 21B2 160D  14        jne  upload_characters_0
0508               *      Get new characters to upload
0509 21B4 C160  34        mov  @char_diff_ptr,r5
     21B6 8362 
0510 21B8 8805  38        c    r5,@char_diff_end
     21BA 8364 
0511 21BC 1422  14        jhe  upload_characters_3
0512 21BE 04C6  14        clr  r6
0513 21C0 D1B5  28        movb *r5+,r6
0514 21C2 131F  14        jeq  upload_characters_3
0515 21C4 06C6  14        swpb r6
0516 21C6 C806  38        mov  r6,@chars_to_upload
     21C8 8366 
0517 21CA C805  38        mov  r5,@char_diff_ptr
     21CC 8362 
0518               *      Calculate how many characters to upload this frame
0519               upload_characters_0:
0520 21CE C1A0  34        mov  @chars_to_upload,r6
     21D0 8366 
0521 21D2 1319  14        jeq  upload_characters_4                ; Skip if none left
0522 21D4 0286  22        ci   r6,max_uploaded_chars_per_frame
     21D6 0004 
0523 21D8 1205  14        jle  upload_characters_1
0524 21DA 0280  22        ci   r0,7                               ; At frame 7 we need to finish
     21DC 0007 
0525 21DE 1302  14        jeq  upload_characters_1
0526 21E0 0206  20        li   r6,max_uploaded_chars_per_frame    ; Limit number of characters to upload
     21E2 0004 
0527               *      Upload characters
0528               upload_characters_1:
0529 21E4 6806  38        s    r6,@chars_to_upload
     21E6 8366 
0530 21E8 C160  34        mov  @char_diff_ptr,r5
     21EA 8362 
0531               upload_characters_2:
0532 21EC 04C0  14        clr  r0
0533 21EE D035  28        movb *r5+,r0
0534 21F0 06C0  14        swpb r0
0535 21F2 D075  28        movb *r5+,r1
0536 21F4 06C1  14        swpb r1
0537 21F6 D075  28        movb *r5+,r1
0538 21F8 06C1  14        swpb r1
0539 21FA 06A0  32        bl   @upload_character
     21FC 220C 
0540 21FE 0606  14        dec  r6
0541 2200 16F5  14        jne  upload_characters_2
0542               upload_characters_3:
0543 2202 C805  38        mov  r5,@char_diff_ptr
     2204 8362 
0544               upload_characters_4:
0001 2206 064A  14        dect r10
0002 2208 C2DA  26        mov  *r10,r11
0003 220A 045B  20        b    *r11
0546               *// upload_characters
0547               
0548               *********************************************************************
0549               *
0550               * Upload character
0551               *
0552               * r0: VDP index
0553               * r1: Global index
0554               *
0555               upload_character:
0001 220C CE8B  34        mov  r11,*r10+
0557 220E C0C0  18        mov  r0,r3
0558 2210 C101  18        mov  r1,r4
0559               *      Select ROM bank
0560 2212 0241  22        andi r1,>0300
     2214 0300 
0561 2216 0971  56        srl  r1,7
0562 2218 A060  34        a    @char_patterns_bank_select,r1
     221A 836E 
0563 221C 0711  26        seto *r1
0564               *      Tile attribute
0565 221E 0220  22        ai   r0,tile_attr_table
     2220 0400 
0566 2222 D064  34        movb @tile_attr_base_addr(r4),r1
     2224 6400 
0567 2226 06A0  32        bl   @vsbw
     2228 3522 
0568               *      Pattern
0569 222A C003  18        mov  r3,r0
0570 222C C044  18        mov  r4,r1
0571 222E 0A30  56        sla  r0,3
0572 2230 0220  22        ai   r0,pattern_table_base
     2232 1000 
0573 2234 0241  22        andi r1,>00ff
     2236 00FF 
0574 2238 0A31  56        sla  r1,3
0575 223A 0221  22        ai   r1,patterns_base_addr
     223C 6800 
0576 223E 0202  20        li   r2,3
     2240 0003 
0577               upload_character_1:
0578 2242 06A0  32        bl   @vwad
     2244 3510 
0579 2246 D7F1  40        movb *r1+,*r15
0580 2248 D7F1  40        movb *r1+,*r15
0581 224A D7F1  40        movb *r1+,*r15
0582 224C D7F1  40        movb *r1+,*r15
0583 224E D7F1  40        movb *r1+,*r15
0584 2250 D7F1  40        movb *r1+,*r15
0585 2252 D7F1  40        movb *r1+,*r15
0586 2254 D7F1  40        movb *r1+,*r15
0587 2256 0220  22        ai   r0,pattern_table_p_1-pattern_table_p_0
     2258 0800 
0588 225A 0221  22        ai   r1,>800-8
     225C 07F8 
0589 225E 0602  14        dec  r2
0590 2260 16F0  14        jne  upload_character_1
0001 2262 064A  14        dect r10
0002 2264 C2DA  26        mov  *r10,r11
0003 2266 045B  20        b    *r11
0592               *// upload_character
0593               
0594               *********************************************************************
0595               *
0596               * Draw column
0597               *
0598               draw_column:
0001 2268 CE8B  34        mov  r11,*r10+
0600 226A C020  34        mov  @scroll_x,r0
     226C 835A 
0601 226E 0240  22        andi r0,7
     2270 0007 
0602 2272 1642  14        jne  draw_column_3
0603               *      Select ROM bank
0604 2274 C020  34        mov  @map_bank_select,r0
     2276 836C 
0605 2278 0710  26        seto *r0
0606               *      Set VDP address increment
0607 227A 0200  20        li   r0,>3020                   ; Set VDP address increment
     227C 3020 
0608 227E 06A0  32        bl   @vwtr                      ; to 32
     2280 34FE 
0609               *      Calculate VDP address
0610 2282 C020  34        mov  @scroll_x,r0
     2284 835A 
0611 2286 0220  22        ai   r0,window_width+window_left ; Right side of window
     2288 00F0 
0612 228A 0930  56        srl  r0,3                       ; Offset in characters
0613 228C 0240  22        andi r0,screen_width_chars-1    ; VDP address
     228E 001F 
0614               *      Vertical
0615 2290 04C2  14        clr  r2                         ; For division
0616 2292 C0E0  34        mov  @scroll_y,r3               ; Scroll offset
     2294 835C 
0617 2296 0223  22        ai   r3,window_top              ; Draw start
     2298 FFDC 
0618 229A 0204  20        li   r4,screen_height           ; Divisor
     229C 00F0 
0619 229E 3C84  128        div  r4,r2                      ; r2 quotient=page, r3 remainder=offset
0620 22A0 0242  22        andi r2,1                       ; Bit 0 of quotient
     22A2 0001 
0621 22A4 0AB2  56        sla  r2,11                      ; * 2048 = name table offset
0622 22A6 A002  18        a    r2,r0                      ; Add to VDP address
0623 22A8 0933  56        srl  r3,3                       ; Vertical offset in characters
0624 22AA C103  18        mov  r3,r4                      ; Save for draw loop
0625 22AC 0A53  56        sla  r3,5                       ; Vertical address offset
0626 22AE A003  18        a    r3,r0                      ; Add to VDP address
0627 22B0 06A0  32        bl   @vwad                      ; Set VDP address
     22B2 3510 
0628               *      Map address
0629 22B4 C060  34        mov  @scroll_x,r1
     22B6 835A 
0630 22B8 0931  56        srl  r1,3                       ; Offset in characters
0631 22BA C1A0  34        mov  @map_width,r6
     22BC 8356 
0632 22BE 0606  14        dec  r6
0633 22C0 8181  18        c    r1,r6
0634 22C2 1101  14        jlt  draw_column_0
0635 22C4 C046  18        mov  r6,r1
0636               draw_column_0:
0637 22C6 0221  22        ai   r1,map
     22C8 6000 
0638               *      Draw column
0639 22CA 0202  20        li   r2,map_height
     22CC 001A 
0640               draw_column_1:
0641 22CE D7D1  38        movb *r1,*r15
0642 22D0 A060  34        a    @map_width,r1
     22D2 8356 
0643 22D4 0584  14        inc  r4                         ; Increase vertical offset
0644 22D6 0284  22        ci   r4,screen_height_chars
     22D8 001E 
0645 22DA 1108  14        jlt  draw_column_2
0646 22DC 0240  22        andi r0,>81f                    ; To top
     22DE 081F 
0647 22E0 0205  20        li   r5,>800                    ; Flip page
     22E2 0800 
0648 22E4 2805  18        xor  r5,r0
0649 22E6 06A0  32        bl   @vwad
     22E8 3510 
0650 22EA 04C4  14        clr  r4
0651               draw_column_2:
0652 22EC 0602  14        dec  r2
0653 22EE 16EF  14        jne  draw_column_1
0654               *      Reset VDP address increment
0655 22F0 0200  20        li   r0,>3001                   ; Set VDP address increment
     22F2 3001 
0656 22F4 06A0  32        bl   @vwtr                      ; to 1
     22F6 34FE 
0657               draw_column_3:
0001 22F8 064A  14        dect r10
0002 22FA C2DA  26        mov  *r10,r11
0003 22FC 045B  20        b    *r11
0659               *// draw_column
0660               
0661               *********************************************************************
0662               *
0663               * Move player
0664               *
0665               move_player:
0001 22FE CE8B  34        mov  r11,*r10+
0667 2300 C120  34        mov  @player_sprite,r4
     2302 8372 
0668 2304 0201  20        li   r1,sprite_type_plane
     2306 CD14 
0669 2308 0760  38        abs  @player_scale_z
     230A 8360 
0670 230C 1309  14        jeq  move_player_1
0671 230E C0A4  34        mov  @sprite_z(r4),r2
     2310 0006 
0672 2312 0222  22        ai   r2,-player_z_min
     2314 FFF8 
0673 2316 0242  22        andi r2,>30
     2318 0030 
0674 231A 0932  56        srl  r2,3
0675 231C C062  34        mov  @player_sprite_types(r2),r1
     231E 23C4 
0676               *      Check joystick
0677               move_player_1:
0678 2320 0200  20        li   r0,KEY_FI
     2322 0606 
0679 2324 06A0  32        bl   @check_key
     2326 2BC2 
0680               *      Fire
0681 2328 1306  14        jeq  move_player_2
0682 232A C020  34        mov  @player_fire,r0            ; Test if ready
     232C 8376 
0683 232E 1605  14        jne  move_player_3
0684 2330 0720  34        seto @player_fire               ; Fire
     2332 8376 
0685 2334 1002  14        jmp  move_player_3
0686               move_player_2:
0687 2336 04E0  34        clr  @player_fire               ; Set ready
     2338 8376 
0688               *      Left
0689               move_player_3:
0690 233A 1F01  20        tb   1
0691 233C 1308  14        jeq  move_player_4
0692 233E C024  34        mov  @sprite_y(r4),r0
     2340 0002 
0693 2342 0280  22        ci   r0,player_y_min-1
     2344 0047 
0694 2346 110C  14        jlt  move_player_5
0695 2348 0624  34        dec  @sprite_y(r4)
     234A 0002 
0696 234C 1009  14        jmp  move_player_5
0697               *      Right
0698               move_player_4:
0699 234E 1F02  20        tb   2
0700 2350 1307  14        jeq  move_player_5
0701 2352 C024  34        mov  @sprite_y(r4),r0
     2354 0002 
0702 2356 0280  22        ci   r0,player_y_max-1
     2358 00B1 
0703 235A 1502  14        jgt  move_player_5
0704 235C 05A4  34        inc  @sprite_y(r4)
     235E 0002 
0705               *      Down (plane up)
0706               move_player_5:
0707 2360 1F03  20        tb   3
0708 2362 1315  14        jeq  move_player_6
0709 2364 C0A4  34        mov  @sprite_z(r4),r2
     2366 0006 
0710 2368 0282  22        ci   r2,player_z_max-1
     236A 0046 
0711 236C 1526  14        jgt  move_player_7
0712 236E 0582  14        inc  r2
0713 2370 C902  38        mov  r2,@sprite_z(r4)
     2372 0006 
0714 2374 0201  20        li   r1,sprite_type_plane_up
     2376 CDD4 
0715 2378 0760  38        abs  @player_scale_z
     237A 8360 
0716 237C 131E  14        jeq  move_player_7
0717 237E 0222  22        ai   r2,-player_z_min
     2380 FFF8 
0718 2382 0242  22        andi r2,>30
     2384 0030 
0719 2386 0932  56        srl  r2,3
0720 2388 C062  34        mov  @player_sprite_types_up(r2),r1
     238A 23CE 
0721 238C 1016  14        jmp  move_player_7
0722               *      Up (plane down)
0723               move_player_6:
0724 238E 1F04  20        tb   4
0725 2390 1314  14        jeq  move_player_7
0726 2392 C0A4  34        mov  @sprite_z(r4),r2
     2394 0006 
0727 2396 0282  22        ci   r2,player_z_min+1
     2398 0009 
0728 239A 110F  14        jlt  move_player_7
0729 239C 0602  14        dec  r2
0730 239E C902  38        mov  r2,@sprite_z(r4)
     23A0 0006 
0731 23A2 0201  20        li   r1,sprite_type_plane_down
     23A4 CDDC 
0732 23A6 0760  38        abs  @player_scale_z
     23A8 8360 
0733 23AA 1307  14        jeq  move_player_7
0734 23AC 0222  22        ai   r2,-player_z_min
     23AE FFF8 
0735 23B0 0242  22        andi r2,>30
     23B2 0030 
0736 23B4 0932  56        srl  r2,3
0737 23B6 C062  34        mov  @player_sprite_types_down(r2),r1
     23B8 23D8 
0738               move_player_7:
0739 23BA C901  38        mov  r1,@sprite_type(r4)
     23BC 0000 
0001 23BE 064A  14        dect r10
0002 23C0 C2DA  26        mov  *r10,r11
0003 23C2 045B  20        b    *r11
0741               player_sprite_types:
0742 23C4 CDF4            data sprite_type_plane_xs
0743 23C6 CDEC            data sprite_type_plane_s
0744 23C8 CDE4            data sprite_type_plane_m
0745 23CA CD14            data sprite_type_plane
0746 23CC CD14            data sprite_type_plane
0747               player_sprite_types_up:
0748 23CE CE0C            data sprite_type_plane_up_xs
0749 23D0 CE04            data sprite_type_plane_up_s
0750 23D2 CDFC            data sprite_type_plane_up_m
0751 23D4 CDD4            data sprite_type_plane_up
0752 23D6 CDD4            data sprite_type_plane_up
0753               player_sprite_types_down:
0754 23D8 CE24            data sprite_type_plane_down_xs
0755 23DA CE1C            data sprite_type_plane_down_s
0756 23DC CE14            data sprite_type_plane_down_m
0757 23DE CDDC            data sprite_type_plane_down
0758 23E0 CDDC            data sprite_type_plane_down
0759               *// move_player
0760               
0761               *********************************************************************
0762               *
0763               * Fire
0764               *
0765               fire:
0001 23E2 CE8B  34        mov  r11,*r10+
0767 23E4 C020  34        mov  @player_fire,r0
     23E6 8376 
0768 23E8 1319  14        jeq  fire_1
0769 23EA 1518  14        jgt  fire_1
0770 23EC 06A0  32        bl   @allocate_sprite
     23EE 2564 
0771 23F0 C144  18        mov  r4,r5
0772 23F2 1314  14        jeq  fire_1
0773 23F4 0206  20        li   r6,sprite_type_green_bullet
     23F6 CDC4 
0774 23F8 C946  38        mov  r6,@sprite_type(r5)
     23FA 0000 
0775 23FC C120  34        mov  @player_sprite,r4
     23FE 8372 
0776 2400 06A0  32        bl   @align_sprites
     2402 259C 
0777 2404 0200  20        li   r0,12
     2406 000C 
0778 2408 A940  38        a    r0,@sprite_x(r5)
     240A 0004 
0779 240C 0200  20        li   r0,3
     240E 0003 
0780 2410 A940  38        a    r0,@sprite_y(r5)
     2412 0002 
0781 2414 0520  36        neg  @player_fire
     2416 8376 
0782 2418 06A0  32        bl   @play_shot
     241A A026 
0783               fire_1:
0001 241C 064A  14        dect r10
0002 241E C2DA  26        mov  *r10,r11
0003 2420 045B  20        b    *r11
0785               *// fire
0786               
0787               *********************************************************************
0788               *
0789               * Move sprites
0790               *
0791               move_sprites:
0001 2422 CE8B  34        mov  r11,*r10+
0793 2424 C220  34        mov  @scroll_pos,r8
     2426 8358 
0794 2428 0228  22        ai   r8,-32
     242A FFE0 
0795 242C 0204  20        li   r4,sprites
     242E D462 
0796               move_sprites_1:
0797 2430 8804  38        c    r4,@sprites_end_ptr
     2432 836A 
0798 2434 141A  14        jhe  move_sprites_4
0799 2436 C1E4  34        mov  @sprite_type(r4),r7
     2438 0000 
0800 243A 1314  14        jeq  move_sprites_3
0801               *      Handler
0802 243C C027  34        mov  @sprite_type_handler(r7),r0
     243E 0002 
0803 2440 1301  14        jeq  move_sprites_2
0804 2442 0690  24        bl   *r0
0805               *      Check if out of bounds
0806               move_sprites_2:
0807 2444 C024  34        mov  @sprite_x(r4),r0
     2446 0004 
0808 2448 A024  34        a    @sprite_y(r4),r0
     244A 0002 
0809 244C 8200  18        c    r0,r8
0810 244E 150A  14        jgt  move_sprites_3
0811               *      Remove
0812 2450 04E4  34        clr  @sprite_type(r4)           ; Remove sprite
     2452 0000 
0813 2454 C160  34        mov  @sprites_end_ptr,r5
     2456 836A 
0814 2458 0225  22        ai   r5,-sprite_size
     245A FFF6 
0815 245C 8144  18        c    r4,r5
0816 245E 1602  14        jne  move_sprites_3
0817 2460 C805  38        mov  r5,@sprites_end_ptr
     2462 836A 
0818               *      Next
0819               move_sprites_3:
0820 2464 0224  22        ai   r4,sprite_size
     2466 000A 
0821 2468 10E3  14        jmp  move_sprites_1
0822               move_sprites_4:
0001 246A 064A  14        dect r10
0002 246C C2DA  26        mov  *r10,r11
0003 246E 045B  20        b    *r11
0824               *// move_sprites
0825               
0826               *********************************************************************
0827               *
0828               * Player collisions
0829               *
0830               player_collisions:
0001 2470 CE8B  34        mov  r11,*r10+
0832 2472 0200  20        li   r0,vdp_collisions
     2474 0BC0 
0833 2476 06A0  32        bl   @vrad
     2478 359C 
0834               player_collisions_1:
0835               *      Get 1st sprite involved in collision
0836 247A D120  34        movb @vdprd,r4
     247C 8800 
0837 247E 06C4  14        swpb r4
0838 2480 D120  34        movb @vdprd,r4
     2482 8800 
0839 2484 06C4  14        swpb r4
0840               *      Check if it's the player
0841 2486 8804  38        c    r4,@player_sprite
     2488 8372 
0842 248A 160F  14        jne  player_collisions_3
0843               *      Get 2nd sprite involved in collision
0844 248C D160  34        movb @vdprd,r5
     248E 8800 
0845 2490 06C5  14        swpb r5
0846 2492 D160  34        movb @vdprd,r5
     2494 8800 
0847 2496 06C5  14        swpb r5
0848               *      Check if 2nd sprite is in fact a wall
0849 2498 C145  18        mov  r5,r5
0850 249A 1305  14        jeq  player_collisions_2        ; Wall
0851               *      Check if 2nd sprite is lethal
0852 249C C1E5  34        mov  @sprite_type(r5),r7
     249E 0000 
0853 24A0 C027  34        mov  @sprite_type_lethal(r7),r0
     24A2 0006 
0854 24A4 13EA  14        jeq  player_collisions_1
0855               *      Collision
0856               player_collisions_2:
0857 24A6 0720  34        seto @player_died
     24A8 8378 
0858               player_collisions_3:
0001 24AA 064A  14        dect r10
0002 24AC C2DA  26        mov  *r10,r11
0003 24AE 045B  20        b    *r11
0860               *// player_collisions
0861               
0862               *********************************************************************
0863               *
0864               * Bullet collisions
0865               *
0866               bullet_collisions:
0001 24B0 CE8B  34        mov  r11,*r10+
0868 24B2 0200  20        li   r0,vdp_collisions
     24B4 0BC0 
0869 24B6 06A0  32        bl   @vrad
     24B8 359C 
0870               bullet_collisions_1:
0871               *      Get 1st sprite involved in collision
0872 24BA D120  34        movb @vdprd,r4
     24BC 8800 
0873 24BE 06C4  14        swpb r4
0874 24C0 D120  34        movb @vdprd,r4
     24C2 8800 
0875 24C4 06C4  14        swpb r4
0876 24C6 C104  18        mov  r4,r4
0877 24C8 131E  14        jeq  bullet_collisions_3
0878               *      Get 2nd sprite involved in collision
0879 24CA D160  34        movb @vdprd,r5
     24CC 8800 
0880 24CE 06C5  14        swpb r5
0881 24D0 D160  34        movb @vdprd,r5
     24D2 8800 
0882 24D4 06C5  14        swpb r5
0883               *      Check if 1st sprite is a bullet
0884 24D6 C1A4  34        mov  @sprite_type(r4),r6
     24D8 0000 
0885 24DA 0286  22        ci   r6,sprite_type_green_bullet
     24DC CDC4 
0886 24DE 1308  14        jeq  bullet_collisions_1a
0887               *      Check if 2nd sprite is a bullet
0888 24E0 C1A5  34        mov  @sprite_type(r5),r6
     24E2 0000 
0889 24E4 0286  22        ci   r6,sprite_type_green_bullet
     24E6 CDC4 
0890 24E8 16E8  14        jne  bullet_collisions_1
0891               *      Swap 1st and 2nd
0892 24EA C004  18        mov  r4,r0
0893 24EC C105  18        mov  r5,r4
0894 24EE C140  18        mov  r0,r5
0895               *      Check if 2nd sprite is in fact a wall
0896               bullet_collisions_1a:
0897 24F0 C145  18        mov  r5,r5
0898 24F2 1603  14        jne  bullet_collisions_2
0899               *      Collision with wall
0900 24F4 06A0  32        bl   @wall_hit_handler
     24F6 3B5E 
0901 24F8 1006  14        jmp  bullet_collisions_3
0902               *      Collision with other sprite
0903               bullet_collisions_2:
0904 24FA C1E5  34        mov  @sprite_type(r5),r7
     24FC 0000 
0905 24FE C227  34        mov  @sprite_type_hit_handler(r7),r8    ; Can the sprite be hit?
     2500 0004 
0906 2502 13DB  14        jeq  bullet_collisions_1
0907 2504 0698  24        bl   *r8
0908               bullet_collisions_3:
0001 2506 064A  14        dect r10
0002 2508 C2DA  26        mov  *r10,r11
0003 250A 045B  20        b    *r11
0910               *// bullet_collisions
0911               
0912               *********************************************************************
0913               *
0914               * Create sprites
0915               *
0916               create_sprites:
0001 250C CE8B  34        mov  r11,*r10+
0918 250E C1A0  34        mov  @sprite_def_ptr,r6
     2510 8368 
0919               create_sprites_1:
0920 2512 89A0  54        c    @scroll_x,@sprite_def_scroll_x(r6)
     2514 835A 
     2516 0000 
0921 2518 1A05  14        jl   create_sprites_2
0922 251A 06A0  32        bl   @create_sprite
     251C 252E 
0923 251E 0226  22        ai   r6,sprite_def_size
     2520 000A 
0924 2522 10F7  14        jmp create_sprites_1
0925               create_sprites_2:
0926 2524 C806  38        mov  r6,@sprite_def_ptr
     2526 8368 
0001 2528 064A  14        dect r10
0002 252A C2DA  26        mov  *r10,r11
0003 252C 045B  20        b    *r11
0928               *// create_sprites
0929               
0930               *********************************************************************
0931               *
0932               * Create sprite
0933               *
0934               * r6: sprite def
0935               *
0936               create_sprite:
0001 252E CE8B  34        mov  r11,*r10+
0938 2530 06A0  32        bl   @allocate_sprite
     2532 2564 
0939 2534 C104  18        mov  r4,r4
0940 2536 1313  14        jeq  create_sprite_2
0941               create_sprite_1:
0942 2538 C1E6  34        mov  @sprite_def_type(r6),r7
     253A 0008 
0943 253C C907  38        mov  r7,@sprite_type(r4)
     253E 0000 
0944 2540 C926  54        mov  @sprite_def_x(r6),@sprite_x(r4)
     2542 0002 
     2544 0004 
0945 2546 C926  54        mov  @sprite_def_y(r6),@sprite_y(r4)
     2548 0004 
     254A 0002 
0946 254C C926  54        mov  @sprite_def_z(r6),@sprite_z(r4)
     254E 0006 
     2550 0006 
0947               *      Handler
0948 2552 C027  34        mov  @sprite_type_handler(r7),r0
     2554 0002 
0949 2556 1303  14        jeq  create_sprite_2
0950 2558 0724  34        seto @sprite_counter(r4)        ; Initial value
     255A 0008 
0951 255C 0690  24        bl   *r0
0952               create_sprite_2:
0001 255E 064A  14        dect r10
0002 2560 C2DA  26        mov  *r10,r11
0003 2562 045B  20        b    *r11
0954               *// create_sprite
0955               
0956               *********************************************************************
0957               *
0958               * Allocate sprite
0959               *
0960               * On return r4 contains the address of the sprites
0961               * or 0 if allocation failed
0962               *
0963               allocate_sprite:
0001 2564 CE8B  34        mov  r11,*r10+
0965 2566 0204  20        li   r4,sprites
     2568 D462 
0966               allocate_sprite_1:
0967 256A 8804  38        c    r4,@sprites_end_ptr
     256C 836A 
0968 256E 1306  14        jeq  allocate_sprite_2
0969 2570 C024  34        mov  @sprite_type(r4),r0
     2572 0000 
0970 2574 1303  14        jeq  allocate_sprite_2
0971 2576 0224  22        ai   r4,sprite_size
     2578 000A 
0972 257A 10F7  14        jmp  allocate_sprite_1
0973               allocate_sprite_2:
0974 257C 0284  22        ci   r4,sprites+(sprite_size*max_sprites)
     257E D516 
0975 2580 1A02  14        jl   allocate_sprite_3
0976 2582 04C4  14        clr  r4
0977 2584 1008  14        jmp  allocate_sprite_4
0978               allocate_sprite_3:
0979 2586 C160  34        mov  @sprites_end_ptr,r5
     2588 836A 
0980 258A 8144  18        c    r4,r5
0981 258C 1604  14        jne  allocate_sprite_4
0982 258E 0225  22        ai   r5,sprite_size
     2590 000A 
0983 2592 C805  38        mov  r5,@sprites_end_ptr
     2594 836A 
0984               allocate_sprite_4:
0001 2596 064A  14        dect r10
0002 2598 C2DA  26        mov  *r10,r11
0003 259A 045B  20        b    *r11
0986               *// allocate_sprite
0987               
0988               *********************************************************************
0989               *
0990               * Align sprites to the same position
0991               *
0992               * r4: sprite to align to
0993               * r5: sprite to align
0994               *
0995               align_sprites:
0996 259C C964  54        mov  @sprite_x(r4),@sprite_x(r5)
     259E 0004 
     25A0 0004 
0997 25A2 C964  54        mov  @sprite_y(r4),@sprite_y(r5)
     25A4 0002 
     25A6 0002 
0998 25A8 C964  54        mov  @sprite_z(r4),@sprite_z(r5)
     25AA 0006 
     25AC 0006 
0999 25AE 045B  20        rt
1000               *// allign_sprites
1001               
1002               *********************************************************************
1003               *
1004               * Display height
1005               *
1006               display_height:
0001 25B0 CE8B  34        mov  r11,*r10+
1008 25B2 C120  34        mov  @player_sprite,r4
     25B4 8372 
1009 25B6 C064  34        mov  @sprite_z(r4),r1
     25B8 0006 
1010 25BA 8801  38        c    r1,@old_height
     25BC 8388 
1011 25BE 1326  14        jeq  display_height_6
1012 25C0 C801  38        mov  r1,@old_height
     25C2 8388 
1013               *      Set VDP address increment
1014 25C4 0200  20        li   r0,>3020                   ; Set VDP address increment
     25C6 3020 
1015 25C8 06A0  32        bl   @vwtr                      ; to 32
     25CA 34FE 
1016               *      Set VDP write address
1017 25CC 0200  20        li   r0,name_table_2+(10*32)
     25CE 0D40 
1018 25D0 06A0  32        bl   @vwad
     25D2 3510 
1019               *      Draw empty
1020 25D4 0202  20        li   r2,player_z_max+1
     25D6 0048 
1021 25D8 6081  18        s    r1,r2
1022 25DA C0C2  18        mov  r2,r3
1023 25DC 0932  56        srl  r2,3
1024 25DE 1305  14        jeq  display_height_2
1025 25E0 0200  20        li   r0,>fa00                   ; Empty char
     25E2 FA00 
1026               display_height_1:
1027 25E4 D7C0  30        movb r0,*r15
1028 25E6 0602  14        dec  r2
1029 25E8 16FD  14        jne  display_height_1
1030               *      Draw half
1031               display_height_2:
1032 25EA 0243  22        andi r3,>0004
     25EC 0004 
1033 25EE 1303  14        jeq  display_height_3
1034 25F0 0200  20        li   r0,>e500                   ; Half char
     25F2 E500 
1035 25F4 D7C0  30        movb r0,*r15
1036               *      Draw full
1037               display_height_3:
1038 25F6 0931  56        srl  r1,3
1039 25F8 1305  14        jeq  display_height_5
1040 25FA 0200  20        li   r0,>e600                   ; Full char
     25FC E600 
1041               display_height_4:
1042 25FE D7C0  30        movb r0,*r15
1043 2600 0601  14        dec  r1
1044 2602 16FD  14        jne  display_height_4
1045               *      Set VDP address increment
1046               display_height_5:
1047 2604 0200  20        li   r0,>3001                   ; Set VDP address increment
     2606 3001 
1048 2608 06A0  32        bl   @vwtr                      ; to 1
     260A 34FE 
1049               display_height_6:
0001 260C 064A  14        dect r10
0002 260E C2DA  26        mov  *r10,r11
0003 2610 045B  20        b    *r11
1051               *// display_height
1052               
1053               *********************************************************************
1054               *
1055               * Use fuel
1056               *
1057               use_fuel:
0001 2612 CE8B  34        mov  r11,*r10+
1059 2614 8820  54        c    @sub_level_data,@sub_level_0_data
     2616 837E 
     2618 A200 
1060 261A 1310  14        jeq  use_fuel_2
1061 261C 0620  34        dec  @fuel
     261E 838A 
1062 2620 C020  34        mov  @fuel,r0
     2622 838A 
1063 2624 1309  14        jeq  use_fuel_1
1064 2626 0280  22        ci   r0,4*fuel_unit
     2628 0100 
1065 262A 1408  14        jhe  use_fuel_2
1066 262C 0240  22        andi r0,>1f
     262E 001F 
1067 2630 1605  14        jne  use_fuel_2
1068 2632 06A0  32        bl   @play_warning
     2634 A056 
1069 2636 1002  14        jmp  use_fuel_2
1070               use_fuel_1
1071 2638 0720  34        seto @player_died
     263A 8378 
1072               use_fuel_2:
0001 263C 064A  14        dect r10
0002 263E C2DA  26        mov  *r10,r11
0003 2640 045B  20        b    *r11
1074               *// use_fuel
1075               
1076               *********************************************************************
1077               *
1078               * Display fuel
1079               *
1080               display_fuel:
0001 2642 CE8B  34        mov  r11,*r10+
1082 2644 C060  34        mov  @fuel,r1
     2646 838A 
1083 2648 111C  14        jlt  display_fuel_4
1084 264A 8801  38        c    r1,@old_fuel
     264C 838C 
1085 264E 1319  14        jeq  display_fuel_4
1086 2650 0200  20        li   r0,name_table_2+(29*32)+16
     2652 0FB0 
1087 2654 06A0  32        bl   @vwad
     2656 3510 
1088 2658 C081  18        mov  r1,r2
1089 265A 0222  22        ai   r2,fuel_unit-1
     265C 003F 
1090 265E 0962  56        srl  r2,6                       ; log2(fuel_unit)
1091 2660 C0C2  18        mov  r2,r3
1092 2662 1305  14        jeq  display_fuel_2
1093 2664 0200  20        li   r0,char_fuel*256
     2666 EF00 
1094               display_fuel_1:
1095 2668 D7C0  30        movb r0,*r15
1096 266A 0602  14        dec  r2
1097 266C 16FD  14        jne  display_fuel_1
1098               display_fuel_2:
1099 266E 0202  20        li   r2,fuel_max/fuel_unit
     2670 000F 
1100 2672 6083  18        s    r3,r2
1101 2674 0582  14        inc  r2
1102 2676 1305  14        jeq  display_fuel_4
1103 2678 0200  20        li   r0,char_mask*256
     267A FA00 
1104               display_fuel_3:
1105 267C D7C0  30        movb r0,*r15
1106 267E 0602  14        dec  r2
1107 2680 16FD  14        jne  display_fuel_3
1108               display_fuel_4:
0001 2682 064A  14        dect r10
0002 2684 C2DA  26        mov  *r10,r11
0003 2686 045B  20        b    *r11
1110               *// display_fuel
1111               
1112               *********************************************************************
1113               *
1114               * Display score
1115               *
1116               display_score:
0001 2688 CE8B  34        mov  r11,*r10+
1118 268A C060  34        mov  @score,r1
     268C 8382 
1119 268E 8801  38        c    r1,@old_score
     2690 8384 
1120 2692 1312  14        jeq  display_score_1
1121 2694 0200  20        li   r0,68
     2696 0044 
1122 2698 0202  20        li   r2,5
     269A 0005 
1123 269C 06A0  32        bl   @display_decimal_at
     269E 2BE8 
1124 26A0 C820  54        mov  @score,@old_score
     26A2 8382 
     26A4 8384 
1125 26A6 8820  54        c    @score,@high_score
     26A8 8382 
     26AA 8386 
1126 26AC 1A05  14        jl   display_score_1
1127 26AE C820  54        mov  @score,@high_score
     26B0 8382 
     26B2 8386 
1128 26B4 06A0  32        bl   @display_high_score
     26B6 2AB6 
1129               display_score_1:
0001 26B8 064A  14        dect r10
0002 26BA C2DA  26        mov  *r10,r11
0003 26BC 045B  20        b    *r11
1131               *// display_score
1132               
1133               *********************************************************************
1134               *
1135               * Scroll
1136               *
1137               scroll:
0001 26BE CE8B  34        mov  r11,*r10+
1139 26C0 C060  34        mov  @scroll_pos,r1
     26C2 8358 
1140 26C4 8801  38        c    r1,@scroll_max
     26C6 835E 
1141 26C8 140E  14        jhe  scroll_1
1142 26CA 0581  14        inc  r1
1143 26CC C801  38        mov  r1,@scroll_pos
     26CE 8358 
1144 26D0 0200  20        li   r0,vdp_scroll_pos          ; Update VPD variable
     26D2 03C2 
1145 26D4 06A0  32        bl   @vsww
     26D6 3536 
1146 26D8 C801  38        mov  r1,@scroll_x
     26DA 835A 
1147 26DC 0241  22        andi r1,1
     26DE 0001 
1148 26E0 1602  14        jne  scroll_1
1149 26E2 0620  34        dec  @scroll_y
     26E4 835C 
1150               scroll_1:
0001 26E6 064A  14        dect r10
0002 26E8 C2DA  26        mov  *r10,r11
0003 26EA 045B  20        b    *r11
1152               *// scroll
1153               
1154               *********************************************************************
1155               *
1156               * One time initializations
1157               *
1158               one_time_init:
0001 26EC CE8B  34        mov  r11,*r10+
1160 26EE 06A0  32        bl   @graphics_mode
     26F0 283C 
1161 26F2 06A0  32        bl   @init_tl2_patterns
     26F4 299A 
1162 26F6 06A0  32        bl   @display_tl2_mask
     26F8 28DC 
1163 26FA 06A0  32        bl   @upload_gpu_program
     26FC 2E78 
0001 26FE 064A  14        dect r10
0002 2700 C2DA  26        mov  *r10,r11
0003 2702 045B  20        b    *r11
1165               *// one_time_init
1166               
1167               *********************************************************************
1168               *
1169               * Initialize game
1170               *
1171               init_game:
0001 2704 CE8B  34        mov  r11,*r10+
1173 2706 04E0  34        clr  @level
     2708 837A 
1174 270A 04E0  34        clr  @score
     270C 8382 
1175 270E 0720  34        seto @old_score
     2710 8384 
1176 2712 04E0  34        clr  @boss_active
     2714 8390 
1177 2716 0200  20        li   r0,3
     2718 0003 
1178 271A C800  38        mov  r0,@lives
     271C 838E 
1179 271E 04E0  34        clr  @extra_life_given
     2720 839C 
0001 2722 064A  14        dect r10
0002 2724 C2DA  26        mov  *r10,r11
0003 2726 045B  20        b    *r11
1181               *// init_game
1182               
1183               *********************************************************************
1184               *
1185               * Initialize level
1186               *
1187               init_level:
0001 2728 CE8B  34        mov  r11,*r10+
1189 272A 04E0  34        clr  @sub_level_index
     272C 837C 
1190 272E 06A0  32        bl   @resurrect_player
     2730 275C 
1191               *      Reset sprites
1192 2732 06A0  32        bl   @reset_sprites
     2734 2938 
1193               *      Create player plane
1194 2736 0206  20        li   r6,plane_def
     2738 CEB4 
1195 273A 06A0  32        bl   @create_sprite
     273C 252E 
1196 273E C804  38        mov  r4,@player_sprite
     2740 8372 
1197 2742 0206  20        li   r6,shadow_def
     2744 CEBE 
1198 2746 06A0  32        bl   @create_sprite
     2748 252E 
1199 274A C804  38        mov  r4,@player_shadow
     274C 8374 
1200               *      Init sprites on sublevel 0
1201 274E 06A0  32        bl   @init_sprite_defs_0
     2750 2A34 
1202               *      Display height and fuel labels
1203 2752 06A0  32        bl   @display_tl2_game_labels
     2754 29E2 
0001 2756 064A  14        dect r10
0002 2758 C2DA  26        mov  *r10,r11
0003 275A 045B  20        b    *r11
1205               *// init_level
1206               
1207               *********************************************************************
1208               *
1209               * Resurrect player
1210               *
1211               resurrect_player:
1212 275C 04E0  34        clr  @player_died
     275E 8378 
1213 2760 04E0  34        clr  @player_fire
     2762 8376 
1214 2764 0720  34        seto @old_height
     2766 8388 
1215 2768 0200  20        li   r0,fuel_max
     276A 03FF 
1216 276C C800  38        mov  r0,@fuel
     276E 838A 
1217 2770 0720  34        seto @old_fuel
     2772 838C 
1218               *// resurrect_player
1219               
1220               *********************************************************************
1221               *
1222               * Reposition player
1223               *
1224               reposition_player:
1225 2774 C060  34        mov  @player_sprite,r1
     2776 8372 
1226 2778 0200  20        li   r0,plane_def+sprite_def_x
     277A CEB6 
1227 277C C870  50        mov  *r0+,@sprite_x(r1)
     277E 0004 
1228 2780 C870  50        mov  *r0+,@sprite_y(r1)
     2782 0002 
1229 2784 C870  50        mov  *r0+,@sprite_z(r1)
     2786 0006 
1230 2788 045B  20        rt
1231               *// reposition_player
1232               
1233               *********************************************************************
1234               *
1235               * Initialize sub-level
1236               *
1237               init_sub_level:
0001 278A CE8B  34        mov  r11,*r10+
1239 278C 06A0  32        bl   @vsync
     278E 2100 
1240               *      Change to the sprite attribute table where the player is located
1241 2790 0200  20        li   r0,sprite_attr_table_2+2   ; Get pattern byte of first sprite in table 2
     2792 0582 
1242 2794 06A0  32        bl   @vsbr
     2796 35AA 
1243 2798 D041  18        movb r1,r1                      ; Plane is 0
1244 279A 1304  14        jeq  init_sub_level_1
1245 279C 0200  20        li   r0,>0500+(sprite_attr_table/>80)      ; Change to table 1
     279E 050A 
1246 27A0 06A0  32        bl   @vwtr
     27A2 34FE 
1247               *      Clear name table and patterns
1248               init_sub_level_1:
1249 27A4 06A0  32        bl   @clear_name_table_and_patterns
     27A6 28F4 
1250               *      Reset player x position
1251 27A8 C060  34        mov  @player_sprite,r1
     27AA 8372 
1252 27AC 0200  20        li   r0,player_start_x
     27AE FFC0 
1253 27B0 C840  38        mov  r0,@sprite_x(r1)
     27B2 0004 
1254               *      Drop all but 2 first sprites
1255 27B4 0200  20        li   r0,sprites+(2*sprite_size)
     27B6 D476 
1256 27B8 C800  38        mov  r0,@sprites_end_ptr
     27BA 836A 
1257 27BC 06A0  32        bl   @upload_sprites
     27BE 2150 
1258               *      Reset scroll position
1259 27C0 04E0  34        clr  @scroll_pos                ; Reset scroll position
     27C2 8358 
1260 27C4 0200  20        li   r0,vdp_scroll_pos          ; Reset VDP variable
     27C6 03C2 
1261 27C8 04C1  14        clr  r1
1262 27CA 06A0  32        bl   @vsbw                      ; High byte
     27CC 3522 
1263 27CE 04DF  26        clr  *r15                       ; Low byte
1264 27D0 04E0  34        clr  @scroll_x                  ; Scroll x
     27D2 835A 
1265 27D4 0200  20        li   r0,>800                    ; Scroll y
     27D6 0800 
1266 27D8 C800  38        mov  r0,@scroll_y
     27DA 835C 
1267               *      Init sub-level variables
1268 27DC 04E0  34        clr  @chars_to_upload
     27DE 8366 
1269 27E0 C060  34        mov  @sub_level_index,r1
     27E2 837C 
1270 27E4 0A11  56        sla  r1,1
1271 27E6 C061  34        mov  @sub_levels(r1),r1
     27E8 A1B8 
1272 27EA C801  38        mov  r1,@sub_level_data
     27EC 837E 
1273 27EE C831  50        mov  *r1+,@map_bank_select
     27F0 836C 
1274 27F2 C831  50        mov  *r1+,@char_patterns_bank_select
     27F4 836E 
1275 27F6 C831  50        mov  *r1+,@sprite_patterns_bank_select
     27F8 8370 
1276 27FA C831  50        mov  *r1+,@char_diff_ptr
     27FC 8362 
1277 27FE C831  50        mov  *r1+,@char_diff_end
     2800 8364 
1278 2802 C831  50        mov  *r1+,@sprite_def_ptr
     2804 8368 
1279 2806 C831  50        mov  *r1+,@map_width
     2808 8356 
1280 280A C831  50        mov  *r1+,@scroll_max
     280C 835E 
1281 280E C831  50        mov  *r1+,@player_scale_z
     2810 8360 
1282 2812 C831  50        mov  *r1+,@walls_ptr
     2814 8380 
1283               *      Load palettes
1284 2816 04C0  14        clr  r0                         ; Palette index 0
1285 2818 C051  26        mov  *r1,r1                     ; Palette address
1286 281A 0202  20        li   r2,2                       ; 2 palettes
     281C 0002 
1287 281E 06A0  32        bl   @load_palettes
     2820 2A12 
1288               *      Upload sprite patterns
1289 2822 06A0  32        bl   @upload_sprite_patterns
     2824 289E 
1290               *      Update VDP variable
1291 2826 0200  20        li   r0,vdp_sub_level
     2828 03C4 
1292 282A C060  34        mov  @sub_level_index,r1
     282C 837C 
1293 282E 06A0  32        bl   @vsww
     2830 3536 
1294               *      Display lives
1295 2832 06A0  32        bl   @display_lives
     2834 2ACE 
0001 2836 064A  14        dect r10
0002 2838 C2DA  26        mov  *r10,r11
0003 283A 045B  20        b    *r11
1297               *// init_sub_level
1298               
1299               *********************************************************************
1300               *
1301               * Set graphics mode
1302               *
1303               graphics_mode:
0001 283C CE8B  34        mov  r11,*r10+
1305 283E 0201  20        li   r1,vdp_registers
     2840 2866 
1306               graphics_mode_1:
1307 2842 C031  30        mov  *r1+,r0
1308 2844 1103  14        jlt  graphics_mode_2
1309 2846 06A0  32        bl   @vwtr                      ; Set register
     2848 34FE 
1310 284A 10FB  14        jmp  graphics_mode_1
1311               *      Clear VDP RAM
1312               graphics_mode_2:
1313 284C 06A0  32        bl   @clear_vdp_ram
     284E 288C 
1314               *      Load sprite palettes
1315 2850 0200  20        li   r0,2
     2852 0002 
1316 2854 0201  20        li   r1,sprite_palettes
     2856 D516 
1317 2858 0202  20        li   r2,6
     285A 0006 
1318 285C 06A0  32        bl   @load_palettes
     285E 2A12 
0001 2860 064A  14        dect r10
0002 2862 C2DA  26        mov  *r10,r11
0003 2864 045B  20        b    *r11
1320               *      VDP registers
1321               vdp_registers:
1322 2866 391C            byte >39,>1c                    ; Unlock F18A
1323 2868 391C            byte >39,>1c                    ; Unlock F18A
1324 286A 0000            byte >00,>00                    ; Graphics I mode
1325 286C 01E2            byte >01,>e2                    ; 16K, display on, interrupt enabled
1326 286E 0200            byte >02,name_table_base/>400   ; Name table
1327 2870 0310            byte >03,tile_attr_table/>40    ; Tile attribute table
1328 2872 0402            byte >04,pattern_table_base/>800 ; Pattern table
1329 2874 050A            byte >05,sprite_attr_table/>80  ; Sprite attribute table
1330 2876 0605            byte >06,sprite_pattern_table_base/>800 ; Sprite pattern table
1331 2878 0700            byte >07,backdrop_color         ; Backdrop color
1332 287A 31FB            byte >31,>fb                    ; Reg 49: Enhanced color mode (ECM3 tiles and sprites, 30 rows, tl2, real y coord)
1333 287C 3200            byte >32,>00                    ; TL2 always on top
1334 287E 1B00            byte >1b,>00                    ; Reg 27: Horizontal scroll offset
1335 2880 1C00            byte >1c,>00                    ; Reg 28: Vertical scroll offset
1336 2882 1D01            byte >1d,>01                    ; Reg 29: Page size (2K between sprite patten tables, 1 x 2 scroll size)
1337 2884 0A03            byte >0a,name_table_2/>400      ; Reg 10: Name table 2
1338 2886 0B10            byte >0b,tile_attr_table/>40    ; Reg 11: Tile attribute table 2
1339 2888 3300            byte >33,>00                    ; Reg 15: All sprites off
1340 288A FFFF            data -1
1341               *// graphics_mode
1342               
1343               *********************************************************************
1344               *
1345               * Clear VDP RAM
1346               *
1347               clear_vdp_ram
0001 288C CE8B  34        mov  r11,*r10+
1349 288E 04C1  14        clr  r1
1350 2890 0202  20        li   r2,>4000
     2892 4000 
1351 2894 06A0  32        bl   @vclr
     2896 357E 
0001 2898 064A  14        dect r10
0002 289A C2DA  26        mov  *r10,r11
0003 289C 045B  20        b    *r11
1353               *// clear_vdp_ram
1354               
1355               *********************************************************************
1356               *
1357               * Upload sprite patterns
1358               *
1359               upload_sprite_patterns:
0001 289E CE8B  34        mov  r11,*r10+
1361 28A0 C020  34        mov  @sprite_patterns_bank_select,r0
     28A2 8370 
1362 28A4 0710  26        seto *r0
1363 28A6 0200  20        li   r0,sprite_pattern_table_0
     28A8 2800 
1364 28AA 0201  20        li   r1,sprite_patters_base_addr
     28AC 6800 
1365 28AE 0202  20        li   r2,n_sprite_patterns*32
     28B0 0800 
1366 28B2 06A0  32        bl   @vmbw
     28B4 3550 
1367 28B6 0200  20        li   r0,sprite_pattern_table_1
     28B8 3000 
1368 28BA 0201  20        li   r1,sprite_patters_base_addr+>800
     28BC 7000 
1369 28BE 0202  20        li   r2,n_sprite_patterns*32
     28C0 0800 
1370 28C2 06A0  32        bl   @vmbw
     28C4 3550 
1371 28C6 0200  20        li   r0,sprite_pattern_table_2
     28C8 3800 
1372 28CA 0201  20        li   r1,sprite_patters_base_addr+>1000
     28CC 7800 
1373 28CE 0202  20        li   r2,n_sprite_patterns*32
     28D0 0800 
1374 28D2 06A0  32        bl   @vmbw
     28D4 3550 
0001 28D6 064A  14        dect r10
0002 28D8 C2DA  26        mov  *r10,r11
0003 28DA 045B  20        b    *r11
1376               *// upload_sprite_patterns
1377               
1378               *********************************************************************
1379               *
1380               * Display tile layer 2 mask
1381               *
1382               display_tl2_mask:
0001 28DC CE8B  34        mov  r11,*r10+
1384 28DE 0200  20        li   r0,name_table_2
     28E0 0C00 
1385 28E2 0201  20        li   r1,MD0
     28E4 C7EC 
1386 28E6 0202  20        li   r2,960
     28E8 03C0 
1387 28EA 06A0  32        bl   @vmbw
     28EC 3550 
0001 28EE 064A  14        dect r10
0002 28F0 C2DA  26        mov  *r10,r11
0003 28F2 045B  20        b    *r11
1389               *// display_tl2_mask
1390               
1391               *********************************************************************
1392               *
1393               * Clear name table and tile patterns
1394               *
1395               clear_name_table_and_patterns:
0001 28F4 CE8B  34        mov  r11,*r10+
1397 28F6 0200  20        li   r0,pattern_table_p_0
     28F8 1000 
1398 28FA 0202  20        li   r2,>800-(tl2_chars*8)
     28FC 0460 
1399 28FE 06A0  32        bl   @vclr
     2900 357E 
1400 2902 0200  20        li   r0,pattern_table_p_1
     2904 1800 
1401 2906 0202  20        li   r2,>800-(tl2_chars*8)
     2908 0460 
1402 290A 06A0  32        bl   @vclr
     290C 357E 
1403 290E 0200  20        li   r0,pattern_table_p_2
     2910 2000 
1404 2912 0202  20        li   r2,>800-(tl2_chars*8)
     2914 0460 
1405 2916 06A0  32        bl   @vclr
     2918 357E 
1406 291A 0200  20        li   r0,name_table_p_0
     291C 0000 
1407 291E 0202  20        li   r2,>3c0
     2920 03C0 
1408 2922 06A0  32        bl   @vclr
     2924 357E 
1409 2926 0200  20        li   r0,name_table_p_1
     2928 0800 
1410 292A 0202  20        li   r2,>3c0
     292C 03C0 
1411 292E 06A0  32        bl   @vclr
     2930 357E 
0001 2932 064A  14        dect r10
0002 2934 C2DA  26        mov  *r10,r11
0003 2936 045B  20        b    *r11
1413               *// clear_name_table_and_patterns
1414               
1415               *********************************************************************
1416               *
1417               * Reset sprites
1418               *
1419               reset_sprites:
0001 2938 CE8B  34        mov  r11,*r10+
1421 293A 0200  20        li   r0,sprites
     293C D462 
1422 293E C800  38        mov  r0,@sprites_end_ptr
     2940 836A 
1423               *      Reset sprite buffer in VDP RAM
1424 2942 0200  20        li   r0,vdp_sprite_buffer
     2944 0600 
1425 2946 06A0  32        bl   @vwad
     2948 3510 
1426 294A 04DF  26        clr  *r15
1427 294C 04DF  26        clr  *r15
1428               *      Run GPU
1429 294E 06A0  32        bl   @gpu_run
     2950 2EC4 
0001 2952 064A  14        dect r10
0002 2954 C2DA  26        mov  *r10,r11
0003 2956 045B  20        b    *r11
1431               *// reset_sprites
1432               
1433               *********************************************************************
1434               *
1435               * Clear tl2 except scores at top
1436               *
1437               clear_tl2:
0001 2958 CE8B  34        mov  r11,*r10+
1439 295A 0200  20        li   r0,3*32+name_table_2
     295C 0C60 
1440 295E 0201  20        li   r1,3*32+MD0
     2960 C84C 
1441 2962 0202  20        li   r2,27*32
     2964 0360 
1442 2966 06A0  32        bl   @vmbw
     2968 3550 
0001 296A 064A  14        dect r10
0002 296C C2DA  26        mov  *r10,r11
0003 296E 045B  20        b    *r11
1444               *// clear_tl2
1445               
1446               *********************************************************************
1447               *
1448               * Clear center area of tl2
1449               *
1450               clear_tl2_center:
0001 2970 CE8B  34        mov  r11,*r10+
1452 2972 0200  20        li   r0,10*32+2+name_table_2
     2974 0D42 
1453 2976 0201  20        li   r1,char_space_high*256
     2978 FF00 
1454 297A 0203  20        li   r3,11
     297C 000B 
1455               clear_tl2_center_1:
1456 297E 06A0  32        bl   @vwad
     2980 3510 
1457 2982 0202  20        li   r2,28
     2984 001C 
1458               clear_tl2_center_2:
1459 2986 D7C1  30        movb  r1,*r15
1460 2988 0602  14        dec  r2
1461 298A 16FD  14        jne  clear_tl2_center_2
1462 298C 0220  22        ai   r0,32
     298E 0020 
1463 2990 0603  14        dec  r3
1464 2992 16F5  14        jne  clear_tl2_center_1
0001 2994 064A  14        dect r10
0002 2996 C2DA  26        mov  *r10,r11
0003 2998 045B  20        b    *r11
1466               *// clear_title
1467               
1468               *********************************************************************
1469               *
1470               * Init tile layer 2 patterns
1471               *
1472               init_tl2_patterns:
0001 299A CE8B  34        mov  r11,*r10+
1474 299C 0200  20        li   r0,pattern_table_p_0+(tl2_first_char*8)
     299E 1460 
1475 29A0 0201  20        li   r1,P0_140
     29A2 BD02 
1476 29A4 0202  20        li   r2,tl2_chars*8
     29A6 03A0 
1477 29A8 06A0  32        bl   @vmbw
     29AA 3550 
1478 29AC 0200  20        li   r0,pattern_table_p_1+(tl2_first_char*8)
     29AE 1C60 
1479 29B0 0201  20        li   r1,P1_140
     29B2 C0A2 
1480 29B4 0202  20        li   r2,tl2_chars*8
     29B6 03A0 
1481 29B8 06A0  32        bl   @vmbw
     29BA 3550 
1482 29BC 0200  20        li   r0,pattern_table_p_2+(tl2_first_char*8)
     29BE 2460 
1483 29C0 0201  20        li   r1,P2_140
     29C2 C442 
1484 29C4 0202  20        li   r2,tl2_chars*8
     29C6 03A0 
1485 29C8 06A0  32        bl   @vmbw
     29CA 3550 
1486 29CC 0200  20        li   r0,tile_attr_table+tl2_first_char
     29CE 048C 
1487 29D0 0201  20        li   r1,TAT140
     29D2 BC8D 
1488 29D4 0202  20        li   r2,tl2_chars
     29D6 0074 
1489 29D8 06A0  32        bl   @vmbw
     29DA 3550 
0001 29DC 064A  14        dect r10
0002 29DE C2DA  26        mov  *r10,r11
0003 29E0 045B  20        b    *r11
1491               *// init_tl2_patterns
1492               
1493               *********************************************************************
1494               *
1495               * Display tile layer 2 game labels
1496               *
1497               display_tl2_game_labels:
0001 29E2 CE8B  34        mov  r11,*r10+
1499 29E4 0203  20        li   r3,tl2_labels
     29E6 2A02 
1500               display_tl2_game_labels_1:
1501 29E8 C033  30        mov  *r3+,r0
1502 29EA 1308  14        jeq  display_tl2_game_labels_3
1503 29EC 0220  22        ai   r0,name_table_2
     29EE 0C00 
1504 29F0 06A0  32        bl   @vwad
     29F2 3510 
1505               display_tl2_game_labels_2
1506 29F4 D033  28        movb *r3+,r0
1507 29F6 13F8  14        jeq  display_tl2_game_labels_1
1508 29F8 D7C0  30        movb r0,*r15
1509 29FA 10FC  14        jmp  display_tl2_game_labels_2
1510               display_tl2_game_labels_3:
0001 29FC 064A  14        dect r10
0002 29FE C2DA  26        mov  *r10,r11
0003 2A00 045B  20        b    *r11
1512               tl2_labels:
1513 2A02 0120            data 9*32                       ; Offset
1514 2A04 E400            byte 228,0                      ; Zero-terminated characters to display
1515 2A06 0260            data 19*32
1516 2A08 E700            byte 231,0
1517 2A0A 03AE            data 29*32+14
1518 2A0C ECED            byte 236,237,0
     2A0E 0000 
1519 2A10 0000            data 0
1520               *// display_tl2_game_labels
1521               
1522               *********************************************************************
1523               *
1524               * Load palettes
1525               *
1526               * r0: Start palette index
1527               * r1: Color data
1528               * r2: Number of palettes
1529               *
1530               load_palettes:
0001 2A12 CE8B  34        mov  r11,*r10+
1532 2A14 0A30  56        sla  r0,3                       ; 8 bytes per palette
1533 2A16 0260  22        ori  r0,>2fc0                   ; Reg 47, DPM = 1, AUTO INC = 1
     2A18 2FC0 
1534 2A1A 06A0  32        bl   @vwtr
     2A1C 34FE 
1535 2A1E 0A42  56        sla  r2,4                       ; 16 bytes per palette
1536               *      Every two bytes written to the VDP now go to the palette registers
1537               load_palettes_1:
1538 2A20 D7F1  40        movb *r1+,*r15
1539 2A22 0602  14        dec  r2
1540 2A24 16FD  14        jne  load_palettes_1
1541               *      Exit DPM
1542 2A26 0200  20        li   r0,>2f00                   ; Reg 47, DPM = 1, AUTO INC = 0
     2A28 2F00 
1543 2A2A 06A0  32        bl   @vwtr
     2A2C 34FE 
0001 2A2E 064A  14        dect r10
0002 2A30 C2DA  26        mov  *r10,r11
0003 2A32 045B  20        b    *r11
1545               *// load_palettes
1546               
1547               *********************************************************************
1548               *
1549               * Init sprites on sub-level 0 (open space)
1550               *
1551               init_sprite_defs_0:
0001 2A34 CE8B  34        mov  r11,*r10+
1553 2A36 0202  20        li   r2,sub_level_0_sprites
     2A38 0010 
1554 2A3A 0203  20        li   r3,sprite_defs_0
     2A3C CEC8 
1555 2A3E 0204  20        li   r4,240                     ; x
     2A40 00F0 
1556               init_sprite_defs_0_1:
1557 2A42 06A0  32        bl   @rand
     2A44 2BD2 
1558 2A46 0240  22        andi r0,7
     2A48 0007 
1559 2A4A 130C  14        jeq  init_sprite_defs_0_2
1560 2A4C 06A0  32        bl   @rand
     2A4E 2BD2 
1561 2A50 C140  18        mov  r0,r5
1562 2A52 0245  22        andi r5,127
     2A54 007F 
1563 2A56 0225  22        ai   r5,isometric_center_y-64   ; y
     2A58 0040 
1564 2A5A 0206  20        li   r6,64                      ; z
     2A5C 0040 
1565 2A5E 0207  20        li   r7,sprite_type_blue_plane_up_l
     2A60 CE2C 
1566 2A62 1006  14        jmp  init_sprite_defs_0_3
1567               init_sprite_defs_0_2:
1568 2A64 0205  20        li   r5,255
     2A66 00FF 
1569 2A68 0206  20        li   r6,64
     2A6A 0040 
1570 2A6C 0207  20        li   r7,sprite_type_satellite
     2A6E CEAC 
1571               init_sprite_defs_0_3:
1572 2A70 C004  18        mov  r4,r0                      ; x
1573 2A72 A005  18        a    r5,r0                      ; x + y
1574 2A74 0220  22        ai   r0,-240                    ; scroll_x = x + y - 240
     2A76 FF10 
1575 2A78 CCC0  34        mov  r0,*r3+                    ; Write scroll_x
1576 2A7A CCC4  34        mov  r4,*r3+                    ; Write x
1577 2A7C CCC5  34        mov  r5,*r3+                    ; Write y
1578 2A7E CCC6  34        mov  r6,*r3+                    ; Write z
1579 2A80 CCC7  34        mov  r7,*r3+                    ; Write sprite type
1580 2A82 0224  22        ai   r4,48
     2A84 0030 
1581 2A86 0602  14        dec  r2
1582 2A88 16DC  14        jne  init_sprite_defs_0_1
0001 2A8A 064A  14        dect r10
0002 2A8C C2DA  26        mov  *r10,r11
0003 2A8E 045B  20        b    *r11
1584               *// init_sprite_defs_0
1585               
1586               *********************************************************************
1587               *
1588               * Update high scores
1589               *
1590               update_high_scores:
1591 2A90 8820  54        c    @high_score,@high_scores
     2A92 8386 
     2A94 D65E 
1592 2A96 120E  14        jle  update_high_scores_2
1593 2A98 0200  20        li   r0,high_scores+8
     2A9A D666 
1594 2A9C 0201  20        li   r1,high_scores+10
     2A9E D668 
1595 2AA0 0202  20        li   r2,5
     2AA2 0005 
1596               update_high_scores_1:
1597 2AA4 C450  38        mov  *r0,*r1
1598 2AA6 0640  14        dect r0
1599 2AA8 0641  14        dect r1
1600 2AAA 0602  14        dec  r2
1601 2AAC 16FB  14        jne  update_high_scores_1
1602 2AAE C820  54        mov  @high_score,@high_scores
     2AB0 8386 
     2AB2 D65E 
1603               update_high_scores_2:
1604 2AB4 045B  20        rt
1605               *// update_high_scores
1606               
1607               *********************************************************************
1608               *
1609               * Display best high score at top of screen
1610               *
1611               display_high_score:
0001 2AB6 CE8B  34        mov  r11,*r10+
1613 2AB8 0200  20        li   r0,4
     2ABA 0004 
1614 2ABC C060  34        mov  @high_score,r1
     2ABE 8386 
1615 2AC0 0202  20        li   r2,5
     2AC2 0005 
1616 2AC4 06A0  32        bl   @display_decimal_at
     2AC6 2BE8 
0001 2AC8 064A  14        dect r10
0002 2ACA C2DA  26        mov  *r10,r11
0003 2ACC 045B  20        b    *r11
1618               *// display_high_score
1619               
1620               *********************************************************************
1621               *
1622               * Display lives
1623               *
1624               max_displayed_lives:
1625                      equ  8
1626               *
1627               display_lives:
0001 2ACE CE8B  34        mov  r11,*r10+
1629 2AD0 0200  20        li   r0,(30-max_displayed_lives)*32+name_table_2
     2AD2 0EC0 
1630 2AD4 0201  20        li   r1,max_displayed_lives
     2AD6 0008 
1631               display_lives_1:
1632 2AD8 06A0  32        bl   @vwad
     2ADA 3510 
1633 2ADC 8060  34        c    @lives,r1
     2ADE 838E 
1634 2AE0 1403  14        jhe  display_lives_2
1635 2AE2 0202  20        li   r2,char_mask*256
     2AE4 FA00 
1636 2AE6 1002  14        jmp  display_lives_3
1637               display_lives_2:
1638 2AE8 0202  20        li   r2,char_life*256
     2AEA EB00 
1639               display_lives_3:
1640 2AEC D7C2  30        movb r2,*r15
1641 2AEE 0220  22        ai   r0,32
     2AF0 0020 
1642 2AF2 0601  14        dec  r1
1643 2AF4 16F1  14        jne  display_lives_1
0001 2AF6 064A  14        dect r10
0002 2AF8 C2DA  26        mov  *r10,r11
0003 2AFA 045B  20        b    *r11
1645               *// display_lives
1646               
1647               *********************************************************************
1648               *
1649               * Display level completed
1650               *
1651               display_level_completed:
0001 2AFC CE8B  34        mov  r11,*r10+
1653 2AFE 06A0  32        bl   @clear_for_intro
     2B00 2D24 
1654 2B02 0200  20        li   r0,12*32+8
     2B04 0188 
1655 2B06 0201  20        li   r1,txt_congratulations
     2B08 D60A 
1656 2B0A 06A0  32        bl   @display_text_at
     2B0C 2C2C 
1657 2B0E 0200  20        li   r0,15*32+5
     2B10 01E5 
1658 2B12 0201  20        li   r1,txt_you_get_bonus
     2B14 D61C 
1659 2B16 06A0  32        bl   @display_text_at
     2B18 2C2C 
1660 2B1A C020  34        mov  @boss_bonus,r0
     2B1C 8396 
1661 2B1E 0280  22        ci   r0,boss_bonus_200
     2B20 0014 
1662 2B22 160D  14        jne  display_level_completed_1
1663 2B24 0200  20        li   r0,15*32+19
     2B26 01F3 
1664 2B28 0201  20        li   r1,txt_200_pts
     2B2A D62B 
1665 2B2C 06A0  32        bl   @display_text_at
     2B2E 2C2C 
1666 2B30 0200  20        li   r0,18*32+14
     2B32 024E 
1667 2B34 0201  20        li   r1,txt_good
     2B36 D63F 
1668 2B38 06A0  32        bl   @display_text_at
     2B3A 2C2C 
1669 2B3C 100C  14        jmp  display_level_completed_2
1670               display_level_completed_1:
1671 2B3E 0200  20        li   r0,15*32+19
     2B40 01F3 
1672 2B42 0201  20        li   r1,txt_1000_pts
     2B44 D635 
1673 2B46 06A0  32        bl   @display_text_at
     2B48 2C2C 
1674 2B4A 0200  20        li   r0,18*32+11
     2B4C 024B 
1675 2B4E 0201  20        li   r1,txt_very_good
     2B50 D646 
1676 2B52 06A0  32        bl   @display_text_at
     2B54 2C2C 
1677               display_level_completed_2:
1678 2B56 06A0  32        bl   @wait_fire_key_relased
     2B58 2C78 
1679 2B5A 0200  20        li   r0,240
     2B5C 00F0 
1680 2B5E 06A0  32        bl   @wait
     2B60 2C4A 
1681 2B62 06A0  32        bl   @clear_tl2_center
     2B64 2970 
0001 2B66 064A  14        dect r10
0002 2B68 C2DA  26        mov  *r10,r11
0003 2B6A 045B  20        b    *r11
1683               *// display_level_completed
1684               
1685               *********************************************************************
1686               *
1687               * Display game over
1688               *
1689               display_game_over:
0001 2B6C CE8B  34        mov  r11,*r10+
1691 2B6E 06A0  32        bl   @clear_for_intro
     2B70 2D24 
1692 2B72 0200  20        li   r0,14*32+11
     2B74 01CB 
1693 2B76 0201  20        li   r1,txt_game_over
     2B78 D652 
1694 2B7A 06A0  32        bl   @display_text_at
     2B7C 2C2C 
1695 2B7E 06A0  32        bl   @wait_fire_key_relased
     2B80 2C78 
1696 2B82 0200  20        li   r0,240
     2B84 00F0 
1697 2B86 06A0  32        bl   @wait
     2B88 2C4A 
0001 2B8A 064A  14        dect r10
0002 2B8C C2DA  26        mov  *r10,r11
0003 2B8E 045B  20        b    *r11
1699               *// display_game_over
1700               
1701               *********************************************************************
1702               *
1703               * Add score
1704               *
1705               * r0: score to add
1706               * Modifies r0-r1
1707               *
1708               add_score:
0001 2B90 CE8B  34        mov  r11,*r10+
1710 2B92 A800  38        a    r0,@score
     2B94 8382 
1711 2B96 C020  34        mov  @score,r0
     2B98 8382 
1712 2B9A 0760  38        abs  @extra_life_given
     2B9C 839C 
1713 2B9E 160E  14        jne  add_score_1
1714 2BA0 0280  22        ci   r0,1000                    ; Displayed as 10000
     2BA2 03E8 
1715 2BA4 1A0B  14        jl   add_score_1
1716 2BA6 05A0  34        inc  @lives
     2BA8 838E 
0001 2BAA CE82  34        mov  R2,*r10+
1718 2BAC 06A0  32        bl   @display_lives
     2BAE 2ACE 
1719 2BB0 06A0  32        bl   @play_extra
     2BB2 A06E 
0001 2BB4 064A  14        dect r10
0002 2BB6 C09A  26        mov  *r10,R2
1721 2BB8 0720  34        seto @extra_life_given
     2BBA 839C 
1722               add_score_1:
0001 2BBC 064A  14        dect r10
0002 2BBE C2DA  26        mov  *r10,r11
0003 2BC0 045B  20        b    *r11
1724               *// add_score
1725               
1726               *********************************************************************
1727               *
1728               * Check key
1729               *
1730               * r0: Column in MSB: >0000 - >0700, Row in LSB: >0006 - >0014
1731               *
1732               *       Column   0      1    2    3    4    5     6       7
1733               *     Row
1734               *     >0006      =      .    ,    M    N    /    Fire    Fire
1735               *     >0008    Space    L    K    J    H    ;    Left    Left
1736               *     >000A    Enter    O    I    U    Y    P    Right   Right
1737               *     >000C             9    8    7    6    0    Down    Down
1738               *     >000E    Fctn     2    3    4    5    1    Up      Up
1739               *     >0010    Shift    S    D    F    G    A
1740               *     >0012    Ctrl     W    E    R    T    Q
1741               *     >0014             X    C    V    B    Z
1742               *
1743               * On return NEQ means that the key is pressed
1744               *
1745      0606     KEY_FI EQU  >0606
1746      0608     KEY_LF EQU  >0608
1747      060A     KEY_RG EQU  >060A
1748      060C     KEY_DN EQU  >060C
1749      060E     KEY_UP EQU  >060E
1750      0206     KEY_CM EQU  >0206
1751      0106     KEY_FS EQU  >0106
1752      050C     KEY_0  EQU  >050C
1753      050E     KEY_1  EQU  >050E
1754      010E     KEY_2  EQU  >010E
1755      020E     KEY_3  EQU  >020E
1756      030E     KEY_4  EQU  >030E
1757      040E     KEY_5  EQU  >040E
1758      040C     KEY_6  EQU  >040C
1759      030C     KEY_7  EQU  >030C
1760      020C     KEY_8  EQU  >020C
1761      010C     KEY_9  EQU  >010C
1762      0510     KEY_A  EQU  >0510
1763      0414     KEY_B  EQU  >0414
1764      0214     KEY_C  EQU  >0214
1765      0210     KEY_D  EQU  >0210
1766      0212     KEY_E  EQU  >0212
1767      0310     KEY_F  EQU  >0310
1768      0410     KEY_G  EQU  >0410
1769      0408     KEY_H  EQU  >0408
1770      020A     KEY_I  EQU  >020A
1771      0308     KEY_J  EQU  >0308
1772      0208     KEY_K  EQU  >0208
1773      0108     KEY_L  EQU  >0108
1774      0306     KEY_M  EQU  >0306
1775      0406     KEY_N  EQU  >0406
1776      010A     KEY_O  EQU  >010A
1777      050A     KEY_P  EQU  >050A
1778      0512     KEY_Q  EQU  >0512
1779      0312     KEY_R  EQU  >0312
1780      0110     KEY_S  EQU  >0110
1781      0412     KEY_T  EQU  >0412
1782      030A     KEY_U  EQU  >030A
1783      0314     KEY_V  EQU  >0314
1784      0112     KEY_W  EQU  >0112
1785      0114     KEY_X  EQU  >0114
1786      040A     KEY_Y  EQU  >040A
1787      0514     KEY_Z  EQU  >0514
1788      0008     KEY_SP EQU  >0008
1789      000A     KEY_EN EQU  >000A
1790      000E     KEY_FN EQU  >000E
1791      0010     KEY_SH EQU  >0010
1792      0012     KEY_CT EQU  >0012
1793      0606     JOY_FI EQU  >0606
1794      0608     JOY_LT EQU  >0608
1795      060A     JOY_RT EQU  >060A
1796      060C     JOY_DN EQU  >060C
1797      060E     JOY_UP EQU  >060E
1798               *
1799               check_key:
1800 2BC2 020C  20        li   r12,>0024                  ; CRU address of the column decoder
     2BC4 0024 
1801 2BC6 30C0  56        ldcr r0,3                       ; Select column
1802 2BC8 0240  22        andi r0,>00ff
     2BCA 00FF 
1803 2BCC C300  18        mov  r0,r12                     ; Select row
1804 2BCE 1F00  20        tb   0                          ; Test key, EQ if not pressed
1805 2BD0 045B  20        rt
1806               *// check_key
1807               
1808               *********************************************************************
1809               *
1810               * Random number generator
1811               *
1812               rand:
1813 2BD2 0200  20        li   r0,28643                   ; A prime number to multiply by
     2BD4 6FE3 
1814 2BD6 3820  72        mpy  @rand_no,r0
     2BD8 8354 
1815 2BDA 0221  22        ai   r1,31873                   ; Add a prime number
     2BDC 7C81 
1816 2BDE 0B71  56        src  r1,7                       ; Shift to break odd/even pattern
1817 2BE0 C801  38        mov  r1,@rand_no
     2BE2 8354 
1818 2BE4 C001  18        mov  r1,r0
1819 2BE6 045B  20        rt
1820               *// rand
1821               
1822               *********************************************************************
1823               *
1824               * Set screen address and display decimal number
1825               *
1826               * r0: Screen offset
1827               * r1: Number to display
1828               * r2: Number of digits
1829               *
1830               display_decimal_at:
0001 2BE8 CE8B  34        mov  r11,*r10+
1832 2BEA 0220  22        ai   r0,name_table_2
     2BEC 0C00 
1833 2BEE 06A0  32        bl   @vwad
     2BF0 3510 
1834 2BF2 06A0  32        bl   @display_decimal
     2BF4 2BFC 
0001 2BF6 064A  14        dect r10
0002 2BF8 C2DA  26        mov  *r10,r11
0003 2BFA 045B  20        b    *r11
1836               *// display_decimal_at
1837               
1838               *********************************************************************
1839               *
1840               * Display decimal number
1841               *
1842               * r1: Number to display
1843               * r2: Number of digits
1844               *
1845               display_decimal:
1846 2BFC 0203  20        li   r3,5
     2BFE 0005 
1847 2C00 60C2  18        s    r2,r3
1848 2C02 0A13  56        sla  r3,1
1849 2C04 0223  22        ai   r3,d10000
     2C06 2C24 
1850 2C08 0602  14        dec  r2
1851               display_decimal_1:
1852 2C0A 04C0  14        clr  r0
1853 2C0C 3C33  140        div  *r3+,r0
1854 2C0E A020  34        a    @current_char_zero,r0
     2C10 8398 
1855 2C12 06C0  14        swpb r0
1856 2C14 D7C0  30        movb r0,*r15
1857 2C16 0602  14        dec  r2
1858 2C18 16F8  14        jne  display_decimal_1
1859 2C1A A060  34        a    @current_char_zero,r1
     2C1C 8398 
1860 2C1E 06C1  14        swpb r1
1861 2C20 C7C1  30        mov  r1,*r15
1862 2C22 045B  20        rt
1863               d10000:
1864 2C24 2710            data 10000
1865               d1000:
1866 2C26 03E8            data 1000
1867               d100:
1868 2C28 0064            data 100
1869               d10:
1870 2C2A 000A            data 10
1871               *// display_decimal
1872               
1873               *********************************************************************
1874               *
1875               * Display text at position
1876               *
1877               * r0: Screen offset
1878               * r1: Zero terminated string to display
1879               *
1880               display_text_at:
0001 2C2C CE8B  34        mov  r11,*r10+
1882 2C2E 0220  22        ai   r0,name_table_2
     2C30 0C00 
1883 2C32 06A0  32        bl   @vwad
     2C34 3510 
1884 2C36 0200  20        li   r0,(char_space-32)*256
     2C38 6C00 
1885               display_text_at_1:
1886 2C3A D0B1  28        movb *r1+,r2
1887 2C3C 1303  14        jeq  display_text_at_2
1888 2C3E B080  18        ab   r0,r2
1889 2C40 D7C2  30        movb r2,*r15
1890 2C42 10FB  14        jmp  display_text_at_1
1891               display_text_at_2:
0001 2C44 064A  14        dect r10
0002 2C46 C2DA  26        mov  *r10,r11
0003 2C48 045B  20        b    *r11
1893               *// display_text_at
1894               
1895               *********************************************************************
1896               *
1897               * Wait
1898               *
1899               * r0: Frames to wait
1900               *
1901               wait:
0001 2C4A CE8B  34        mov  r11,*r10+
1903 2C4C C800  38        mov  r0,@frames_to_wait
     2C4E 839A 
1904               wait_1:
1905 2C50 06A0  32        bl   @vsync
     2C52 2100 
1906 2C54 06A0  32        bl   @gpu_run
     2C56 2EC4 
1907 2C58 06A0  32        bl   @snd_player
     2C5A A146 
1908 2C5C 0200  20        li   r0,KEY_FI
     2C5E 0606 
1909 2C60 06A0  32        bl   @check_key
     2C62 2BC2 
1910 2C64 1605  14        jne  wait_2
1911 2C66 0620  34        dec  @frames_to_wait
     2C68 839A 
1912 2C6A 16F2  14        jne  wait_1
1913 2C6C 04C0  14        clr  r0
1914 2C6E 1001  14        jmp  wait_3
1915               wait_2:
1916 2C70 0700  14        seto r0
1917               wait_3:
0001 2C72 064A  14        dect r10
0002 2C74 C2DA  26        mov  *r10,r11
0003 2C76 045B  20        b    *r11
1919               *// wait
1920               
1921               *********************************************************************
1922               *
1923               * Wait fire key released
1924               *
1925               wait_fire_key_relased:
0001 2C78 CE8B  34        mov  r11,*r10+
1927 2C7A 0200  20        li   r0,8
     2C7C 0008 
1928 2C7E C800  38        mov  r0,@frames_to_wait
     2C80 839A 
1929               wait_fire_key_relased_1:
1930 2C82 06A0  32        bl   @vsync
     2C84 2100 
1931 2C86 06A0  32        bl   @gpu_run
     2C88 2EC4 
1932 2C8A 06A0  32        bl   @snd_player
     2C8C A146 
1933 2C8E 0200  20        li   r0,KEY_FI
     2C90 0606 
1934 2C92 06A0  32        bl   @check_key
     2C94 2BC2 
1935 2C96 16F5  14        jne  wait_fire_key_relased_1
1936 2C98 0620  34        dec  @frames_to_wait
     2C9A 839A 
1937 2C9C 16F2  14        jne  wait_fire_key_relased_1
0001 2C9E 064A  14        dect r10
0002 2CA0 C2DA  26        mov  *r10,r11
0003 2CA2 045B  20        b    *r11
1939               *// wait_fire_key_relased
1940               
1941               ***************************************************************
1942               *
1943               * Includes
1944               *
1945                      copy "intro.a99"
**** **** ****     > intro.a99
0001               *********************************************************************
0002               *
0003               * Display intro
0004               *
0005               display_intro:
0001 2CA4 CE8B  34        mov  r11,*r10+
0007               display_intro_1:
0008 2CA6 06A0  32        bl   @clear_for_intro
     2CA8 2D24 
0009               *      ZQX-ONE
0010 2CAA 0200  20        li   r0,7*32+12
     2CAC 00EC 
0011 2CAE 0201  20        li   r1,txt_zqx_one
     2CB0 D5D6 
0012 2CB2 06A0  32        bl   @display_text_at
     2CB4 2C2C 
0013               *      Press fire to start
0014 2CB6 0200  20        li   r0,9*32+6
     2CB8 0126 
0015 2CBA 0201  20        li   r1,txt_press_fire_to_start
     2CBC D5F6 
0016 2CBE 06A0  32        bl   @display_text_at
     2CC0 2C2C 
0017               *      Versiom
0018 2CC2 0200  20        li   r0,29*32+19
     2CC4 03B3 
0019 2CC6 0201  20        li   r1,txt_version
     2CC8 D5DE 
0020 2CCA 06A0  32        bl   @display_text_at
     2CCC 2C2C 
0021               *      High score
0022 2CCE 06A0  32        bl   @display_high_scores
     2CD0 2E00 
0023 2CD2 0200  20        li   r0,240
     2CD4 00F0 
0024 2CD6 06A0  32        bl   @wait
     2CD8 2C4A 
0025 2CDA 06A0  32        bl   @clear_tl2
     2CDC 2958 
0026 2CDE C020  34        mov  @frames_to_wait,r0
     2CE0 839A 
0027 2CE2 161D  14        jne  display_intro_3
0028               *      Initial demo run
0029 2CE4 06A0  32        bl   @init_level
     2CE6 2728 
0030 2CE8 06A0  32        bl   @init_sub_level
     2CEA 278A 
0031 2CEC 0200  20        li   r0,128
     2CEE 0080 
0032 2CF0 06A0  32        bl   @intro_loop
     2CF2 2D3C 
0033 2CF4 C000  18        mov  r0,r0
0034 2CF6 1611  14        jne  display_intro_2
0035               *      Title
0036 2CF8 06A0  32        bl   @display_title
     2CFA 2DC0 
0037 2CFC 0200  20        li   r0,180
     2CFE 00B4 
0038 2D00 06A0  32        bl   @wait
     2D02 2C4A 
0039 2D04 06A0  32        bl   @clear_tl2_center
     2D06 2970 
0040 2D08 C020  34        mov  @frames_to_wait,r0
     2D0A 839A 
0041 2D0C 1608  14        jne  display_intro_3
0042               *      Continue demo flight
0043 2D0E 0200  20        li   r0,512
     2D10 0200 
0044 2D12 06A0  32        bl   @intro_loop
     2D14 2D3C 
0045 2D16 C000  18        mov  r0,r0
0046 2D18 13C6  14        jeq  display_intro_1
0047               display_intro_2:
0048 2D1A 06A0  32        bl   @clear_tl2
     2D1C 2958 
0049               display_intro_3:
0001 2D1E 064A  14        dect r10
0002 2D20 C2DA  26        mov  *r10,r11
0003 2D22 045B  20        b    *r11
0051               *// display_intro
0052               
0053               *********************************************************************
0054               *
0055               * Clear for intro
0056               *
0057               clear_for_intro:
0001 2D24 CE8B  34        mov  r11,*r10+
0059 2D26 06A0  32        bl   @clear_name_table_and_patterns
     2D28 28F4 
0060 2D2A 06A0  32        bl   @reset_sprites
     2D2C 2938 
0061 2D2E 06A0  32        bl   @clear_tl2
     2D30 2958 
0062 2D32 06A0  32        bl   @init_tl2_patterns
     2D34 299A 
0001 2D36 064A  14        dect r10
0002 2D38 C2DA  26        mov  *r10,r11
0003 2D3A 045B  20        b    *r11
0064               *// clear_for_intro
0065               
0066               *********************************************************************
0067               *
0068               * Run intro loop
0069               *
0070               * r0: Run until the screen has scrolled to this position
0071               *
0072               intro_loop:
0001 2D3C CE8B  34        mov  r11,*r10+
0074 2D3E C800  38        mov  r0,@scroll_max
     2D40 835E 
0075               intro_loop_1:
0076 2D42 06A0  32        bl   @vsync
     2D44 2100 
0077 2D46 06A0  32        bl   @set_vdp_regs
     2D48 2114 
0078 2D4A 06A0  32        bl   @gpu_run
     2D4C 2EC4 
0079 2D4E 06A0  32        bl   @upload_characters
     2D50 21A8 
0080 2D52 06A0  32        bl   @draw_column
     2D54 2268 
0081 2D56 06A0  32        bl   @wait_gpu
     2D58 2EAE 
0082 2D5A 06A0  32        bl   @player_collisions
     2D5C 2470 
0083 2D5E 06A0  32        bl   @bullet_collisions
     2D60 24B0 
0084 2D62 06A0  32        bl   @intro_move_player
     2D64 2DAA 
0085 2D66 06A0  32        bl   @fire
     2D68 23E2 
0086 2D6A 06A0  32        bl   @move_sprites
     2D6C 2422 
0087 2D6E 06A0  32        bl   @create_sprites
     2D70 250C 
0088 2D72 06A0  32        bl   @upload_sprites
     2D74 2150 
0089 2D76 06A0  32        bl   @display_height
     2D78 25B0 
0090 2D7A 06A0  32        bl   @display_fuel
     2D7C 2642 
0091 2D7E 06A0  32        bl   @snd_player
     2D80 A146 
0092 2D82 06A0  32        bl   @scroll
     2D84 26BE 
0093 2D86 0760  38        abs  @player_died
     2D88 8378 
0094 2D8A 160B  14        jne  intro_loop_2
0095 2D8C 0200  20        li   r0,KEY_FI
     2D8E 0606 
0096 2D90 06A0  32        bl   @check_key
     2D92 2BC2 
0097 2D94 1606  14        jne  intro_loop_2
0098 2D96 8820  54        c    @scroll_pos,@scroll_max
     2D98 8358 
     2D9A 835E 
0099 2D9C 1AD2  14        jl   intro_loop_1
0100 2D9E 04C0  14        clr  r0
0101 2DA0 1001  14        jmp  intro_loop_3
0102               intro_loop_2:
0103 2DA2 0700  14        seto r0
0104               intro_loop_3:
0001 2DA4 064A  14        dect r10
0002 2DA6 C2DA  26        mov  *r10,r11
0003 2DA8 045B  20        b    *r11
0106               *// intro_loop
0107               
0108               *********************************************************************
0109               *
0110               * Intro move player
0111               *
0112               intro_fire_speed:
0113                      equ  30
0114               *
0115               intro_move_player:
0116               *      Fire
0117 2DAA 0620  34        dec  @intro_fire_countdown
     2DAC 2DBE 
0118 2DAE 1606  14        jne  intro_move_player_1
0119 2DB0 0720  34        seto @player_fire               ; Fire
     2DB2 8376 
0120 2DB4 0200  20        li   r0,intro_fire_speed
     2DB6 001E 
0121 2DB8 C800  38        mov  r0,@intro_fire_countdown
     2DBA 2DBE 
0122               intro_move_player_1:
0123 2DBC 045B  20        rt
0124               intro_fire_countdown:
0125 2DBE 001E            data intro_fire_speed
0126               *// intro_move_player
0127               
0128               *********************************************************************
0129               *
0130               * Display title
0131               *
0132               display_title:
0001 2DC0 CE8B  34        mov  r11,*r10+
0134 2DC2 0203  20        li   r3,title
     2DC4 CBAC 
0135 2DC6 C803  38        mov  r3,@title_ptr
     2DC8 2DFE 
0136               display_title_1:
0137 2DCA 0200  20        li   r0,2
     2DCC 0002 
0138 2DCE 06A0  32        bl   @wait
     2DD0 2C4A 
0139 2DD2 C000  18        mov  r0,r0
0140 2DD4 1611  14        jne  display_title_2
0141 2DD6 C0E0  34        mov  @title_ptr,r3
     2DD8 2DFE 
0142 2DDA D033  28        movb *r3+,r0                    ; x
0143 2DDC 110D  14        jlt  display_title_2
0144 2DDE 0980  56        srl  r0,8
0145 2DE0 D073  28        movb *r3+,r1
0146 2DE2 0981  56        srl  r1,8
0147 2DE4 0A51  56        sla  r1,5
0148 2DE6 A001  18        a    r1,r0
0149 2DE8 0220  22        ai   r0,name_table_2
     2DEA 0C00 
0150 2DEC D073  28        movb *r3+,r1
0151 2DEE 06A0  32        bl   @vsbw
     2DF0 3522 
0152 2DF2 C803  38        mov  r3,@title_ptr
     2DF4 2DFE 
0153 2DF6 10E9  14        jmp  display_title_1
0154               display_title_2:
0001 2DF8 064A  14        dect r10
0002 2DFA C2DA  26        mov  *r10,r11
0003 2DFC 045B  20        b    *r11
0156               title_ptr:
0157 2DFE 0000            data 0
0158               *// display_title
0159               
0160               *********************************************************************
0161               *
0162               * Display high scores
0163               *
0164               display_high_scores:
0001 2E00 CE8B  34        mov  r11,*r10+
0166               *      High scores text
0167 2E02 0200  20        li   r0,14*32+10
     2E04 01CA 
0168 2E06 0201  20        li   r1,txt_high_scores
     2E08 D5EA 
0169 2E0A 06A0  32        bl   @display_text_at
     2E0C 2C2C 
0170               *      6 high scores
0171 2E0E 0200  20        li   r0,char_zero
     2E10 009C 
0172 2E12 C800  38        mov  r0,@current_char_zero
     2E14 8398 
0173 2E16 0204  20        li   r4,1
     2E18 0001 
0174 2E1A 0205  20        li   r5,high_score_positions
     2E1C 2E6C 
0175 2E1E 0206  20        li   r6,high_scores
     2E20 D65E 
0176               display_high_scores_1:
0177 2E22 C035  30        mov  *r5+,r0
0178 2E24 0220  22        ai   r0,name_table_2
     2E26 0C00 
0179 2E28 C044  18        mov  r4,r1
0180 2E2A 0221  22        ai   r1,char_zero_high
     2E2C 00F0 
0181 2E2E 06C1  14        swpb r1
0182 2E30 06A0  32        bl   @vsbw
     2E32 3522 
0183 2E34 0201  20        li   r1,char_space*256
     2E36 8C00 
0184 2E38 D7C1  30        movb r1,*r15
0185 2E3A C076  30        mov  *r6+,r1
0186 2E3C 0202  20        li   r2,5
     2E3E 0005 
0187 2E40 06A0  32        bl   @display_decimal
     2E42 2BFC 
0188 2E44 0221  22        ai   r1,char_zero
     2E46 009C 
0189 2E48 D7C1  30        movb r1,*r15
0190 2E4A 06C1  14        swpb r1
0191 2E4C 0584  14        inc  r4
0192 2E4E 0284  22        ci   r4,6
     2E50 0006 
0193 2E52 12E7  14        jle  display_high_scores_1
0194               *      Best high score at top of screen
0195 2E54 0200  20        li   r0,char_zero_high
     2E56 00F0 
0196 2E58 C800  38        mov  r0,@current_char_zero
     2E5A 8398 
0197 2E5C C820  54        mov  @high_scores,@high_score
     2E5E D65E 
     2E60 8386 
0198 2E62 06A0  32        bl   @display_high_score
     2E64 2AB6 
0001 2E66 064A  14        dect r10
0002 2E68 C2DA  26        mov  *r10,r11
0003 2E6A 045B  20        b    *r11
0200               high_score_positions:
0201 2E6C 0205            data 16*32+5
0202 2E6E 0245            data 18*32+5
0203 2E70 0285            data 20*32+5
0204 2E72 0213            data 16*32+19
0205 2E74 0253            data 18*32+19
0206 2E76 0293            data 20*32+19
0207               *// display_high_scores
**** **** ****     > zqx-one.a99
1946                      copy "gpu.a99"
**** **** ****     > gpu.a99
0001               ***************************************************************
0002               *
0003               * Structure of sprites in sprbuf
0004               *
0005               gpu_sprite_addr:
0006                      equ  0
0007               gpu_sprite_type_index:
0008                      equ  2
0009               gpu_sprite_x:
0010                      equ  4
0011               gpu_sprite_y:
0012                      equ  6
0013               gpu_sprite_z:
0014                      equ  8
0015               gpu_sprite_size:
0016                      equ  10
0017               
0018               ***************************************************************
0019               *
0020               * Copy GPU program to VDP RAM
0021               *
0022               upload_gpu_program:
0001 2E78 CE8B  34        mov  r11,*r10+
0024               *      Set GPU status
0025 2E7A 0200  20        li   r0,vdp_gpu_status
     2E7C 03C0 
0026 2E7E 0701  14        seto r1
0027 2E80 06A0  32        bl   @vsbw
     2E82 3522 
0028               *      Upload to tmp location
0029 2E84 0200  20        li   r0,gpu_prg_tmp
     2E86 2800 
0030 2E88 0201  20        li   r1,gpu_program
     2E8A 2EE6 
0031 2E8C 0202  20        li   r2,gpu_program_end-gpu_program
     2E8E 0618 
0032 2E90 06A0  32        bl   @vmbw
     2E92 3550 
0033               *      Move to final location
0034 2E94 0200  20        li   r0,gpu_prg_tmp/256+>3600
     2E96 3628 
0035 2E98 06A0  32        bl   @vwtr
     2E9A 34FE 
0036 2E9C 0200  20        li   r0,gpu_prg_tmp%256+>3700
     2E9E 3700 
0037 2EA0 06A0  32        bl   @vwtr
     2EA2 34FE 
0038               *      Wait until done
0039 2EA4 06A0  32        bl   @wait_gpu
     2EA6 2EAE 
0001 2EA8 064A  14        dect r10
0002 2EAA C2DA  26        mov  *r10,r11
0003 2EAC 045B  20        b    *r11
0041               *// upload_gpu_program
0042               
0043               ***************************************************************
0044               *
0045               * Wait for GPU to finish
0046               *
0047               wait_gpu:
0001 2EAE CE8B  34        mov  r11,*r10+
0049               wait_gpu_1:
0050 2EB0 0200  20        li   r0,vdp_gpu_status
     2EB2 03C0 
0051 2EB4 06A0  32        bl   @vsbr
     2EB6 35AA 
0052 2EB8 0241  22        andi r1,>ff00
     2EBA FF00 
0053 2EBC 16F9  14        jne  wait_gpu_1
0001 2EBE 064A  14        dect r10
0002 2EC0 C2DA  26        mov  *r10,r11
0003 2EC2 045B  20        b    *r11
0055               *// wait_gpu
0056               
0057               ***************************************************************
0058               *
0059               * Run GPU program
0060               *
0061               gpu_run:
0001 2EC4 CE8B  34        mov  r11,*r10+
0063               *      Set GPU status
0064 2EC6 0200  20        li   r0,vdp_gpu_status
     2EC8 03C0 
0065 2ECA 0701  14        seto r1
0066 2ECC 06A0  32        bl   @vsbw
     2ECE 3522 
0067               *      Set the GPU PC which also triggers it
0068 2ED0 0200  20        li   r0,gpu_prg/256+>3600
     2ED2 3640 
0069 2ED4 06A0  32        bl   @vwtr
     2ED6 34FE 
0070 2ED8 0200  20        li   r0,gpu_prg%256+>3700
     2EDA 3700 
0071 2EDC 06A0  32        bl   @vwtr
     2EDE 34FE 
0001 2EE0 064A  14        dect r10
0002 2EE2 C2DA  26        mov  *r10,r11
0003 2EE4 045B  20        b    *r11
0073               *// gpu_run
0074               
0075               ***************************************************************
0076               *
0077               * GPU program
0078               *
0079               gpu_program:
0080 2EE6 0200  20        li   r0,gpu_prg_tmp+(gpu_program_start-gpu_program)
     2EE8 2818 
0081 2EEA 0201  20        li   r1,gpu_prg
     2EEC 4000 
0082 2EEE 0202  20        li   r2,gpu_program_end-gpu_program_start
     2EF0 0600 
0083               gpu_program_copy:
0084 2EF2 CC70  46        mov  *r0+,*r1+
0085 2EF4 0642  14        dect r2
0086 2EF6 16FD  14        jne  gpu_program_copy
0087 2EF8 04E0  34        clr  @vdp_gpu_status                    ; Signal done
     2EFA 03C0 
0088 2EFC 0340  16        idle
0089               gpu_program_start:
0090                      xorg gpu_prg
0091 2EFE 020F  20        li   r15,>47fe                  ; Stack pointer
     2F00 47FE 
0092 2F02 0CA0  20        call @sprite_collisions         ; Before sorting so we know the player is reported first
     2F04 412A 
0093 2F06 0CA0  20        call @sort_sprites
     2F08 401A 
0094 2F0A 0CA0  20        call @generate_sals
     2F0C 4064 
0095 2F0E 04E0  34        clr  @vdp_gpu_status                    ; Signal done
     2F10 03C0 
0096 2F12 0CA0  20        call @split_screen
     2F14 41D8 
0097 2F16 0340  16        idle
0098               **
0099               *      Sort sprites front to back
0100               *
0101               sort_sprites:
0102 2F18 0200  20        li   r0,>0500                   ; Blue border
     2F1A 0500 
0103 2F1C D800  38        movb r0,@>6007
     2F1E 6007 
0104 2F20 0203  20        li   r3,vdp_sprite_buffer
     2F22 0600 
0105               sort_sprites_1:
0106 2F24 C033  30        mov  *r3+,r0                    ; Get sprite address
0107 2F26 131C  14        jeq  sort_sprites_4             ; 0 = End
0108 2F28 05C3  14        inct r3                         ; Skip sprite type index
0109 2F2A C073  30        mov  *r3+,r1                    ; x
0110 2F2C 6073  30        s    *r3+,r1                    ; -y
0111 2F2E 6073  30        s    *r3+,r1                    ; -z
0112 2F30 C103  18        mov  r3,r4
0113               sort_sprites_2:
0114 2F32 C034  30        mov  *r4+,r0                    ; Get sprite address
0115 2F34 13F7  14        jeq  sort_sprites_1             ; 0 = End
0116 2F36 05C4  14        inct r4                         ; Skip sprite type index
0117 2F38 C0B4  30        mov  *r4+,r2                    ; x
0118 2F3A 60B4  30        s    *r4+,r2                    ; -y
0119 2F3C 60B4  30        s    *r4+,r2                    ; -z
0120 2F3E 8081  18        c    r1,r2
0121 2F40 11F8  14        jlt  sort_sprites_2
0122               *      Swap sprites
0123 2F42 C143  18        mov  r3,r5
0124 2F44 0225  22        ai   r5,-gpu_sprite_size
     2F46 FFF6 
0125 2F48 C184  18        mov  r4,r6
0126 2F4A 0226  22        ai   r6,-gpu_sprite_size
     2F4C FFF6 
0127 2F4E 0207  20        li   r7,gpu_sprite_size/2
     2F50 0005 
0128               sort_sprites_3:
0129 2F52 C015  26        mov  *r5,r0
0130 2F54 CD56  42        mov  *r6,*r5+
0131 2F56 CD80  34        mov  r0,*r6+
0132 2F58 0607  14        dec  r7
0133 2F5A 16FB  14        jne  sort_sprites_3
0134 2F5C C042  18        mov  r2,r1
0135 2F5E 10E9  14        jmp  sort_sprites_2
0136               sort_sprites_4:
0137 2F60 0C00            ret
0138               **
0139               *      Generate sprite attribute lists
0140               *
0141               generate_sals:
0142 2F62 0200  20        li   r0,>0600                   ; Yellow border
     2F64 0600 
0143 2F66 D800  38        movb r0,@>6007
     2F68 6007 
0144 2F6A 0203  20        li   r3,sprite_attr_table                  ; Top dest
     2F6C 0500 
0145 2F6E 0204  20        li   r4,sprite_attr_table_2                  ; Bottom dest
     2F70 0580 
0146 2F72 04C5  14        clr  r5                         ; Number of top sprites
0147 2F74 04C6  14        clr  r6                         ; Number of bottom sprites
0148 2F76 0209  20        li   r9,vdp_sprite_buffer
     2F78 0600 
0149               generate_sals_1:
0150 2F7A C039  30        mov  *r9+,r0                    ; Get sprite address
0151 2F7C 134E  14        jeq  generate_sals_6            ; 0 = End
0152               *      Locate sprite attributes
0153 2F7E C039  30        mov  *r9+,r0                    ; Get sprite type index
0154 2F80 0A10  56        sla  r0,1                       ; Index to word offset
0155 2F82 0220  22        ai   r0,sprite_attrs_table      ; Index entry
     2F84 4228 
0156 2F86 A010  26        a    *r0,r0                     ; Add offset to sprite attributes
0157               *      Isometric coordinates
0158 2F88 C2B9  30        mov  *r9+,r10                   ; Get x0
0159 2F8A C2F9  30        mov  *r9+,r11                   ; Get y0
0160 2F8C C339  30        mov  *r9+,r12                   ; Get z0
0161 2F8E 62A0  34        s    @vdp_scroll_pos,r10                ; Adjust for scrolling
     2F90 03C2 
0162               *      Isometric projection
0163 2F92 C34A  18        mov  r10,r13                    ; Save x0
0164 2F94 A28B  18        a    r11,r10                    ; x0 + y0
0165 2F96 62CD  18        s    r13,r11                    ; y0 - x0
0166 2F98 081B  56        sra  r11,1                      ; (y0 - x0) / 2
0167 2F9A 62CC  18        s    r12,r11                    ; (y0 - x0) / 2 - z0
0168               *      Adjust for screen layout
0169 2F9C 022A  22        ai   r10,isometric_x0           ; Adjust for screen layout
     2F9E 0010 
0170 2FA0 022B  22        ai   r11,isometric_y0           ; Adjust for screen layout
     2FA2 0050 
0171 2FA4 022B  22        ai   r11,isometric_z0           ; Adjust zero height level
     2FA6 0010 
0172               *      Adjust for sprite center
0173 2FA8 62B0  30        s    *r0+,r10                   ; Cx
0174 2FAA 62F0  30        s    *r0+,r11                   ; Cy
0175               *      Check if whole sprite is out of screen
0176 2FAC 880A  38        c    r10,@hw_sprite_x_max
     2FAE 4220 
0177 2FB0 15E4  14        jgt  generate_sals_1            ; Skip
0178 2FB2 880B  38        c    r11,@hw_sprite_y_max
     2FB4 4224 
0179 2FB6 15E1  14        jgt  generate_sals_1            ; Skip
0180               *      Process individual hardware sprites
0181 2FB8 C0B0  30        mov  *r0+,r2                    ; Number of hardware sprites for this sprite
0182               generate_sals_2:
0183               *      Calculate position
0184 2FBA D1F0  28        movb *r0+,r7                    ; Get dy
0185 2FBC 0887  56        sra  r7,8
0186 2FBE D230  28        movb *r0+,r8                    ; Get dx
0187 2FC0 0888  56        sra  r8,8
0188 2FC2 C070  30        mov  *r0+,r1                    ; Get pattern and color
0189 2FC4 A1CB  18        a    r11,r7                     ; y0 + dy
0190               *      Check position
0191 2FC6 8807  38        c    r7,@hw_sprite_y_min
     2FC8 4222 
0192 2FCA 1124  14        jlt  generate_sals_5            ; Out of screen top
0193 2FCC 8807  38        c    r7,@hw_sprite_y_max
     2FCE 4224 
0194 2FD0 1521  14        jgt  generate_sals_5            ; Out of screen bottom
0195 2FD2 06C7  14        swpb r7
0196 2FD4 A20A  18        a    r10,r8                     ; x0 + dy
0197 2FD6 111E  14        jlt  generate_sals_5            ; Out of screen left
0198 2FD8 8808  38        c    r8,@hw_sprite_x_max
     2FDA 4220 
0199 2FDC 151B  14        jgt  generate_sals_5            ; Out of screen right
0200 2FDE 06C8  14        swpb r8
0201               *      Check for inclusion in top SAL
0202 2FE0 9807  38        cb   r7,@hw_sprite_y_max+1
     2FE2 4225 
0203 2FE4 1B03  14        jh   generate_sals_3            ; OK - top of screen
0204 2FE6 9807  38        cb   r7,@split_y
     2FE8 421E 
0205 2FEA 1407  14        jhe  generate_sals_4            ; Not OK - bottom
0206               generate_sals_3:
0207 2FEC 0285  22        ci   r5,32
     2FEE 0020 
0208 2FF0 1404  14        jhe  generate_sals_4            ; Not OK - no more sprites
0209               *      OK for inclusion in top SAL
0210 2FF2 DCC7  32        movb r7,*r3+
0211 2FF4 DCC8  32        movb r8,*r3+
0212 2FF6 CCC1  34        mov  r1,*r3+
0213 2FF8 0585  14        inc  r5
0214               *      Check for inclusion in bottom SAL
0215               generate_sals_4:
0216 2FFA 9807  38        cb   r7,@hw_sprite_y_max+1
     2FFC 4225 
0217 2FFE 140A  14        jhe  generate_sals_5            ; Not OK - top of screen
0218 3000 9807  38        cb   r7,@split_y_top
     3002 421F 
0219 3004 1A07  14        jl   generate_sals_5            ; Not OK - top of screen
0220 3006 0286  22        ci   r6,32
     3008 0020 
0221 300A 1404  14        jhe  generate_sals_5            ; Not OK - no more sprites
0222               *      OK for inclusion in bottom SAL
0223 300C DD07  32        movb r7,*r4+
0224 300E DD08  32        movb r8,*r4+
0225 3010 CD01  34        mov  r1,*r4+
0226 3012 0586  14        inc  r6
0227               *      Next hardware sprite
0228               generate_sals_5:
0229 3014 0602  14        dec  r2
0230 3016 16D1  14        jne  generate_sals_2
0231               *      Next sprite
0232 3018 10B0  14        jmp  generate_sals_1
0233               *      Record number of sprites in each SAL
0234               generate_sals_6:
0235 301A 06C5  14        swpb r5
0236 301C D805  38        movb r5,@top_sprites
     301E 4226 
0237 3020 06C6  14        swpb r6
0238 3022 D806  38        movb r6,@bottom_sprites
     3024 4227 
0239 3026 0C00            ret
0240               **
0241               *      Sprite collisions
0242               *
0243               sprite_collisions:
0244 3028 0206  20        li   r6,vdp_collisions
     302A 0BC0 
0245 302C 0204  20        li   r4,vdp_sprite_buffer
     302E 0600 
0246               sprite_collisions_1:
0247 3030 C014  26        mov  *r4,r0                     ; Get sprite address
0248 3032 134F  14        jeq  sprite_collisions_5        ; 0 = End
0249 3034 C064  34        mov  @gpu_sprite_x(r4),r1       ; Get x
     3036 0004 
0250 3038 C0A4  34        mov  @gpu_sprite_y(r4),r2       ; Get y
     303A 0006 
0251 303C C0E4  34        mov  @gpu_sprite_z(r4),r3       ; Get z
     303E 0008 
0252               *      Collision with walls
0253 3040 C220  34        mov  @vdp_sub_level,r8
     3042 03C4 
0254 3044 0A18  56        sla  r8,1
0255 3046 0228  22        ai   r8,walls                   ; Address of offset
     3048 45D4 
0256 304A A218  26        a    *r8,r8                     ; Add offset
0257               sprite_collisions_1g:
0258 304C C028  34        mov  @wall_x(r8),r0             ; Wall x
     304E 0000 
0259 3050 130F  14        jeq  sprite_collisions_1b       ; Zero terminates list
0260 3052 6001  18        s    r1,r0                      ; Wall x - player x
0261 3054 110A  14        jlt  sprite_collisions_1f       ; Past wall
0262 3056 0280  22        ci   r0,8                       ; Before wall?
     3058 0008 
0263 305A 150A  14        jgt  sprite_collisions_1b       ; Yes - no need to check more walls
0264 305C C028  34        mov  @wall_height(r8),r0        ; Get wall height
     305E 0002 
0265 3060 6003  18        s    r3,r0                      ; Wall height - player z
0266 3062 1106  14        jlt  sprite_collisions_1b       ; < 0 Yes - no need to check more walls
0267 3064 CD94  42        mov  *r4,*r6+                   ; Write sprite address 1
0268 3066 04F6  30        clr  *r6+                       ; Zero means wall
0269 3068 102B  14        jmp  sprite_collisions_2a
0270               sprite_collisions_1f:
0271 306A 0228  22        ai   r8,wall_size               ; Next wall
     306C 0004 
0272 306E 10EE  14        jmp  sprite_collisions_1g
0273               *      Collision with sprites
0274               sprite_collisions_1b:
0275 3070 C024  34        mov  @gpu_sprite_type_index(r4),r0
     3072 0002 
0276 3074 0207  20        li   r7,16                      ; Default presicion for detecting collision
     3076 0010 
0277 3078 0280  22        ci   r0,sprite_type_index_plane
     307A 0000 
0278 307C 1603  14        jne  sprite_collisions_1c
0279 307E 0207  20        li   r7,12                      ; Increased precision for collision with plane
     3080 000C 
0280 3082 1003  14        jmp  sprite_collisions_1d
0281               sprite_collisions_1c:
0282 3084 0280  22        ci   r0,sprite_type_index_green_bullet
     3086 0016 
0283 3088 1602  14        jne  sprite_collisions_1e
0284               sprite_collisions_1d:
0285 308A 0223  22        ai   r3,-8                      ; Adjust z for minimum height of plane
     308C FFF8 
0286               sprite_collisions_1e:
0287 308E C144  18        mov  r4,r5
0288 3090 0225  22        ai   r5,gpu_sprite_size
     3092 000A 
0289               sprite_collisions_2:
0290 3094 C015  26        mov  *r5,r0                     ; Get sprite address
0291 3096 131A  14        jeq  sprite_collisions_4        ; 0 = End
0292 3098 C025  34        mov  @gpu_sprite_x(r5),r0
     309A 0004 
0293 309C 6001  18        s    r1,r0
0294 309E 0740  18        abs  r0
0295 30A0 81C0  18        c    r0,r7
0296 30A2 1511  14        jgt  sprite_collisions_3
0297 30A4 C025  34        mov  @gpu_sprite_y(r5),r0
     30A6 0006 
0298 30A8 6002  18        s    r2,r0
0299 30AA 0740  18        abs  r0
0300 30AC 81C0  18        c    r0,r7
0301 30AE 150B  14        jgt  sprite_collisions_3
0302 30B0 C025  34        mov  @gpu_sprite_z(r5),r0
     30B2 0008 
0303 30B4 6003  18        s    r3,r0
0304 30B6 0740  18        abs  r0
0305 30B8 81C0  18        c    r0,r7
0306 30BA 1505  14        jgt  sprite_collisions_3
0307               *      Collision
0308 30BC CD94  42        mov  *r4,*r6+                   ; Write sprite address 1
0309 30BE CD95  42        mov  *r5,*r6+                   ; Write sprite address 2
0310               sprite_collisions_2a:
0311 30C0 0286  22        ci   r6,vdp_collisions+60       ; That's all the space there is
     30C2 0BFC 
0312 30C4 1406  14        jhe  sprite_collisions_5
0313               *      Next inner
0314               sprite_collisions_3:
0315 30C6 0225  22        ai   r5,gpu_sprite_size
     30C8 000A 
0316 30CA 10E4  14        jmp  sprite_collisions_2
0317               *      Next outer
0318               sprite_collisions_4:
0319 30CC 0224  22        ai   r4,gpu_sprite_size
     30CE 000A 
0320 30D0 10AF  14        jmp  sprite_collisions_1
0321               sprite_collisions_5:
0322 30D2 04D6  26        clr  *r6
0323 30D4 0C00            ret
0324               **
0325               *      Handle split screen
0326               *
0327               split_screen:
0328 30D6 04C0  14        clr  r0
0329 30D8 D800  38        movb r0,@>6007                  ; Black border
     30DA 6007 
0330               *      Set sprite attribute table 1
0331 30DC 0200  20        li   r0,(sprite_attr_table/>80)*256        ; Value for VR5 (table 1)
     30DE 0A00 
0332 30E0 D800  38        movb r0,@>6005                  ; Set VR5
     30E2 6005 
0333 30E4 D820  54        movb @top_sprites,@>6033        ; Set max sprites (VR51)
     30E6 4226 
     30E8 6033 
0334               *      Set hsync trigger
0335 30EA D020  34        movb @>6032,r0                  ; Get contens of VR50
     30EC 6032 
0336 30EE 0260  22        ori  r0,>4000                   ; Set hsync bit
     30F0 4000 
0337 30F2 D800  38        movb r0,@>6032                  ; Set VR50
     30F4 6032 
0338               *      Return
0339               split_screen_1:
0340 30F6 0340  16        idle
0341               *      Hsync handler
0342 30F8 9820  54        cb   @>7000,@split_y            ; Check scanline number
     30FA 7000 
     30FC 421E 
0343 30FE 16FB  14        jne  split_screen_1             ; Wait if not reached
0344               *      Set sprite attribute table 2
0345 3100 0200  20        li   r0,(sprite_attr_table_2/>80)*256        ; Value for VR5 (table 2)
     3102 0B00 
0346 3104 D800  38        movb r0,@>6005                  ; Set VR5
     3106 6005 
0347 3108 D820  54        movb @bottom_sprites,@>6033     ; Set max sprites (VR51)
     310A 4227 
     310C 6033 
0348               *      Clear hsync trigger
0349 310E D020  34        movb @>6032,r0                  ; Get contens of VR50
     3110 6032 
0350 3112 0240  22        andi r0,>bfff                   ; Clear hsync bit
     3114 BFFF 
0351 3116 D800  38        movb r0,@>6032                  ; Set VR50
     3118 6032 
0352               *      Return
0353 311A 0C00            ret
0354               
0355               split_y:
0356 311C 9080            byte >90
0357               split_y_top:
0358                      byte >80
0359               hw_sprite_x_max:
0360 311E 00EF            data 240-1
0361               hw_sprite_y_min:
0362 3120 FFF0            data -16
0363               hw_sprite_y_max:
0364 3122 00EF            data 240-1
0365               top_sprites:
0366 3124 0000            byte 0
0367               bottom_sprites:
0368                      byte 0
0369               *      Sprite attributes
0370                      copy "sprite-attrs.a99"
**** **** ****     > sprite-attrs.a99
0001               sprite_attrs_cx:
0002                      equ  0
0003               sprite_attrs_cy:
0004                      equ  2
0005               sprite_attrs_n_sprites:
0006                      equ  4
0007               sprite_attrs_attributes:
0008                      equ  6
0009               sprite_attrs_size:
0010                      equ  6                          ; Actual size is 6 + 4 * n_sprites
0011               
0012               sprite_attrs_table:
0013 3126 0064            data sprite_attrs_plane-$
0014 3128 0070            data sprite_attrs_shadow-$
0015 312A 007C            data sprite_attrs_silo-$
0016 312C 0090            data sprite_attrs_radar-$
0017 312E 00A4            data sprite_attrs_blue_gun-$
0018 3130 00B4            data sprite_attrs_green_gun-$
0019 3132 00C4            data sprite_attrs_green_gun_2-$
0020 3134 00D0            data sprite_attrs_blue_plane-$
0021 3136 00DC            data sprite_attrs_green_rocket_1-$
0022 3138 00E8            data sprite_attrs_green_rocket_2-$
0023 313A 00F4            data sprite_attrs_rocket_launch_1-$
0024 313C 0108            data sprite_attrs_rocket_launch_2-$
0025 313E 011C            data sprite_attrs_shield-$
0026 3140 0130            data sprite_attrs_wall_left-$
0027 3142 0144            data sprite_attrs_wall_right-$
0028 3144 0158            data sprite_attrs_explosion_1-$
0029 3146 016C            data sprite_attrs_explosion_2-$
0030 3148 0180            data sprite_attrs_small_explosion-$
0031 314A 0188            data sprite_attrs_hit_1-$
0032 314C 019C            data sprite_attrs_hit_2-$
0033 314E 01A8            data sprite_attrs_debris-$
0034 3150 01B4            data sprite_attrs_debris_500-$
0035 3152 01C8            data sprite_attrs_green_bullet-$
0036 3154 01D0            data sprite_attrs_red_bullet-$
0037 3156 01D8            data sprite_attrs_plane_up-$
0038 3158 01E4            data sprite_attrs_plane_down-$
0039 315A 01F0            data sprite_attrs_plane_m-$
0040 315C 01FC            data sprite_attrs_plane_s-$
0041 315E 0208            data sprite_attrs_plane_xs-$
0042 3160 0210            data sprite_attrs_plane_up_m-$
0043 3162 021C            data sprite_attrs_plane_up_s-$
0044 3164 0224            data sprite_attrs_plane_up_xs-$
0045 3166 022C            data sprite_attrs_plane_down_m-$
0046 3168 0238            data sprite_attrs_plane_down_s-$
0047 316A 0244            data sprite_attrs_plane_down_xs-$
0048 316C 024C            data sprite_attrs_blue_plane_up_l-$
0049 316E 0258            data sprite_attrs_blue_plane_up_m-$
0050 3170 0264            data sprite_attrs_blue_plane_up_s-$
0051 3172 0270            data sprite_attrs_blue_plane_up_xs-$
0052 3174 0278            data sprite_attrs_blue_plane_down_l-$
0053 3176 0284            data sprite_attrs_blue_plane_down_m-$
0054 3178 0290            data sprite_attrs_blue_plane_down_s-$
0055 317A 029C            data sprite_attrs_blue_plane_down_xs-$
0056 317C 02A4            data sprite_attrs_boss-$
0057 317E 02E8            data sprite_attrs_boss_rocket_launcher-$
0058 3180 02FC            data sprite_attrs_boss_shadow-$
0059 3182 0314            data sprite_attrs_red_rocket_1-$
0060 3184 0320            data sprite_attrs_red_rocket_2-$
0061 3186 032C            data sprite_attrs_red_bullet_2-$
0062 3188 0334            data sprite_attrs_satellite-$
0063               
0064               sprite_attrs:
0065                      equ  $
0066               sprite_attrs_plane:
0067 318A 0005            data 5                          ; cx
0068 318C 000B            data 11                         ; cy
0069 318E 0002            data 2                          ; n sprites
0070 3190 0000            byte 0,0,>00,>04
     3192 0004 
0071 3194 0010            byte 0,16,>04,>04
     3196 0404 
0072               sprite_attrs_shadow:
0073 3198 0005            data 5                          ; cx
0074 319A 000B            data 11                         ; cy
0075 319C 0002            data 2                          ; n sprites
0076 319E 0000            byte 0,0,>10,>04
     31A0 1004 
0077 31A2 0010            byte 0,16,>14,>04
     31A4 1404 
0078               sprite_attrs_silo:
0079 31A6 000F            data 15                         ; cx
0080 31A8 0019            data 25                         ; cy
0081 31AA 0004            data 4                          ; n sprites
0082 31AC 0000            byte 0,0,>64,>08
     31AE 6408 
0083 31B0 0010            byte 0,16,>6c,>08
     31B2 6C08 
0084 31B4 1000            byte 16,0,>74,>08
     31B6 7408 
0085 31B8 1010            byte 16,16,>7c,>08
     31BA 7C08 
0086               sprite_attrs_radar:
0087 31BC 000F            data 15                         ; cx
0088 31BE 001B            data 27                         ; cy
0089 31C0 0004            data 4                          ; n sprites
0090 31C2 0000            byte 0,0,>80,>08
     31C4 8008 
0091 31C6 0010            byte 0,16,>84,>08
     31C8 8408 
0092 31CA 1000            byte 16,0,>90,>08
     31CC 9008 
0093 31CE 1010            byte 16,16,>94,>08
     31D0 9408 
0094               sprite_attrs_blue_gun:
0095 31D2 0013            data 19                         ; cx
0096 31D4 0009            data 9                          ; cy
0097 31D6 0003            data 3                          ; n sprites
0098 31D8 0000            byte 0,0,>28,>0a
     31DA 280A 
0099 31DC 0010            byte 0,16,>2c,>0a
     31DE 2C0A 
0100 31E0 1000            byte 16,0,>38,>0a
     31E2 380A 
0101               sprite_attrs_green_gun:
0102 31E4 0014            data 20                         ; cx
0103 31E6 001A            data 26                         ; cy
0104 31E8 0003            data 3                          ; n sprites
0105 31EA 0000            byte 0,0,>20,>06
     31EC 2006 
0106 31EE 1000            byte 16,0,>30,>06
     31F0 3006 
0107 31F2 1010            byte 16,16,>34,>06
     31F4 3406 
0108               sprite_attrs_green_gun_2:
0109 31F6 0008            data 8                          ; cx
0110 31F8 0008            data 8                          ; cy
0111 31FA 0002            data 2                          ; n sprites
0112 31FC 0000            byte 0,0,>24,>06
     31FE 2406 
0113 3200 0810            byte 8,16,>3c,>06
     3202 3C06 
0114               sprite_attrs_blue_plane:
0115 3204 000C            data 12                         ; cx
0116 3206 0008            data 8                          ; cy
0117 3208 0002            data 2                          ; n sprites
0118 320A 0000            byte 0,0,>a8,>0a
     320C A80A 
0119 320E 0010            byte 0,16,>ac,>0a
     3210 AC0A 
0120               sprite_attrs_green_rocket_1:
0121 3212 0007            data 7                          ; cx
0122 3214 0013            data 19                         ; cy
0123 3216 0002            data 2                          ; n sprites
0124 3218 0000            byte 0,0,>e0,>0e
     321A E00E 
0125 321C 1000            byte 16,0,>f0,>0e
     321E F00E 
0126               sprite_attrs_green_rocket_2:
0127 3220 0007            data 7                          ; cx
0128 3222 0013            data 19                         ; cy
0129 3224 0002            data 2                          ; n sprites
0130 3226 0000            byte 0,0,>e0,>0e
     3228 E00E 
0131 322A 1000            byte 16,0,>f4,>0e
     322C F40E 
0132               sprite_attrs_rocket_launch_1:
0133 322E 000F            data 15                         ; cx
0134 3230 0018            data 24                         ; cy
0135 3232 0004            data 4                          ; n sprites
0136 3234 0000            byte 0,0,>48,>08
     3236 4808 
0137 3238 0010            byte 0,16,>4c,>08
     323A 4C08 
0138 323C 1000            byte 16,0,>58,>08
     323E 5808 
0139 3240 1010            byte 16,16,>5c,>08
     3242 5C08 
0140               sprite_attrs_rocket_launch_2:
0141 3244 000F            data 15                         ; cx
0142 3246 0018            data 24                         ; cy
0143 3248 0004            data 4                          ; n sprites
0144 324A 0000            byte 0,0,>40,>08
     324C 4008 
0145 324E 0010            byte 0,16,>44,>08
     3250 4408 
0146 3252 1000            byte 16,0,>50,>08
     3254 5008 
0147 3256 1010            byte 16,16,>54,>08
     3258 5408 
0148               sprite_attrs_shield:
0149 325A 0000            data 0                          ; cx
0150 325C 0012            data 18                         ; cy
0151 325E 0004            data 4                          ; n sprites
0152 3260 0000            byte 0,0,>88,>04
     3262 8804 
0153 3264 0010            byte 0,16,>8c,>04
     3266 8C04 
0154 3268 1000            byte 16,0,>98,>04
     326A 9804 
0155 326C 1010            byte 16,16,>9c,>04
     326E 9C04 
0156               sprite_attrs_wall_left:
0157 3270 000C            data 12                         ; cx
0158 3272 0016            data 22                         ; cy
0159 3274 0004            data 4                          ; n sprites
0160 3276 0000            byte 0,0,>c0,>0c
     3278 C00C 
0161 327A 0010            byte 0,16,>c4,>0c
     327C C40C 
0162 327E 1000            byte 16,0,>d0,>0c
     3280 D00C 
0163 3282 1010            byte 16,16,>d4,>0c
     3284 D40C 
0164               sprite_attrs_wall_right:
0165 3286 000C            data 12                         ; cx
0166 3288 0016            data 22                         ; cy
0167 328A 0004            data 4                          ; n sprites
0168 328C 0000            byte 0,0,>c0,>0c
     328E C00C 
0169 3290 0010            byte 0,16,>b8,>0c
     3292 B80C 
0170 3294 1000            byte 16,0,>d0,>0c
     3296 D00C 
0171 3298 1010            byte 16,16,>bc,>0c
     329A BC0C 
0172               sprite_attrs_explosion_1:
0173 329C 0010            data 16                         ; cx
0174 329E 0017            data 23                         ; cy
0175 32A0 0004            data 4                          ; n sprites
0176 32A2 0000            byte 0,0,>60,>04
     32A4 6004 
0177 32A6 0010            byte 0,16,>60,>44
     32A8 6044 
0178 32AA 1000            byte 16,0,>70,>04
     32AC 7004 
0179 32AE 1010            byte 16,16,>70,>44
     32B0 7044 
0180               sprite_attrs_explosion_2:
0181 32B2 000F            data 15                         ; cx
0182 32B4 0017            data 23                         ; cy
0183 32B6 0004            data 4                          ; n sprites
0184 32B8 0000            byte 0,0,>68,>04
     32BA 6804 
0185 32BC 0010            byte 0,16,>68,>44
     32BE 6844 
0186 32C0 1000            byte 16,0,>78,>04
     32C2 7804 
0187 32C4 1010            byte 16,16,>78,>44
     32C6 7844 
0188               sprite_attrs_small_explosion:
0189 32C8 0007            data 7                          ; cx
0190 32CA 0007            data 7                          ; cy
0191 32CC 0001            data 1                          ; n sprites
0192 32CE 0000            byte 0,0,>e4,>04
     32D0 E404 
0193               sprite_attrs_hit_1:
0194 32D2 0010            data 16                         ; cx
0195 32D4 0010            data 16                         ; cy
0196 32D6 0004            data 4                          ; n sprites
0197 32D8 0000            byte 0,0,>a0,>04
     32DA A004 
0198 32DC 0010            byte 0,16,>a4,>04
     32DE A404 
0199 32E0 1000            byte 16,0,>b0,>04
     32E2 B004 
0200 32E4 1010            byte 16,16,>b4,>04
     32E6 B404 
0201               sprite_attrs_hit_2:
0202 32E8 000D            data 13                         ; cx
0203 32EA 000F            data 15                         ; cy
0204 32EC 0002            data 2                          ; n sprites
0205 32EE 0000            byte 0,0,>e8,>04
     32F0 E804 
0206 32F2 1000            byte 16,0,>f8,>04
     32F4 F804 
0207               sprite_attrs_debris:
0208 32F6 000F            data 15                         ; cx
0209 32F8 0009            data 9                          ; cy
0210 32FA 0002            data 2                          ; n sprites
0211 32FC 0000            byte 0,0,>d8,>0c
     32FE D80C 
0212 3300 0010            byte 0,16,>dc,>0c
     3302 DC0C 
0213               sprite_attrs_debris_500:
0214 3304 000F            data 15                         ; cx
0215 3306 0011            data 17                         ; cy
0216 3308 0004            data 4                          ; n sprites
0217 330A 0000            byte 0,0,>c8,>0c
     330C C80C 
0218 330E 0010            byte 0,16,>cc,>0c
     3310 CC0C 
0219 3312 0800            byte 8,0,>d8,>0c
     3314 D80C 
0220 3316 0810            byte 8,16,>dc,>0c
     3318 DC0C 
0221               sprite_attrs_green_bullet:
0222 331A 0000            data 0                          ; cx
0223 331C 000C            data 12                         ; cy
0224 331E 0001            data 1                          ; n sprites
0225 3320 0000            byte 0,0,>ec,>06
     3322 EC06 
0226               sprite_attrs_red_bullet:
0227 3324 0006            data 6                          ; cx
0228 3326 000B            data 11                         ; cy
0229 3328 0001            data 1                          ; n sprites
0230 332A 0000            byte 0,0,>fc,>04
     332C FC04 
0231               sprite_attrs_plane_up:
0232 332E 0005            data 5                          ; cx
0233 3330 000C            data 12                         ; cy
0234 3332 0002            data 2                          ; n sprites
0235 3334 0000            byte 0,0,>08,>04
     3336 0804 
0236 3338 F808            byte -8,8,>0c,>04
     333A 0C04 
0237               sprite_attrs_plane_down:
0238 333C 0005            data 5                          ; cx
0239 333E 0009            data 9                          ; cy
0240 3340 0002            data 2                          ; n sprites
0241 3342 0000            byte 0,0,>18,>04
     3344 1804 
0242 3346 0010            byte 0,16,>1c,>04
     3348 1C04 
0243               sprite_attrs_plane_m:
0244 334A 0004            data 4                          ; cx
0245 334C 000B            data 11                         ; cy
0246 334E 0002            data 2                          ; n sprites
0247 3350 0000            byte 0,0,>20,>04
     3352 2004 
0248 3354 0010            byte 0,16,>24,>04
     3356 2404 
0249               sprite_attrs_plane_s:
0250 3358 0004            data 4                          ; cx
0251 335A 000C            data 12                         ; cy
0252 335C 0002            data 2                          ; n sprites
0253 335E 0000            byte 0,0,>28,>04
     3360 2804 
0254 3362 0010            byte 0,16,>2c,>04
     3364 2C04 
0255               sprite_attrs_plane_xs:
0256 3366 0003            data 3                          ; cx
0257 3368 000C            data 12                         ; cy
0258 336A 0001            data 1                          ; n sprites
0259 336C 0000            byte 0,0,>30,>04
     336E 3004 
0260               sprite_attrs_plane_up_m:
0261 3370 0004            data 4                          ; cx
0262 3372 000C            data 12                         ; cy
0263 3374 0002            data 2                          ; n sprites
0264 3376 0000            byte 0,0,>34,>04
     3378 3404 
0265 337A 0010            byte 0,16,>38,>04
     337C 3804 
0266               sprite_attrs_plane_up_s:
0267 337E 0005            data 5                          ; cx
0268 3380 000C            data 12                         ; cy
0269 3382 0001            data 1                          ; n sprites
0270 3384 0000            byte 0,0,>3c,>04
     3386 3C04 
0271               sprite_attrs_plane_up_xs:
0272 3388 0003            data 3                          ; cx
0273 338A 000D            data 13                         ; cy
0274 338C 0001            data 1                          ; n sprites
0275 338E 0000            byte 0,0,>40,>04
     3390 4004 
0276               sprite_attrs_plane_down_m:
0277 3392 0004            data 4                          ; cx
0278 3394 000A            data 10                         ; cy
0279 3396 0002            data 2                          ; n sprites
0280 3398 0000            byte 0,0,>44,>04
     339A 4404 
0281 339C 0010            byte 0,16,>48,>04
     339E 4804 
0282               sprite_attrs_plane_down_s:
0283 33A0 0003            data 3                          ; cx
0284 33A2 000A            data 10                         ; cy
0285 33A4 0002            data 2                          ; n sprites
0286 33A6 0000            byte 0,0,>4c,>04
     33A8 4C04 
0287 33AA 0010            byte 0,16,>50,>04
     33AC 5004 
0288               sprite_attrs_plane_down_xs:
0289 33AE 0002            data 2                          ; cx
0290 33B0 000B            data 11                         ; cy
0291 33B2 0001            data 1                          ; n sprites
0292 33B4 0000            byte 0,0,>54,>04
     33B6 5404 
0293               sprite_attrs_blue_plane_up_l:
0294 33B8 0000            data 0                          ; cx
0295 33BA 000F            data 15                         ; cy
0296 33BC 0002            data 2                          ; n sprites
0297 33BE 0000            byte 0,0,>58,>0a
     33C0 580A 
0298 33C2 0010            byte 0,16,>5c,>0a
     33C4 5C0A 
0299               sprite_attrs_blue_plane_up_m:
0300 33C6 0000            data 0                          ; cx
0301 33C8 000F            data 15                         ; cy
0302 33CA 0002            data 2                          ; n sprites
0303 33CC 0000            byte 0,0,>60,>0a
     33CE 600A 
0304 33D0 0010            byte 0,16,>64,>0a
     33D2 640A 
0305               sprite_attrs_blue_plane_up_s:
0306 33D4 0000            data 0                          ; cx
0307 33D6 000F            data 15                         ; cy
0308 33D8 0002            data 2                          ; n sprites
0309 33DA 0000            byte 0,0,>68,>0a
     33DC 680A 
0310 33DE 0010            byte 0,16,>6c,>0a
     33E0 6C0A 
0311               sprite_attrs_blue_plane_up_xs:
0312 33E2 0000            data 0                          ; cx
0313 33E4 000F            data 15                         ; cy
0314 33E6 0001            data 1                          ; n sprites
0315 33E8 0000            byte 0,0,>70,>0a
     33EA 700A 
0316               sprite_attrs_blue_plane_down_l:
0317 33EC 0000            data 0                          ; cx
0318 33EE 000F            data 15                         ; cy
0319 33F0 0002            data 2                          ; n sprites
0320 33F2 0000            byte 0,0,>74,>0a
     33F4 740A 
0321 33F6 0010            byte 0,16,>78,>0a
     33F8 780A 
0322               sprite_attrs_blue_plane_down_m:
0323 33FA 0000            data 0                          ; cx
0324 33FC 000F            data 15                         ; cy
0325 33FE 0002            data 2                          ; n sprites
0326 3400 0000            byte 0,0,>7c,>0a
     3402 7C0A 
0327 3404 0010            byte 0,16,>80,>0a
     3406 800A 
0328               sprite_attrs_blue_plane_down_s
0329 3408 0000            data 0                          ; cx
0330 340A 000F            data 15                         ; cy
0331 340C 0002            data 2                          ; n sprites
0332 340E 0000            byte 0,0,>84,>0a
     3410 840A 
0333 3412 0010            byte 0,16,>88,>0a
     3414 880A 
0334               sprite_attrs_blue_plane_down_xs:
0335 3416 0000            data 0                          ; cx
0336 3418 000F            data 15                         ; cy
0337 341A 0001            data 1                          ; n sprites
0338 341C 0000            byte 0,0,>8c,>0a
     341E 8C0A 
0339               sprite_attrs_boss:
0340 3420 0017            data 23                         ; cx
0341 3422 003B            data 59                         ; cy
0342 3424 0010            data 16                         ; n sprites
0343 3426 0000            byte 0,0,>20,>0a
     3428 200A 
0344 342A 0010            byte 0,16,>24,>0a
     342C 240A 
0345 342E 0020            byte 0,32,>28,>0a
     3430 280A 
0346 3432 1000            byte 16,0,>30,>0a
     3434 300A 
0347 3436 1010            byte 16,16,>34,>0a
     3438 340A 
0348 343A 1020            byte 16,32,>38,>0a
     343C 380A 
0349 343E 1030            byte 16,48,>3c,>0a
     3440 3C0A 
0350 3442 2000            byte 32,0,>40,>0a
     3444 400A 
0351 3446 2010            byte 32,16,>44,>0a
     3448 440A 
0352 344A 2020            byte 32,32,>48,>0a
     344C 480A 
0353 344E 2030            byte 32,48,>4c,>0a
     3450 4C0A 
0354 3452 3000            byte 48,0,>50,>0a
     3454 500A 
0355 3456 3010            byte 48,16,>54,>0a
     3458 540A 
0356 345A 3020            byte 48,32,>58,>0a
     345C 580A 
0357 345E 3030            byte 48,48,>5c,>0a
     3460 5C0A 
0358 3462 4020            byte 64,32,>2c,>0a
     3464 2C0A 
0359               sprite_attrs_boss_rocket_launcher:
0360 3466 000B            data 11
0361 3468 000D            data 13
0362 346A 0004            data 4
0363 346C 0000            byte 0,0,>80,>0a
     346E 800A 
0364 3470 0010            byte 0,16,>84,>0a
     3472 840A 
0365 3474 1000            byte 16,0,>90,>0a
     3476 900A 
0366 3478 1010            byte 16,16,>94,>0a
     347A 940A 
0367               sprite_attrs_boss_shadow:
0368 347C 0010            data 16
0369 347E 0017            data 23
0370 3480 0005            data 5
0371 3482 0000            byte 0,0,>e0,>06
     3484 E006 
0372 3486 0010            byte 0,16,>98,>06
     3488 9806 
0373 348A 1000            byte 16,0,>f0,>06
     348C F006 
0374 348E 1010            byte 16,16,>f4,>06
     3490 F406 
0375 3492 1020            byte 16,32,>8c,>06
     3494 8C06 
0376               sprite_attrs_red_rocket_1:
0377 3496 0000            data 0
0378 3498 000D            data 13
0379 349A 0002            data 2
0380 349C 0000            byte 0,0,>a8,>08
     349E A808 
0381 34A0 0010            byte 0,16,>9c,>08
     34A2 9C08 
0382               sprite_attrs_red_rocket_2:
0383 34A4 0000            data 0
0384 34A6 000D            data 13
0385 34A8 0002            data 2
0386 34AA 0000            byte 0,0,>a8,>08
     34AC A808 
0387 34AE F810            byte -8,16,>ac,>08
     34B0 AC08 
0388               sprite_attrs_red_bullet_2:
0389 34B2 0006            data 6                          ; cx
0390 34B4 0005            data 5                          ; cy
0391 34B6 0001            data 1                          ; n sprites
0392 34B8 0000            byte 0,0,>fc,>24
     34BA FC24 
0393               sprite_attrs_satellite:
0394 34BC 0008            data 8                          ; cx
0395 34BE 0014            data 20                         ; cy
0396 34C0 0004            data 4                          ; n sprites
0397 34C2 0000            byte 0,0,>a0,>0a
     34C4 A00A 
0398 34C6 0010            byte 0,16,>a4,>0a
     34C8 A40A 
0399 34CA 1000            byte 16,0,>a8,>0a
     34CC A80A 
0400 34CE 1010            byte 16,16,>ac,>0a
     34D0 AC0A 
0401               sprite_attrs_end:
0402                      equ  $
**** **** ****     > gpu.a99
0371               *      Walls
0372                      copy "walls.a99"
**** **** ****     > walls.a99
0001               wall_x:
0002                      equ  0
0003               wall_height:
0004                      equ  2
0005               wall_size:
0006                      equ  4
0007               
0008               walls:                                 ; Must match order of @sub_levels
0009 34D2 0008            data walls_1-$
0010 34D4 0004            data walls_0-$
0011 34D6 000E            data walls_2-$
0012               walls_0:
0013 34D8 0000            data 0
0014               walls_1:
0015 34DA 00E4            data 228,56
     34DC 0038 
0016 34DE 06E4            data 1764,56
     34E0 0038 
0017 34E2 0000            data 0
0018               walls_2:
0019 34E4 00E4            data 228,56
     34E6 0038 
0020 34E8 01E4            data 484,24
     34EA 0018 
0021 34EC 02F4            data 756,40
     34EE 0028 
0022 34F0 04E4            data 1252,24
     34F2 0018 
0023 34F4 05F4            data 1524,40
     34F6 0028 
0024 34F8 07E4            data 2020,24
     34FA 0018 
0025 34FC 0000            data 0
0026               
0027               cpu_walls_0:
0028                      equ  gpu_program_start+(walls_0-gpu_prg)
0029               cpu_walls_1:
0030                      equ  gpu_program_start+(walls_1-gpu_prg)
0031               cpu_walls_2:
0032                      equ  gpu_program_start+(walls_2-gpu_prg)
0033               
**** **** ****     > gpu.a99
0373                      aorg
0374               gpu_program_end:
0375                      equ  $
0376               *// gpu_program
**** **** ****     > zqx-one.a99
1947                      copy "vdp.a99"
**** **** ****     > vdp.a99
0001               *********************************************************************
0002               *
0003               * VDP Write To Register
0004               *
0005               * R0 MSB: VDP register to write to
0006               * R0 LSB: Value to write
0007               *
0008               vwtr:
0009 34FE 06C0  14        swpb r0
0010 3500 D800  38        movb r0,@vdpwa                  ; Send low byte (value) to write to VDP register
     3502 8C02 
0011 3504 06C0  14        swpb r0
0012 3506 0260  22        ori  r0,>8000                   ; Set up a VDP register write operation (10)
     3508 8000 
0013 350A D800  38        movb r0,@vdpwa                  ; Send high byte (address) of VDP register
     350C 8C02 
0014 350E 045B  20        rt
0015               *// vwtr
0016               
0017               *********************************************************************
0018               *
0019               * VDP Set Write Address
0020               *
0021               * R0: Write address in VDP RAM
0022               *
0023               vwad:
0024 3510 06C0  14        swpb r0
0025 3512 D800  38        movb r0,@vdpwa                  ; Send low byte of VDP RAM write address
     3514 8C02 
0026 3516 06C0  14        swpb r0
0027 3518 0260  22        ori  r0,>4000                   ; Set read/write bits 14 and 15 to write (01)
     351A 4000 
0028 351C D800  38        movb r0,@vdpwa                  ; Send high byte of VDP RAM write address
     351E 8C02 
0029 3520 045B  20        rt
0030               *// vwad
0031               
0032               *********************************************************************
0033               *
0034               * VDP Single Byte Write
0035               *
0036               * R0: Write address in VDP RAM
0037               * R1: MSB of R1 sent to VDP RAM
0038               *
0039               vsbw:
0040 3522 06C0  14        swpb r0
0041 3524 D800  38        movb r0,@vdpwa                  ; Send low byte of VDP RAM write address
     3526 8C02 
0042 3528 06C0  14        swpb r0
0043 352A 0260  22        ori  r0,>4000                   ; Set read/write bits 14 and 15 to write (01)
     352C 4000 
0044 352E D800  38        movb r0,@vdpwa                  ; Send high byte of VDP RAM write address
     3530 8C02 
0045 3532 D7C1  30        movb r1,*r15                    ; Write byte to VDP RAM
0046 3534 045B  20        rt
0047               *// vsbw
0048               
0049               *********************************************************************
0050               *
0051               * VDP Single Word Write
0052               *
0053               * R0: Write address in VDP RAM
0054               * R1: Value to write VDP RAM
0055               *
0056               vsww:
0057 3536 06C0  14        swpb r0
0058 3538 D800  38        movb r0,@vdpwa                  ; Send low byte of VDP RAM write address
     353A 8C02 
0059 353C 06C0  14        swpb r0
0060 353E 0260  22        ori  r0,>4000                   ; Set read/write bits 14 and 15 to write (01)
     3540 4000 
0061 3542 D800  38        movb r0,@vdpwa                  ; Send high byte of VDP RAM write address
     3544 8C02 
0062 3546 D7C1  30        movb r1,*r15                    ; Write byte to VDP RAM
0063 3548 06C1  14        swpb r1
0064 354A D7C1  30        movb r1,*r15
0065 354C 06C1  14        swpb r1
0066 354E 045B  20        rt
0067               *// vsww
0068               
0069               *********************************************************************
0070               *
0071               * VDP multiple Byte Write
0072               *
0073               * R0: Write address in VDP RAM
0074               * R1: Starting read address in CPU RAM
0075               * R2: Number of bytes to send
0076               *
0077               vmbw:
0078 3550 D820  54        movb  @r0lb,@vdpwa              ; Send low byte of VDP RAM write address
     3552 8301 
     3554 8C02 
0079 3556 0260  22        ori  r0,>4000                   ; Set read/write bits 14 and 15 to write (01)
     3558 4000 
0080 355A D800  38        movb r0,@vdpwa                  ; Send high byte of VDP RAM write address
     355C 8C02 
0081               vmbw_1:
0082 355E D7F1  40        movb *r1+,*r15                  ; Write byte to VDP RAM
0083 3560 D7F1  40        movb *r1+,*r15                  ; Write byte to VDP RAM
0084 3562 0642  14        dect r2
0085 3564 15FC  14        jgt  vmbw_1
0086 3566 045B  20        rt
0087               *// vmbw
0088               
0089               *********************************************************************
0090               *
0091               * VDP Single Byte Multiple Write
0092               *
0093               * R0: Write address in VDP RAM
0094               * R1: MSB of R1 sent to VDP RAM
0095               * R2: Number of bytes to write to VDP RAM
0096               *
0097               vsmw:
0098 3568 D820  54        movb  @r0lb,@vdpwa              ; Send low byte of VDP RAM write address
     356A 8301 
     356C 8C02 
0099 356E 0260  22        ori  r0,>4000                   ; Set read/write bits 14 and 15 to write (01)
     3570 4000 
0100 3572 D800  38        movb r0,@vdpwa                  ; Send high byte of VDP RAM write address
     3574 8C02 
0101               vsmw_1:
0102 3576 D7C1  30        movb r1,*r15                    ; Write byte to VDP RAM
0103 3578 0602  14        dec  r2                         ; Byte counter
0104 357A 16FD  14        jne  vsmw_1
0105 357C 045B  20        rt
0106               *// vsmw
0107               
0108               *********************************************************************
0109               *
0110               * VDP Clear
0111               *
0112               * R0: Write address in VDP RAM
0113               * R2: Number of bytes to clear in VDP RAM (multiple of 4)
0114               *
0115               vclr:
0116 357E D820  54        movb  @r0lb,@vdpwa              ; Send low byte of VDP RAM write address
     3580 8301 
     3582 8C02 
0117 3584 0260  22        ori  r0,>4000                   ; Set read/write bits 14 and 15 to write (01)
     3586 4000 
0118 3588 D800  38        movb r0,@vdpwa                  ; Send high byte of VDP RAM write address
     358A 8C02 
0119 358C 0922  56        srl  r2,2
0120               vclr_1:
0121 358E 04DF  26        clr  *r15
0122 3590 04DF  26        clr  *r15
0123 3592 04DF  26        clr  *r15
0124 3594 04DF  26        clr  *r15
0125 3596 0602  14        dec  r2                         ; Byte counter
0126 3598 16FA  14        jne  vclr_1
0127 359A 045B  20        rt
0128               *// vclr
0129               
0130               *********************************************************************
0131               *
0132               * VDP Set Read Address
0133               *
0134               * R0: Read address in VDP RAM
0135               *
0136               vrad:
0137 359C 06C0  14        swpb r0
0138 359E D800  38        movb r0,@vdpwa                  ; Send low byte of VDP RAM read address
     35A0 8C02 
0139 35A2 06C0  14        swpb r0
0140 35A4 D800  38        movb r0,@vdpwa                  ; Send high byte of VDP RAM read address
     35A6 8C02 
0141 35A8 045B  20        rt
0142               *// vrad
0143               
0144               *********************************************************************
0145               *
0146               * VDP Single Byte Read
0147               *
0148               * R0:  Read address in VDP RAM
0149               * R1:  MSB of R1 set to byte from VDP RAM
0150               *
0151               vsbr:
0152 35AA 06C0  14        swpb r0
0153 35AC D800  38        movb r0,@vdpwa                  ; Send low byte of VDP RAM read address
     35AE 8C02 
0154 35B0 06C0  14        swpb r0
0155 35B2 D800  38        movb r0,@vdpwa                  ; Send high byte of VDP RAM read address
     35B4 8C02 
0156 35B6 1000  14        nop
0157 35B8 D060  34        movb @vdprd,r1                  ; Read byte from VDP RAM
     35BA 8800 
0158 35BC 045B  20        rt
0159               *// vsbr
0160               
0161               *********************************************************************
0162               *
0163               * VDP Multiple Byte Read
0164               *
0165               * R0: Starting read address in VDP RAM
0166               * R1: Starting write address in CPU RAM
0167               * R2: Number of bytes to read from VDP RAM
0168               *
0169               * Modifies R0-R2
0170               *
0171               vmbr:
0172 35BE D820  54        movb  @r0lb,@vdpwa              ; Send low byte of VDP RAM read address
     35C0 8301 
     35C2 8C02 
0173 35C4 0240  22        andi r0,>3fff                   ; Set read/write bits 14 and 15 to read (00)
     35C6 3FFF 
0174 35C8 D800  38        movb r0,@vdpwa                  ; Send high byte of VDP RAM read address
     35CA 8C02 
0175 35CC 0200  20        li   r0,vdprd
     35CE 8800 
0176               vmbr_1:
0177 35D0 DC50  40        movb *r0,*r1+                   ; Read byte from VDP RAM
0178 35D2 0602  14        dec  r2                         ; Byte counter
0179 35D4 16FD  14        jne  vmbr_1                     ; Check if finished
0180 35D6 045B  20        rt
0181               *// vmbr
0182               
**** **** ****     > zqx-one.a99
1948                      copy "sprite-handlers.a99"
**** **** ****     > sprite-handlers.a99
0001               **
0002               * A handler is called when the sprite is created,
0003               * and each time the sprite is moved.
0004               *
0005               * Parameters for all handlers:
0006               * r4 points to the sprite
0007               *
0008               
0009               *********************************************************************
0010               *
0011               * Plane handler
0012               *
0013               plane_handler:
0014 35D8 C020  34        mov  @player_died,r0
     35DA 8378 
0015 35DC 1307  14        jeq  plane_handler_1
0016 35DE 0200  20        li   r0,sprite_type_player_explosion_center
     35E0 CE9C 
0017 35E2 C900  38        mov  r0,@sprite_type(r4)
     35E4 0000 
0018 35E6 0724  34        seto @sprite_counter(r4)
     35E8 0008 
0019 35EA 1006  14        jmp  plane_handler_2
0020               plane_handler_1:
0021 35EC 8820  54        c    @scroll_pos,@scroll_max
     35EE 8358 
     35F0 835E 
0022 35F2 1302  14        jeq  plane_handler_2
0023 35F4 05A4  34        inc  @sprite_x(r4)
     35F6 0004 
0024               plane_handler_2:
0025 35F8 045B  20        rt
0026               *// plane_handler
0027               
0028               *********************************************************************
0029               *
0030               * Shadow handler
0031               *
0032               shadow_handler:
0033 35FA C020  34        mov  @player_died,r0
     35FC 8378 
0034 35FE 1619  14        jne  shadow_handler_2
0035 3600 C160  34        mov  @player_sprite,r5
     3602 8372 
0036 3604 C025  34        mov  @sprite_x(r5),r0
     3606 0004 
0037 3608 C900  38        mov  r0,@sprite_x(r4)
     360A 0004 
0038 360C C925  54        mov  @sprite_y(r5),@sprite_y(r4)
     360E 0002 
     3610 0002 
0039 3612 8820  54        c    @sub_level_data,@sub_level_0_data
     3614 837E 
     3616 A200 
0040 3618 130C  14        jeq  shadow_handler_2
0041 361A C060  34        mov  @walls_ptr,r1
     361C 8380 
0042               shadow_handler_1:
0043 361E C0B1  30        mov  *r1+,r2                    ; Get wall x
0044 3620 130B  14        jeq  shadow_handler_3           ; Show
0045 3622 6080  18        s    r0,r2                      ; Wall x - player x
0046 3624 0282  22        ci   r2,16
     3626 0010 
0047 3628 1507  14        jgt  shadow_handler_3           ; Show
0048 362A A0B1  30        a    *r1+,r2                    ; Add wall height
0049 362C 0282  22        ci   r2,-8
     362E FFF8 
0050 3630 11F6  14        jlt  shadow_handler_1
0051               shadow_handler_2:
0052               *      Hide
0053 3632 0724  34        seto  @sprite_z(r4)
     3634 0006 
0054 3636 045B  20        rt
0055               shadow_handler_3:
0056               *      Show
0057 3638 04E4  34        clr  @sprite_z(r4)
     363A 0006 
0058 363C 045B  20        rt
0059               *// shadow_handler
0060               
0061               *********************************************************************
0062               *
0063               * Green bullet handler
0064               *
0065               green_bullet_handler:
0066 363E C024  34        mov  @sprite_x(r4),r0
     3640 0004 
0067 3642 C064  34        mov  @sprite_y(r4),r1
     3644 0002 
0068 3646 A040  18        a    r0,r1
0069 3648 6060  34        s    @scroll_pos,r1
     364A 8358 
0070 364C 0281  22        ci   r1,240
     364E 00F0 
0071 3650 1505  14        jgt  green_bullet_handler_2
0072               green_bullet_handler_1:
0073 3652 0220  22        ai   r0,8
     3654 0008 
0074 3656 C900  38        mov  r0,@sprite_x(r4)
     3658 0004 
0075 365A 1002  14        jmp  green_bullet_handler_3
0076               green_bullet_handler_2:
0077 365C 04E4  34        clr  @sprite_type(r4)
     365E 0000 
0078               green_bullet_handler_3:
0079 3660 045B  20        rt
0080               *// green_bullet_handler
0081               
0082               *********************************************************************
0083               *
0084               * Rocker launch handler
0085               *
0086               rocket_launch_handler:
0001 3662 CE8B  34        mov  r11,*r10+
0088 3664 05A4  34        inc  @sprite_counter(r4)
     3666 0008 
0089 3668 C024  34        mov  @sprite_counter(r4),r0
     366A 0008 
0090 366C 0280  22        ci   r0,64
     366E 0040 
0091 3670 1615  14        jne  rocket_launch_handler_1
0092               *      Create rocket
0001 3672 CE84  34        mov  R4,*r10+
0094 3674 06A0  32        bl   @allocate_sprite
     3676 2564 
0095 3678 C144  18        mov  r4,r5
0001 367A 064A  14        dect r10
0002 367C C11A  26        mov  *r10,R4
0097 367E C145  18        mov  r5,r5
0098 3680 131D  14        jeq  rocket_launch_handler_5
0099 3682 0200  20        li   r0,sprite_type_green_rocket_1
     3684 CD54 
0100 3686 C940  38        mov  r0,@sprite_type(r5)
     3688 0000 
0101 368A 06A0  32        bl   @align_sprites
     368C 259C 
0102 368E 05E5  34        inct @sprite_x(r5)
     3690 0004 
0103 3692 0665  34        dect @sprite_y(r5)
     3694 0002 
0104 3696 0725  34        seto @sprite_counter(r5)
     3698 0008 
0105 369A 1010  14        jmp  rocket_launch_handler_5
0106               rocket_launch_handler_1:
0107 369C 0280  22        ci   r0,128
     369E 0080 
0108 36A0 1603  14        jne  rocket_launch_handler_2
0109 36A2 04E4  34        clr  @sprite_type(r4)
     36A4 0000 
0110 36A6 100A  14        jmp  rocket_launch_handler_5
0111               rocket_launch_handler_2:
0112 36A8 0240  22        andi r0,>0010
     36AA 0010 
0113 36AC 1603  14        jne  rocket_launch_handler_3
0114 36AE 0200  20        li   r0,sprite_type_rocket_launch_1
     36B0 CD64 
0115 36B2 1002  14        jmp  rocket_launch_handler_4
0116               rocket_launch_handler_3:
0117 36B4 0200  20        li   r0,sprite_type_rocket_launch_2
     36B6 CD6C 
0118               rocket_launch_handler_4:
0119 36B8 C900  38        mov  r0,@sprite_type(r4)
     36BA 0000 
0120               rocket_launch_handler_5:
0001 36BC 064A  14        dect r10
0002 36BE C2DA  26        mov  *r10,r11
0003 36C0 045B  20        b    *r11
0122               *// rocket_launch_handler
0123               
0124               *********************************************************************
0125               *
0126               * Green rocket handler
0127               *
0128               green_rocket_handler:
0129 36C2 05A4  34        inc  @sprite_z(r4)
     36C4 0006 
0130 36C6 05A4  34        inc  @sprite_counter(r4)
     36C8 0008 
0131 36CA C024  34        mov  @sprite_counter(r4),r0
     36CC 0008 
0132 36CE 0280  22        ci   r0,80
     36D0 0050 
0133 36D2 1605  14        jne  green_rocket_handler_1
0134 36D4 0724  34        seto @sprite_counter(r4)
     36D6 0008 
0135 36D8 0200  20        li   r0,sprite_type_small_explosion
     36DA CD9C 
0136 36DC 1008  14        jmp  green_rocket_handler_3
0137               green_rocket_handler_1:
0138 36DE 0240  22        andi r0,>0008
     36E0 0008 
0139 36E2 1603  14        jne  green_rocket_handler_2
0140 36E4 0200  20        li   r0,sprite_type_green_rocket_1
     36E6 CD54 
0141 36E8 1002  14        jmp  green_rocket_handler_3
0142               green_rocket_handler_2:
0143 36EA 0200  20        li   r0,sprite_type_green_rocket_2
     36EC CD5C 
0144               green_rocket_handler_3:
0145 36EE C900  38        mov  r0,@sprite_type(r4)
     36F0 0000 
0146 36F2 045B  20        rt
0147               *// green_rocket_handler
0148               
0149               *********************************************************************
0150               *
0151               * Small explosion handler
0152               *
0153               small_explosion_handler:
0001 36F4 CE8B  34        mov  r11,*r10+
0155 36F6 05A4  34        inc  @sprite_counter(r4)
     36F8 0008 
0156 36FA C024  34        mov  @sprite_counter(r4),r0
     36FC 0008 
0157 36FE 0280  22        ci   r0,16
     3700 0010 
0158 3702 1106  14        jlt  small_explosion_1
0159               *      Done
0160 3704 04E4  34        clr  @sprite_type(r4)
     3706 0000 
0161 3708 0200  20        li   r0,10
     370A 000A 
0162 370C 06A0  32        bl   @add_score
     370E 2B90 
0163               small_explosion_1:
0001 3710 064A  14        dect r10
0002 3712 C2DA  26        mov  *r10,r11
0003 3714 045B  20        b    *r11
0165               *// small_explosion_handler
0166               
0167               *********************************************************************
0168               *
0169               * Shield handler
0170               *
0171               shield_handler:
0001 3716 CE8B  34        mov  r11,*r10+
0173 3718 05A4  34        inc  @sprite_counter(r4)
     371A 0008 
0174 371C C024  34        mov  @sprite_counter(r4),r0
     371E 0008 
0175 3720 C040  18        mov  r0,r1
0176 3722 0240  22        andi r0,3                       ; Four positions of sprite
     3724 0003 
0177 3726 0A50  56        sla  r0,5                       ; * 32
0178 3728 0220  22        ai   r0,72                      ; Start y
     372A 0048 
0179 372C C900  38        mov  r0,@sprite_y(r4)
     372E 0002 
0180 3730 0241  22        andi r1,15
     3732 000F 
0181 3734 1602  14        jne  shield_handler_1
0182 3736 06A0  32        bl   @play_shield
     3738 A03E 
0183               shield_handler_1:
0001 373A 064A  14        dect r10
0002 373C C2DA  26        mov  *r10,r11
0003 373E 045B  20        b    *r11
0185               *// shield_handler
0186               
0187               *********************************************************************
0188               *
0189               * Explosion handler
0190               *
0191               explosion_handler:
0001 3740 CE8B  34        mov  r11,*r10+
0193 3742 05A4  34        inc  @sprite_counter(r4)
     3744 0008 
0194 3746 C024  34        mov  @sprite_counter(r4),r0
     3748 0008 
0195 374A 0280  22        ci   r0,32
     374C 0020 
0196 374E 1A15  14        jl   explosion_handler_1
0197 3750 0724  34        seto @sprite_counter(r4)
     3752 0008 
0198               *      Determine and add score
0199 3754 06A0  32        bl   @rand
     3756 2BD2 
0200 3758 0280  22        ci   r0,>e000
     375A E000 
0201 375C 1B07  14        jh   explosion_handler_0
0202 375E 0200  20        li   r0,10
     3760 000A 
0203 3762 06A0  32        bl   @add_score
     3764 2B90 
0204 3766 0200  20        li   r0,sprite_type_debris
     3768 CDB4 
0205 376A 100F  14        jmp  explosion_handler_3
0206               explosion_handler_0:
0207 376C 0200  20        li   r0,50
     376E 0032 
0208 3770 06A0  32        bl   @add_score
     3772 2B90 
0209 3774 0200  20        li   r0,sprite_type_debris_500
     3776 CDBC 
0210 3778 1008  14        jmp  explosion_handler_3
0211               *      Set explosion pattern
0212               explosion_handler_1:
0213 377A 0240  22        andi r0,>0008
     377C 0008 
0214 377E 1603  14        jne  explosion_handler_2
0215 3780 0200  20        li   r0,sprite_type_explosion_1
     3782 CD8C 
0216 3784 1002  14        jmp  explosion_handler_3
0217               explosion_handler_2:
0218 3786 0200  20        li   r0,sprite_type_explosion_2
     3788 CD94 
0219               explosion_handler_3:
0220 378A C900  38        mov  r0,@sprite_type(r4)
     378C 0000 
0001 378E 064A  14        dect r10
0002 3790 C2DA  26        mov  *r10,r11
0003 3792 045B  20        b    *r11
0222               *// explosion_handler
0223               
0224               *********************************************************************
0225               *
0226               * Debris handler
0227               *
0228               debris_handler:
0229 3794 05A4  34        inc  @sprite_counter(r4)
     3796 0008 
0230 3798 C024  34        mov  @sprite_counter(r4),r0
     379A 0008 
0231 379C 0280  22        ci   r0,64
     379E 0040 
0232 37A0 1102  14        jlt  debris_handler_1
0233 37A2 04E4  34        clr  @sprite_type(r4)
     37A4 0000 
0234               debris_handler_1:
0235 37A6 045B  20        rt
0236               *// debris_handler
0237               
0238               *********************************************************************
0239               *
0240               * Blue gun handler
0241               *
0242               blue_gun_handler:
0001 37A8 CE8B  34        mov  r11,*r10+
0244 37AA C024  34        mov  @sprite_counter(r4),r0
     37AC 0008 
0245 37AE 1115  14        jlt  blue_gun_handler_0
0246 37B0 0624  34        dec  @sprite_counter(r4)
     37B2 0008 
0247 37B4 1518  14        jgt  blue_gun_handler_1
0248               *      Create bullet
0001 37B6 CE84  34        mov  R4,*r10+
0250 37B8 06A0  32        bl   @allocate_sprite
     37BA 2564 
0251 37BC C144  18        mov  r4,r5
0001 37BE 064A  14        dect r10
0002 37C0 C11A  26        mov  *r10,R4
0253 37C2 C145  18        mov  r5,r5
0254 37C4 1310  14        jeq  blue_gun_handler_1
0255 37C6 0200  20        li   r0,sprite_type_red_bullet
     37C8 CDCC 
0256 37CA C940  38        mov  r0,@sprite_type(r5)
     37CC 0000 
0257 37CE 06A0  32        bl   @align_sprites
     37D0 259C 
0258 37D2 0200  20        li   r0,24
     37D4 0018 
0259 37D6 6940  38        s    r0,@sprite_x(r5)
     37D8 0004 
0260               blue_gun_handler_0:
0261 37DA 06A0  32        bl   @rand
     37DC 2BD2 
0262 37DE 0240  22        andi r0,>ff
     37E0 00FF 
0263 37E2 C900  38        mov  r0,@sprite_counter(r4)
     37E4 0008 
0264               blue_gun_handler_1:
0001 37E6 064A  14        dect r10
0002 37E8 C2DA  26        mov  *r10,r11
0003 37EA 045B  20        b    *r11
0266               *// blue_gun_handler
0267               
0268               *********************************************************************
0269               *
0270               * Red bullet handler
0271               *
0272               red_bullet_handler:
0273 37EC 0624  34        dec  @sprite_x(r4)
     37EE 0004 
0274 37F0 045B  20        rt
0275               *// red_bullet_handler
0276               
0277               *********************************************************************
0278               *
0279               * Green gun handler
0280               *
0281               green_gun_handler:
0001 37F2 CE8B  34        mov  r11,*r10+
0283 37F4 C024  34        mov  @sprite_counter(r4),r0
     37F6 0008 
0284 37F8 1123  14        jlt  green_gun_handler_0
0285 37FA 0624  34        dec  @sprite_counter(r4)
     37FC 0008 
0286 37FE 1526  14        jgt  green_gun_handler_1
0287               *      Create bullet
0001 3800 CE84  34        mov  R4,*r10+
0289 3802 06A0  32        bl   @allocate_sprite
     3804 2564 
0290 3806 C144  18        mov  r4,r5
0001 3808 064A  14        dect r10
0002 380A C11A  26        mov  *r10,R4
0292 380C C145  18        mov  r5,r5
0293 380E 131E  14        jeq  green_gun_handler_1
0294 3810 0200  20        li   r0,sprite_type_red_bullet_2
     3812 CE94 
0295 3814 C940  38        mov  r0,@sprite_type(r5)
     3816 0000 
0296 3818 0725  34        seto @sprite_counter(r5)
     381A 0008 
0297 381C 06A0  32        bl   @align_sprites
     381E 259C 
0298 3820 C024  34        mov  @sprite_type(r4),r0
     3822 0000 
0299 3824 0280  22        ci   r0,sprite_type_green_gun
     3826 CD3C 
0300 3828 1605  14        jne  green_gun_handler_2
0301               *      Green gun shooting up
0302 382A 0200  20        li   r0,24
     382C 0018 
0303 382E 6940  38        s    r0,@sprite_y(r5)
     3830 0002 
0304 3832 1006  14        jmp  green_gun_handler_0
0305               green_gun_handler_2:
0306               *      Green gun 2 shooting down
0307 3834 0200  20        li   r0,24
     3836 0018 
0308 3838 A940  38        a    r0,@sprite_y(r5)
     383A 0002 
0309 383C 0525  36        neg  @sprite_counter(r5)
     383E 0008 
0310               green_gun_handler_0:
0311 3840 06A0  32        bl   @rand
     3842 2BD2 
0312 3844 0240  22        andi r0,>ff
     3846 00FF 
0313 3848 C900  38        mov  r0,@sprite_counter(r4)
     384A 0008 
0314               green_gun_handler_1:
0001 384C 064A  14        dect r10
0002 384E C2DA  26        mov  *r10,r11
0003 3850 045B  20        b    *r11
0316               *// green_gun_handler
0317               
0318               *********************************************************************
0319               *
0320               * Red bullet 2 handler (y direction)
0321               *
0322               red_bullet_2_handler:
0323 3852 A924  54        a  @sprite_counter(r4),@sprite_y(r4)
     3854 0008 
     3856 0002 
0324 3858 045B  20        rt
0325               *// red_bullet_2_handler
0326               
0327               *********************************************************************
0328               *
0329               * Blue plane handler
0330               *
0331               blue_plane_handler:
0001 385A CE8B  34        mov  r11,*r10+
0333               *      Move
0334 385C C024  34        mov  @sprite_counter(r4),r0     ; Direction
     385E 0008 
0335 3860 C064  34        mov  @sprite_z(r4),r1
     3862 0006 
0336 3864 C081  18        mov  r1,r2
0337 3866 A040  18        a    r0,r1                      ; Add direction to z
0338 3868 1106  14        jlt  blue_plane_handler_1       ; Check bounds
0339 386A 0281  22        ci   r1,player_z_max
     386C 0047 
0340 386E 1403  14        jhe  blue_plane_handler_1
0341 3870 C901  38        mov  r1,@sprite_z(r4)           ; Update z
     3872 0006 
0342 3874 1002  14        jmp  blue_plane_handler_2
0343               blue_plane_handler_1:
0344 3876 0524  36        neg  @sprite_counter(r4)        ; Change direction
     3878 0008 
0345               blue_plane_handler_2:
0346               *      Set pattern
0347 387A 0242  22        andi r2,>30
     387C 0030 
0348 387E 0932  56        srl  r2,3
0349 3880 C000  18        mov  r0,r0
0350 3882 1103  14        jlt  blue_plane_handler_3
0351 3884 C062  34        mov  @blue_plane_sprite_types_up(r2),r1
     3886 38C6 
0352 3888 1002  14        jmp  blue_plane_handler_4
0353               blue_plane_handler_3:
0354 388A C062  34        mov  @blue_plane_sprite_types_down(r2),r1
     388C 38CE 
0355               blue_plane_handler_4:
0356 388E C901  38        mov  r1,@sprite_type(r4)
     3890 0000 
0357               *      Check for fire
0358 3892 06A0  32        bl   @rand
     3894 2BD2 
0359 3896 0240  22        andi r0,>003f
     3898 003F 
0360 389A 1612  14        jne  blue_plane_handler_5
0361               *      Create bullet
0001 389C CE84  34        mov  R4,*r10+
0363 389E 06A0  32        bl   @allocate_sprite
     38A0 2564 
0364 38A2 C144  18        mov  r4,r5
0001 38A4 064A  14        dect r10
0002 38A6 C11A  26        mov  *r10,R4
0366 38A8 C145  18        mov  r5,r5
0367 38AA 130A  14        jeq  blue_plane_handler_5
0368 38AC 0200  20        li   r0,sprite_type_red_bullet
     38AE CDCC 
0369 38B0 C940  38        mov  r0,@sprite_type(r5)
     38B2 0000 
0370 38B4 06A0  32        bl   @align_sprites
     38B6 259C 
0371 38B8 0200  20        li   r0,24
     38BA 0018 
0372 38BC 6940  38        s    r0,@sprite_x(r5)
     38BE 0004 
0373               blue_plane_handler_5:
0001 38C0 064A  14        dect r10
0002 38C2 C2DA  26        mov  *r10,r11
0003 38C4 045B  20        b    *r11
0375               blue_plane_sprite_types_up:
0376 38C6 CE44            data sprite_type_blue_plane_up_xs
0377 38C8 CE3C            data sprite_type_blue_plane_up_s
0378 38CA CE34            data sprite_type_blue_plane_up_m
0379 38CC CE2C            data sprite_type_blue_plane_up_l
0380               blue_plane_sprite_types_down:
0381 38CE CE64            data sprite_type_blue_plane_down_xs
0382 38D0 CE5C            data sprite_type_blue_plane_down_s
0383 38D2 CE54            data sprite_type_blue_plane_down_m
0384 38D4 CE4C            data sprite_type_blue_plane_down_l
0385               *// blue_plane_handler
0386               
0387               *********************************************************************
0388               *
0389               * Boss handler
0390               *
0391               boss_handler:
0001 38D6 CE8B  34        mov  r11,*r10+
0393 38D8 C024  34        mov  @sprite_counter(r4),r0
     38DA 0008 
0394 38DC 1125  14        jlt  boss_handler_1
0395               *      Count down to move
0396 38DE 0624  34        dec  @sprite_counter(r4)
     38E0 0008 
0397 38E2 1632  14        jne  boss_handler_3
0398               *      Move
0399 38E4 C020  34        mov  @boss_active,r0            ; Also determines direction
     38E6 8390 
0400 38E8 1514  14        jgt  boss_handler_6
0401               *      Move forward
0402 38EA C024  34        mov  @sprite_x(r4),r0
     38EC 0004 
0403 38EE 0280  22        ci   r0,boss_start_x-128
     38F0 08E0 
0404 38F2 1202  14        jle  boss_handler_5
0405 38F4 0624  34        dec  @sprite_x(r4)
     38F6 0004 
0406               boss_handler_5:
0407 38F8 C160  34        mov  @player_sprite,r5
     38FA 8372 
0408 38FC C025  34        mov  @sprite_y(r5),r0
     38FE 0002 
0409 3900 6024  34        s    @sprite_y(r4),r0
     3902 0002 
0410 3904 1303  14        jeq  boss_handler_4
0411 3906 0700  14        seto r0
0412 3908 1101  14        jlt  boss_handler_4
0413 390A 0500  16        neg  r0
0414               boss_handler_4:
0415 390C A900  38        a    r0,@sprite_y(r4)
     390E 0002 
0416 3910 1015  14        jmp  boss_handler_2
0417               *      Move backward
0418               boss_handler_6:
0419 3912 C024  34        mov  @sprite_x(r4),r0
     3914 0004 
0420 3916 0280  22        ci   r0,boss_start_x
     3918 0960 
0421 391A 1B03  14        jh   boss_handler_7
0422 391C 05A4  34        inc  @sprite_x(r4)
     391E 0004 
0423 3920 100D  14        jmp  boss_handler_2
0424               *      Reset counter for next move
0425               boss_handler_7:
0426 3922 04E0  34        clr  @boss_active
     3924 8390 
0427 3926 100A  14        jmp  boss_handler_2
0428               *      Init
0429               boss_handler_1:
0430 3928 C804  38        mov  r4,@boss_sprite
     392A 8392 
0431 392C 0720  34        seto @boss_active
     392E 8390 
0432 3930 0200  20        li   r0,sprite_patterns_2_bank_select
     3932 601E 
0433 3934 C800  38        mov  r0,@sprite_patterns_bank_select
     3936 8370 
0434 3938 06A0  32        bl   @upload_sprite_patterns
     393A 289E 
0435               boss_handler_2:
0436 393C 0200  20        li   r0,4
     393E 0004 
0437 3940 C900  38        mov  r0,@sprite_counter(r4)
     3942 0008 
0438 3944 06A0  32        bl   @play_boss
     3946 A086 
0439               boss_handler_3:
0001 3948 064A  14        dect r10
0002 394A C2DA  26        mov  *r10,r11
0003 394C 045B  20        b    *r11
0441               *// boss_handler
0442               
0443               *********************************************************************
0444               *
0445               * Boss shadow handler
0446               *
0447               boss_shadow_handler:
0448 394E C160  34        mov  @boss_sprite,r5
     3950 8392 
0449 3952 C925  54        mov  @sprite_x(r5),@sprite_x(r4)
     3954 0004 
     3956 0004 
0450 3958 C925  54        mov  @sprite_y(r5),@sprite_y(r4)
     395A 0002 
     395C 0002 
0451 395E 045B  20        rt
0452               *// boss_shadow_handler
0453               
0454               *********************************************************************
0455               *
0456               * Boss rocket launcher handler
0457               *
0458               boss_rocket_launcher_handler:
0459 3960 C160  34        mov  @boss_sprite,r5
     3962 8392 
0460 3964 C925  54        mov  @sprite_x(r5),@sprite_x(r4)
     3966 0004 
     3968 0004 
0461 396A C025  34        mov  @sprite_y(r5),r0
     396C 0002 
0462 396E 0220  22        ai   r0,22
     3970 0016 
0463 3972 C900  38        mov  r0,@sprite_y(r4)
     3974 0002 
0464 3976 C025  34        mov  @sprite_z(r5),r0
     3978 0006 
0465 397A 0220  22        ai   r0,34
     397C 0022 
0466 397E C900  38        mov  r0,@sprite_z(r4)
     3980 0006 
0467 3982 045B  20        rt
0468               *// boss_rocket_launcher_handler
0469               
0470               *********************************************************************
0471               *
0472               * Red rockets handler
0473               *
0474               red_rocket_fire_time:
0475                      equ  140
0476               *
0477               red_rocket_handler:
0001 3984 CE8B  34        mov  r11,*r10+
0479 3986 C024  34        mov  @sprite_counter(r4),r0
     3988 0008 
0480 398A 1141  14        jlt  red_rocket_handler_4
0481 398C 0580  14        inc  r0
0482 398E C900  38        mov  r0,@sprite_counter(r4)
     3990 0008 
0483 3992 0280  22        ci   r0,red_rocket_fire_time
     3994 008C 
0484 3996 1126  14        jlt  red_rocket_handler_3
0485 3998 1604  14        jne  red_rocket_handler_1
0486               *      Fire
0487 399A 0200  20        li   r0,sprite_type_red_rocket_2
     399C CE8C 
0488 399E C900  38        mov  r0,@sprite_type(r4)
     39A0 0000 
0489               *      After firing
0490               red_rocket_handler_1:
0491 39A2 0240  22        andi r0,1
     39A4 0001 
0492 39A6 1639  14        jne  red_rocket_handler_5
0493 39A8 0624  34        dec  @sprite_x(r4)
     39AA 0004 
0494               *      Move towards player
0495 39AC C160  34        mov  @player_sprite,r5
     39AE 8372 
0496 39B0 C025  34        mov  @sprite_y(r5),r0           ; Player y
     39B2 0002 
0497 39B4 6024  34        s    @sprite_y(r4),r0           ; Minus rocket y
     39B6 0002 
0498 39B8 1303  14        jeq  red_rocket_handler_2
0499 39BA 0700  14        seto r0                         ; Sign -1 - sets no flags
0500 39BC 1101  14        jlt  red_rocket_handler_2       ; player y - rocket y < 0
0501 39BE 0500  16        neg  r0                         ; If > 0 change sign to 1
0502               red_rocket_handler_2:
0503 39C0 A900  38        a    r0,@sprite_y(r4)
     39C2 0002 
0504               *      Check if past player
0505 39C4 8964  54        c    @sprite_x(r4),@sprite_x(r5)
     39C6 0004 
     39C8 0004 
0506 39CA 1427  14        jhe  red_rocket_handler_5
0507 39CC C020  34        mov  @boss_active,r0
     39CE 8390 
0508 39D0 1524  14        jgt  red_rocket_handler_5
0509 39D2 0520  36        neg  @boss_active
     39D4 8390 
0510 39D6 0200  20        li   r0,boss_bonus_200
     39D8 0014 
0511 39DA C800  38        mov  r0,@boss_bonus
     39DC 8396 
0512 39DE 06A0  32        bl   @add_score
     39E0 2B90 
0513 39E2 101B  14        jmp  red_rocket_handler_5
0514               *      Before firing
0515               red_rocket_handler_3:
0516 39E4 C160  34        mov  @boss_sprite,r5
     39E6 8392 
0517 39E8 C025  34        mov  @sprite_x(r5),r0
     39EA 0004 
0518 39EC 0220  22        ai   r0,-4
     39EE FFFC 
0519 39F0 C900  38        mov  r0,@sprite_x(r4)
     39F2 0004 
0520 39F4 C025  34        mov  @sprite_y(r5),r0
     39F6 0002 
0521 39F8 0220  22        ai   r0,18
     39FA 0012 
0522 39FC C900  38        mov  r0,@sprite_y(r4)
     39FE 0002 
0523 3A00 C025  34        mov  @sprite_z(r5),r0
     3A02 0006 
0524 3A04 0220  22        ai   r0,30
     3A06 001E 
0525 3A08 C900  38        mov  r0,@sprite_z(r4)
     3A0A 0006 
0526 3A0C 1006  14        jmp  red_rocket_handler_5
0527               *      Init
0528               red_rocket_handler_4:
0529 3A0E 0200  20        li   r0,6
     3A10 0006 
0530 3A12 C800  38        mov  r0,@boss_rocket_hits
     3A14 8394 
0531 3A16 04E4  34        clr  @sprite_counter(r4)
     3A18 0008 
0532               red_rocket_handler_5:
0001 3A1A 064A  14        dect r10
0002 3A1C C2DA  26        mov  *r10,r11
0003 3A1E 045B  20        b    *r11
0534               *// red_rocket_handler
0535               
0536               *********************************************************************
0537               *
0538               * Player explosion center handler
0539               *
0540               player_explosion_center_handler:
0001 3A20 CE8B  34        mov  r11,*r10+
0542 3A22 C024  34        mov  @sprite_counter(r4),r0
     3A24 0008 
0543 3A26 1109  14        jlt  player_explosion_center_handler_1
0544 3A28 0580  14        inc  r0
0545 3A2A C900  38        mov  r0,@sprite_counter(r4)
     3A2C 0008 
0546 3A2E 0280  22        ci   r0,24
     3A30 0018 
0547 3A32 161B  14        jne  player_explosion_center_handler_2
0548 3A34 04E4  34        clr  @sprite_type(r4)
     3A36 0000 
0549 3A38 1018  14        jmp  player_explosion_center_handler_2
0550               *      Init
0551               player_explosion_center_handler_1:
0552 3A3A 04E4  34        clr  @sprite_counter(r4)
     3A3C 0008 
0553 3A3E 04C1  14        clr  r1
0554 3A40 0202  20        li   r2,6
     3A42 0006 
0555               player_explosion_center_handler_3:
0001 3A44 CE84  34        mov  R4,*r10+
0557 3A46 06A0  32        bl   @allocate_sprite
     3A48 2564 
0558 3A4A C144  18        mov  r4,r5
0001 3A4C 064A  14        dect r10
0002 3A4E C11A  26        mov  *r10,R4
0560 3A50 C145  18        mov  r5,r5
0561 3A52 130B  14        jeq  player_explosion_center_handler_2
0562 3A54 0200  20        li   r0,sprite_type_player_explosion
     3A56 CEA4 
0563 3A58 C940  38        mov  r0,@sprite_type(r5)
     3A5A 0000 
0564 3A5C C941  38        mov  r1,@sprite_counter(r5)
     3A5E 0008 
0565 3A60 06A0  32        bl   @align_sprites
     3A62 259C 
0566 3A64 0581  14        inc  r1
0567 3A66 0602  14        dec  r2
0568 3A68 16ED  14        jne  player_explosion_center_handler_3
0569               player_explosion_center_handler_2:
0001 3A6A 064A  14        dect r10
0002 3A6C C2DA  26        mov  *r10,r11
0003 3A6E 045B  20        b    *r11
0571               *// player_explosion_center_handler
0572               
0573               *********************************************************************
0574               *
0575               * Player explosion handler
0576               *
0577               player_explosion_handler:
0578 3A70 B920  54        ab   @byte_01,@sprite_counter(r4)
     3A72 3AA8 
     3A74 0008 
0579 3A76 C024  34        mov  @sprite_counter(r4),r0
     3A78 0008 
0580 3A7A 9800  38        cb   r0,@byte_20
     3A7C 3AA9 
0581 3A7E 1411  14        jhe  player_explosion_handler_1
0582 3A80 C040  18        mov  r0,r1
0583 3A82 0920  56        srl  r0,2
0584 3A84 0240  22        andi r0,>0100
     3A86 0100 
0585 3A88 130E  14        jeq  player_explosion_handler_2
0586 3A8A 0241  22        andi r1,>000f
     3A8C 000F 
0587 3A8E 0A31  56        sla  r1,3
0588 3A90 0221  22        ai   r1,player_explosion_velocity_table
     3A92 3AAA 
0589 3A94 A931  50        a    *r1+,@sprite_x(r4)
     3A96 0004 
0590 3A98 A931  50        a    *r1+,@sprite_y(r4)
     3A9A 0002 
0591 3A9C A931  50        a    *r1+,@sprite_z(r4)
     3A9E 0006 
0592 3AA0 1002  14        jmp  player_explosion_handler_2
0593               player_explosion_handler_1:
0594 3AA2 04E4  34        clr  @sprite_type(r4)
     3AA4 0000 
0595               player_explosion_handler_2:
0596 3AA6 045B  20        rt
0597               byte_01:
0598 3AA8 0120            byte >01
0599               byte_20:
0600                      byte >20
0601               player_explosion_velocity_table:
0602 3AAA 0001            data 1,0,0,0
     3AAC 0000 
     3AAE 0000 
     3AB0 0000 
0603 3AB2 FFFF            data -1,0,0,0
     3AB4 0000 
     3AB6 0000 
     3AB8 0000 
0604 3ABA 0000            data 0,1,0,0
     3ABC 0001 
     3ABE 0000 
     3AC0 0000 
0605 3AC2 0000            data 0,-1,0,0
     3AC4 FFFF 
     3AC6 0000 
     3AC8 0000 
0606 3ACA 0000            data 0,0,1,0
     3ACC 0000 
     3ACE 0001 
     3AD0 0000 
0607 3AD2 0000            data 0,0,-1,0
     3AD4 0000 
     3AD6 FFFF 
     3AD8 0000 
0608               *// player_explosion_handler
0609               
0610               *********************************************************************
0611               *
0612               * Satellite handler
0613               *
0614               satellite_handler:
0615 3ADA 0624  34        dec  @sprite_y(r4)
     3ADC 0002 
0616 3ADE 045B  20        rt
0617               *// satellite_handler
0618               
0619               *********************************************************************
0620               *
0621               * Hit handler
0622               *
0623               * Shows a hit on an indestructible item
0624               *
0625               hit_handler:
0626 3AE0 05A4  34        inc  @sprite_counter(r4)
     3AE2 0008 
0627 3AE4 C024  34        mov  @sprite_counter(r4),r0
     3AE6 0008 
0628 3AE8 0280  22        ci   r0,16
     3AEA 0010 
0629 3AEC 1603  14        jne  hit_handler_1
0630 3AEE 04E4  34        clr  @sprite_type(r4)
     3AF0 0000 
0631 3AF2 1007  14        jmp  hit_handler_2
0632               hit_handler_1:
0633 3AF4 0280  22        ci   r0,8
     3AF6 0008 
0634 3AF8 1604  14        jne  hit_handler_2
0635 3AFA 0200  20        li   r0,sprite_type_hit_1
     3AFC CDA4 
0636 3AFE C900  38        mov  r0,@sprite_type(r4)
     3B00 0000 
0637               hit_handler_2:
0638 3B02 045B  20        rt
0639               *// hit_handler
0640               
0641               *********************************************************************
0642               *
0643               * Silo hit handler
0644               *
0645               * r4: bullet sprite
0646               * r5: sprite that's hit
0647               *
0648               * Explode and add fuel
0649               *
0650               silo_hit_handler:
0001 3B04 CE8B  34        mov  r11,*r10+
0652 3B06 06A0  32        bl   @explode_hit_handler
     3B08 3B26 
0653 3B0A C020  34        mov  @fuel,r0
     3B0C 838A 
0654 3B0E 0220  22        ai   r0,2*fuel_unit
     3B10 0080 
0655 3B12 0280  22        ci   r0,fuel_max
     3B14 03FF 
0656 3B16 1202  14        jle  silo_hit_handler_1
0657 3B18 0200  20        li   r0,fuel_max
     3B1A 03FF 
0658               silo_hit_handler_1:
0659 3B1C C800  38        mov   r0,@fuel
     3B1E 838A 
0001 3B20 064A  14        dect r10
0002 3B22 C2DA  26        mov  *r10,r11
0003 3B24 045B  20        b    *r11
0661               *// silo_hit_handler
0662               
0663               *********************************************************************
0664               *
0665               * Explode hit handler
0666               *
0667               * r4: bullet sprite
0668               * r5: sprite that's hit
0669               *
0670               explode_hit_handler:
0001 3B26 CE8B  34        mov  r11,*r10+
0672 3B28 04E4  34        clr  @sprite_type(r4)           ; Remove bullet
     3B2A 0000 
0673 3B2C 0200  20        li   r0,sprite_type_explosion_1
     3B2E CD8C 
0674 3B30 C940  38        mov  r0,@sprite_type(r5)        ; Change sprite that's hit to explosion
     3B32 0000 
0675 3B34 0725  34        seto @sprite_counter(r5)
     3B36 0008 
0676 3B38 06A0  32        bl   @play_explosion_1
     3B3A A09E 
0001 3B3C 064A  14        dect r10
0002 3B3E C2DA  26        mov  *r10,r11
0003 3B40 045B  20        b    *r11
0678               *// explode_hit_handler
0679               
0680               *********************************************************************
0681               *
0682               * Small explode hit handler
0683               *
0684               * r4: bullet sprite
0685               * r5: sprite that's hit
0686               *
0687               small_explode_hit_handler:
0001 3B42 CE8B  34        mov  r11,*r10+
0689 3B44 04E4  34        clr  @sprite_type(r4)           ; Remove bullet
     3B46 0000 
0690 3B48 0200  20        li   r0,sprite_type_small_explosion
     3B4A CD9C 
0691 3B4C C940  38        mov  r0,@sprite_type(r5)        ; Change sprite that's hit to small explosion
     3B4E 0000 
0692 3B50 0725  34        seto @sprite_counter(r5)
     3B52 0008 
0693 3B54 06A0  32        bl   @play_explosion_2
     3B56 A0B2 
0001 3B58 064A  14        dect r10
0002 3B5A C2DA  26        mov  *r10,r11
0003 3B5C 045B  20        b    *r11
0695               *// small_explode_hit_handler
0696               
0697               *********************************************************************
0698               *
0699               * Wall hit handler
0700               *
0701               * r4: bullet sprite
0702               * r5: wall that's hit
0703               *
0704               wall_hit_handler:
0001 3B5E CE8B  34        mov  r11,*r10+
0706 3B60 0200  20        li   r0,sprite_type_hit_2
     3B62 CDAC 
0707 3B64 C900  38        mov  r0,@sprite_type(r4)        ; Change bullet to hit sprite
     3B66 0000 
0708 3B68 0724  34        seto @sprite_counter(r4)
     3B6A 0008 
0709 3B6C 06A0  32        bl   @play_explosion_3
     3B6E A0C6 
0001 3B70 064A  14        dect r10
0002 3B72 C2DA  26        mov  *r10,r11
0003 3B74 045B  20        b    *r11
0711               *// wall_hit_handler
0712               
0713               *********************************************************************
0714               *
0715               * Boss hit handler
0716               *
0717               * r4: bullet sprite
0718               * r5: boss
0719               *
0720               boss_hit_handler:
0721 3B76 0200  20        li   r0,sprite_type_hit_2
     3B78 CDAC 
0722 3B7A C900  38        mov  r0,@sprite_type(r4)        ; Change bullet to hit sprite
     3B7C 0000 
0723 3B7E 0724  34        seto @sprite_counter(r4)
     3B80 0008 
0724 3B82 045B  20        rt
0725               *// boss_hit_handler
0726               
0727               *********************************************************************
0728               *
0729               * Red rocket hit handler
0730               *
0731               * r4: bullet sprite
0732               * r5: rocket
0733               *
0734               boss_bonus_200:
0735                      equ  20
0736               boss_bonus_1000:
0737                      equ  100
0738               *
0739               red_rocket_hit_handler:
0001 3B84 CE8B  34        mov  r11,*r10+
0741 3B86 04E4  34        clr  @sprite_type(r4)
     3B88 0000 
0742 3B8A 0620  34        dec  @boss_rocket_hits
     3B8C 8394 
0743 3B8E 1616  14        jne  red_rocket_hit_handler_3
0744 3B90 C025  34        mov  @sprite_counter(r5),r0
     3B92 0008 
0745 3B94 0280  22        ci   r0,red_rocket_fire_time
     3B96 008C 
0746 3B98 1503  14        jgt  red_rocket_hit_handler_1
0747 3B9A 0200  20        li   r0,boss_bonus_200
     3B9C 0014 
0748 3B9E 1002  14        jmp  red_rocket_hit_handler_2
0749               red_rocket_hit_handler_1:
0750 3BA0 0200  20        li   r0,boss_bonus_1000
     3BA2 0064 
0751               red_rocket_hit_handler_2:
0752 3BA4 C800  38        mov  r0,@boss_bonus
     3BA6 8396 
0753 3BA8 06A0  32        bl   @add_score
     3BAA 2B90 
0754 3BAC 0200  20        li   r0,sprite_type_small_explosion
     3BAE CD9C 
0755 3BB0 C940  38        mov  r0,@sprite_type(r5)
     3BB2 0000 
0756 3BB4 0725  34        seto @sprite_counter(r5)
     3BB6 0008 
0757 3BB8 0520  36        neg  @boss_active
     3BBA 8390 
0758               red_rocket_hit_handler_3:
0001 3BBC 064A  14        dect r10
0002 3BBE C2DA  26        mov  *r10,r11
0003 3BC0 045B  20        b    *r11
0760               *// red_rocket_hit_handler
**** **** ****     > zqx-one.a99
1949               
1950               lower_memory_max:
1951                      equ  $
1952               
1953               ***************************************************************
1954               *
1955               * Upper memory
1956               *
1957                      aorg >a000
1958               
1959                      copy "sound-fx-routines.a99"
**** **** ****     > sound-fx-routines.a99
0001               *********************************************************************
0002               *
0003               * Mute sound
0004               *
0005               mute_sound:
0006 A000 0200  20        li   r0,mute_table              ; Mute all
     A002 A022 
0007 A004 0202  20        li   r2,4
     A006 0004 
0008               mute_sound_1:
0009 A008 D830  48        movb *r0+,@sound
     A00A 8400 
0010 A00C 0602  14        dec  r2
0011 A00E 16FC  14        jne  mute_sound_1
0012 A010 04E0  34        clr  @snd_channel_1
     A012 839E 
0013 A014 04E0  34        clr  @snd_channel_2
     A016 83A4 
0014 A018 04E0  34        clr  @snd_channel_3
     A01A 83AA 
0015 A01C 04E0  34        clr  @snd_channel_4
     A01E 83B0 
0016               *      Return
0017 A020 045B  20        rt
0018               mute_table:
0019 A022 9FBF            byte >9f, >bf, >df, >ff
     A024 DFFF 
0020               *// mute_sound
0021               
0022               *********************************************************************
0023               *
0024               * Play shot
0025               *
0026               play_shot:
0001 A026 CE8B  34        mov  r11,*r10+
0028 A028 0200  20        li   r0,snd_shot
     A02A A0DA 
0029 A02C 0201  20        li   r1,snd_channel_1
     A02E 839E 
0030 A030 0202  20        li   r2,>0020
     A032 0020 
0031 A034 06A0  32        bl   @play_snd
     A036 A104 
0001 A038 064A  14        dect r10
0002 A03A C2DA  26        mov  *r10,r11
0003 A03C 045B  20        b    *r11
0033               *// play_shot
0034               
0035               *********************************************************************
0036               *
0037               * Play shield
0038               *
0039               play_shield:
0001 A03E CE8B  34        mov  r11,*r10+
0041 A040 0200  20        li   r0,snd_shield
     A042 A0E0 
0042 A044 0201  20        li   r1,snd_channel_2
     A046 83A4 
0043 A048 0202  20        li   r2,C4
     A04A 006B 
0044 A04C 06A0  32        bl   @play_snd
     A04E A104 
0001 A050 064A  14        dect r10
0002 A052 C2DA  26        mov  *r10,r11
0003 A054 045B  20        b    *r11
0046               *// play_shield
0047               
0048               *********************************************************************
0049               *
0050               * Play warning
0051               *
0052               play_warning:
0001 A056 CE8B  34        mov  r11,*r10+
0054 A058 0200  20        li   r0,snd_warning
     A05A A0E6 
0055 A05C 0201  20        li   r1,snd_channel_3
     A05E 83AA 
0056 A060 0202  20        li   r2,A4
     A062 007F 
0057 A064 06A0  32        bl   @play_snd
     A066 A104 
0001 A068 064A  14        dect r10
0002 A06A C2DA  26        mov  *r10,r11
0003 A06C 045B  20        b    *r11
0059               *// play_warning
0060               
0061               *********************************************************************
0062               *
0063               * Play extra
0064               *
0065               play_extra:
0001 A06E CE8B  34        mov  r11,*r10+
0067 A070 0200  20        li   r0,snd_extra
     A072 A0EC 
0068 A074 0201  20        li   r1,snd_channel_3
     A076 83AA 
0069 A078 0202  20        li   r2,A5
     A07A 0040 
0070 A07C 06A0  32        bl   @play_snd
     A07E A104 
0001 A080 064A  14        dect r10
0002 A082 C2DA  26        mov  *r10,r11
0003 A084 045B  20        b    *r11
0072               *// play_extra
0073               
0074               *********************************************************************
0075               *
0076               * Play boss
0077               *
0078               play_boss:
0001 A086 CE8B  34        mov  r11,*r10+
0080 A088 0200  20        li   r0,snd_boss
     A08A A0F2 
0081 A08C 0201  20        li   r1,snd_channel_3
     A08E 83AA 
0082 A090 0202  20        li   r2,>3ff
     A092 03FF 
0083 A094 06A0  32        bl   @play_snd
     A096 A104 
0001 A098 064A  14        dect r10
0002 A09A C2DA  26        mov  *r10,r11
0003 A09C 045B  20        b    *r11
0085               *// play_boss
0086               
0087               *********************************************************************
0088               *
0089               * Play explosion_1
0090               *
0091               play_explosion_1:
0001 A09E CE8B  34        mov  r11,*r10+
0093 A0A0 0200  20        li   r0,snd_explosion_1
     A0A2 A0F8 
0094 A0A4 0201  20        li   r1,snd_channel_4
     A0A6 83B0 
0095 A0A8 06A0  32        bl   @play_snd
     A0AA A104 
0001 A0AC 064A  14        dect r10
0002 A0AE C2DA  26        mov  *r10,r11
0003 A0B0 045B  20        b    *r11
0097               *// play_explosion_1
0098               
0099               *********************************************************************
0100               *
0101               * Play explosion_2
0102               *
0103               play_explosion_2:
0001 A0B2 CE8B  34        mov  r11,*r10+
0105 A0B4 0200  20        li   r0,snd_explosion_2
     A0B6 A0FC 
0106 A0B8 0201  20        li   r1,snd_channel_4
     A0BA 83B0 
0107 A0BC 06A0  32        bl   @play_snd
     A0BE A104 
0001 A0C0 064A  14        dect r10
0002 A0C2 C2DA  26        mov  *r10,r11
0003 A0C4 045B  20        b    *r11
0109               *// play_explosion_2
0110               
0111               *********************************************************************
0112               *
0113               * Play explosion_3
0114               *
0115               play_explosion_3:
0001 A0C6 CE8B  34        mov  r11,*r10+
0117 A0C8 0200  20        li   r0,snd_explosion_3
     A0CA A100 
0118 A0CC 0201  20        li   r1,snd_channel_4
     A0CE 83B0 
0119 A0D0 06A0  32        bl   @play_snd
     A0D2 A104 
0001 A0D4 064A  14        dect r10
0002 A0D6 C2DA  26        mov  *r10,r11
0003 A0D8 045B  20        b    *r11
0121               *// play_explosion_3
**** **** ****     > zqx-one.a99
1960                      copy "sound-fx.a99"
**** **** ****     > sound-fx.a99
0001               **
0002               * Sound FXs
0003               *
0004               snd_shot:
0005 A0DA 8010            byte T1
0006                      byte 16                         ; Frames
0007 A0DC 0010            byte 0                          ; Attn start
0008                      byte 16                         ; Attn step
0009 A0DE 0004            data 4                          ; Freq step
0010               snd_shield:
0011 A0E0 A010            byte T2
0012                      byte 16                         ; Frames
0013 A0E2 0600            byte 6                          ; Attn start
0014                      byte 0                          ; Attn step
0015 A0E4 0006            data 6                          ; Freq step
0016               snd_warning:
0017 A0E6 C010            byte T3
0018                      byte 16                         ; Frames
0019 A0E8 0000            byte 0                          ; Attn start
0020                      byte 0                          ; Attn step
0021 A0EA 0000            data 0                          ; Freq step
0022               snd_extra:
0023 A0EC C040            byte T3
0024                      byte 64                         ; Frames
0025 A0EE 0004            byte 0                          ; Attn start
0026                      byte 4                          ; Attn step
0027 A0F0 0000            data 0                          ; Freq step
0028               snd_boss:
0029 A0F2 C008            byte T3
0030                      byte 8                          ; Frames
0031 A0F4 0800            byte 8                          ; Attn start
0032                      byte 0                          ; Attn step
0033 A0F6 0000            data 0                          ; Freq step
0034               snd_explosion_1:
0035 A0F8 E630            byte W2
0036                      byte 48                         ; Frames
0037 A0FA 0005            byte 0                          ; Attn start
0038                      byte 5                          ; Attn step
0039               snd_explosion_2:
0040 A0FC E520            byte W1
0041                      byte 32                         ; Frames
0042 A0FE 000A            byte 0                          ; Attn start
0043                      byte 10                         ; Attn step
0044               snd_explosion_3:
0045 A100 E410            byte W0
0046                      byte 16                         ; Frames
0047 A102 000F            byte 0                          ; Attn start
0048                      byte 15                         ; Attn step
0049               
0050                      even
**** **** ****     > zqx-one.a99
1961                      copy "sound-player.a99"
**** **** ****     > sound-player.a99
0001               *********************************************************************
0002               *
0003               * Play sound
0004               *
0005               * r0: Address of sound to play
0006               * r1: Channel address
0007               * r2: Frequency
0008               *
0009               * Modifies r0-r3
0010               *
0011               play_snd:
0012 A104 CC40  34        mov  r0,*r1+                    ; Init address
0013 A106 D0F0  28        movb *r0+,r3                    ; Operation
0014 A108 DC70  42        movb *r0+,*r1+                  ; Init duration
0015 A10A DC70  42        movb *r0+,*r1+                  ; Init attenuation
0016 A10C 0580  14        inc  r0                         ; Skip attenuation step byte
0017 A10E 0283  22        ci   r3,>e000                   ; Test for noise
     A110 E000 
0018 A112 1A07  14        jl   play_snd_1
0019               *      Noise - init PSG
0020 A114 D803  38        movb r3,@sound
     A116 8400 
0021 A118 0263  22        ori  r3,>1f00                   ; Change operation to full attenuation
     A11A 1F00 
0022 A11C D803  38        movb r3,@sound
     A11E 8400 
0023 A120 1011  14        jmp  play_snd_3
0024               *      Tone
0025               play_snd_1:
0026 A122 C442  30        mov  r2,*r1                     ; Init frequency
0027 A124 C050  26        mov  *r0,r1                     ; Check frequency step
0028 A126 160E  14        jne  play_snd_3
0029               *      Tone - init PSG
0030 A128 C042  18        mov  r2,r1                      ; Copy frequency
0031 A12A 0241  22        andi r1,>000f                   ; Isolate lower nybble
     A12C 000F 
0032 A12E 06C1  14        swpb r1
0033 A130 F0C1  18        socb r1,r3                      ; Combine with operation
0034 A132 D803  38        movb r3,@sound                  ; Write operation and lower frequency nybble
     A134 8400 
0035 A136 0A42  56        sla  r2,4                       ; Shift upper byte into place
0036 A138 D802  38        movb r2,@sound                  ; Write upper frequency byte
     A13A 8400 
0037 A13C 0263  22        ori  r3,>1f00                   ; Change operation to full attenuation
     A13E 1F00 
0038 A140 D803  38        movb r3,@sound
     A142 8400 
0039               play_snd_3:
0040 A144 045B  20        rt
0041               *// play_snd
0042               
0043               *********************************************************************
0044               *
0045               * Sound player
0046               *
0047               * Modifies r0-r4
0048               *
0049               snd_player:
0050 A146 0202  20        li   r2,snd_channel_4           ; Start with last channel
     A148 83B0 
0051               snd_player_1:
0052 A14A C0D2  26        mov  *r2,r3                     ; Get sound address
0053 A14C 132F  14        jeq  snd_player_4               ; If not active do next
0054 A14E D113  26        movb *r3,r4                     ; Get operation
0055 A150 D022  34        movb @snd_channel_duration(r2),r0     ; Are we done?
     A152 0002 
0056 A154 1606  14        jne  snd_player_2               ; No - jump
0057               *      Sound finished
0058 A156 04D2  26        clr  *r2                        ; Finished - clear sound address
0059 A158 0264  22        ori  r4,>1f00                   ; Full attenuation
     A15A 1F00 
0060 A15C D804  38        movb r4,@sound                  ; Mute
     A15E 8400 
0061 A160 1025  14        jmp  snd_player_4               ; Return
0062               snd_player_2:
0063               *      Check noise or tone
0064 A162 0284  22        ci   r4,>e000                   ; Noise?
     A164 E000 
0065 A166 1412  14        jhe  snd_player_3               ; Yes, skip frequency
0066 A168 C023  34        mov  @snd_freq_step(r3),r0      ; Check frequency step
     A16A 0004 
0067 A16C 130F  14        jeq  snd_player_3               ; If zero skip frequency
0068               *      Frequency
0069 A16E C022  34        mov  @snd_channel_freq(r2),r0   ; Get frequency
     A170 0004 
0070 A172 C040  18        mov  r0,r1                      ; Copy frequency
0071 A174 0241  22        andi r1,>000f                   ; Isolate lower nybble
     A176 000F 
0072 A178 06C1  14        swpb r1
0073 A17A F101  18        socb r1,r4                      ; Combine with operation
0074 A17C D804  38        movb r4,@sound                  ; Write operation and lower frequency nybble
     A17E 8400 
0075 A180 0A40  56        sla  r0,4                       ; Shift upper byte into place
0076 A182 D800  38        movb r0,@sound                  ; Write upper frequency byte
     A184 8400 
0077 A186 A8A3  54        a    @snd_freq_step(r3),@snd_channel_freq(r2)    ; Change frequency
     A188 0004 
     A18A 0004 
0078               *      Attenuation
0079               snd_player_3:
0080 A18C 0244  22        andi r4,>f000                   ; Clear operation lower nybble
     A18E F000 
0081 A190 0264  22        ori  r4,>1000                   ; Change operation to attenuation
     A192 1000 
0082 A194 D022  34        movb @snd_channel_attn(r2),r0   ; Get attenuation x 16
     A196 0003 
0083 A198 0940  56        srl  r0,4                       ; Attenuation
0084 A19A F004  18        socb r4,r0                      ; Combine with attenuation operation
0085 A19C D800  38        movb r0,@sound                  ; Write attenuation
     A19E 8400 
0086 A1A0 B8A3  54        ab   @snd_attn_step(r3),@snd_channel_attn(r2)    ; Change attenuation
     A1A2 0003 
     A1A4 0003 
0087               *      Count down and loop
0088 A1A6 78A0  54        sb   @byte_01,@snd_channel_duration(r2)      ; Count down duration
     A1A8 3AA8 
     A1AA 0002 
0089               snd_player_4:
0090 A1AC 0222  22        ai   r2,-snd_channel_size       ; Next (previous) channel
     A1AE FFFA 
0091 A1B0 0282  22        ci   r2,snd_channel_1           ; Are we done?
     A1B2 839E 
0092 A1B4 14CA  14        jhe  snd_player_1               ; No - loop
0093 A1B6 045B  20        rt                              ; Return
0094               *// snd_player
**** **** ****     > zqx-one.a99
1962                      copy "sub-levels.a99"
**** **** ****     > sub-levels.a99
0001               **
0002               *
0003               * Sub-level data struture
0004               *
0005               sub_level_map_bank_select:
0006                      equ  0
0007               sub_level_patterns_bank_select:
0008                      equ  2
0009               sub_level_sprite_patterns_bank_select:
0010                      equ  4
0011               sub_level_diff:
0012                      equ  6
0013               sub_level_diff_end:
0014                      equ  8
0015               sub_level_sprite_def:
0016                      equ  10
0017               sub_level_map_width:
0018                      equ  12
0019               sub_level_scroll_max:
0020                      equ  14
0021               sub_level_player_scale_z:
0022                      equ  16
0023               sub_level_walls:
0024                      equ  18
0025               sub_level_palettes:
0026                      equ  20
0027               sub_level_size:
0028                      equ  22
0029               
0030               n_sub_levels:
0031                      equ  3
0032               sub_levels:
0033 A1B8 A1BE            data sub_level_0,sub_level_0,sub_level_2
     A1BA A1BE 
     A1BC A1EA 
0034               
0035               sub_level_0:
0036 A1BE 600C            data map_0_bank_select
0037 A1C0 601A            data patterns_0_bank_select
0038 A1C2 601C            data sprite_patterns_0_bank_select
0039 A1C4 A206            data level_0_000_add
0040 A1C6 A3FA            data diff_end_0
0041 A1C8 CEC8            data sprite_defs_0
0042 A1CA 0080            data map_0_width
0043 A1CC 04E0            data map_0_width*8+window_width
0044 A1CE 0001            data 1
0045 A1D0 34D8            data cpu_walls_0
0046 A1D2 D576            data char_palettes_0
0047               sub_level_1:
0048 A1D4 6008            data map_1_bank_select
0049 A1D6 6010            data patterns_1_bank_select
0050 A1D8 600E            data sprite_patterns_1_bank_select
0051 A1DA A3FA            data level_1_000_add
0052 A1DC AF58            data diff_end_1
0053 A1DE CF70            data sprite_defs_1
0054 A1E0 00E4            data map_1_width
0055 A1E2 0800            data map_1_width*8+window_width
0056 A1E4 0000            data 0
0057 A1E6 34DA            data cpu_walls_1
0058 A1E8 D596            data char_palettes_1
0059               sub_level_2:
0060 A1EA 600A            data map_2_bank_select
0061 A1EC 6016            data patterns_2_bank_select
0062 A1EE 600E            data sprite_patterns_1_bank_select
0063 A1F0 AF58            data level_2_000_add
0064 A1F2 BC8D            data diff_end_2
0065 A1F4 D1DA            data sprite_defs_2
0066 A1F6 0120            data map_2_width
0067 A1F8 0900            data map_2_width*8
0068 A1FA 0000            data 0
0069 A1FC 34E4            data cpu_walls_2
0070 A1FE D5B6            data char_palettes_2
0071               
0072               sub_level_0_data:
0073 A200 A1BE            data sub_level_0
0074               sub_level_1_data:
0075 A202 A1D4            data sub_level_1
0076               sub_level_2_data:
0077 A204 A1EA            data sub_level_2
**** **** ****     > zqx-one.a99
1963                      copy "diff0.a99"
**** **** ****     > diff0.a99
0001               level_0_000_add:
0002 A206 0300            byte >03
0003 A208 0000            byte >00, >00, >00              ; >0000
0004 A20A 0100            byte >01, >00, >0b              ; >000b
     A20C 0B02 
0005 A20E 0008            byte >02, >00, >08              ; >0008
0006               level_0_001_add:
0007 A210 0303            byte >03
0008 A212 0001            byte >03, >00, >01              ; >0001
0009 A214 0400            byte >04, >00, >09              ; >0009
     A216 0905 
0010 A218 0003            byte >05, >00, >03              ; >0003
0011               level_0_002_add:
0012 A21A 0106            byte >01
0013 A21C 0004            byte >06, >00, >04              ; >0004
0014               level_0_003_add:
0015 A21E 0307            byte >03
0016 A220 0029            byte >07, >00, >29              ; >0029
0017 A222 0800            byte >08, >00, >1d              ; >001d
     A224 1D09 
0018 A226 0013            byte >09, >00, >13              ; >0013
0019               level_0_004_add:
0020 A228 030A            byte >03
0021 A22A 001F            byte >0a, >00, >1f              ; >001f
0022 A22C 0B00            byte >0b, >00, >2a              ; >002a
     A22E 2A0C 
0023 A230 000C            byte >0c, >00, >0c              ; >000c
0024               level_0_005_add:
0025 A232 020D            byte >02
0026 A234 0015            byte >0d, >00, >15              ; >0015
0027 A236 0E00            byte >0e, >00, >0a              ; >000a
     A238 0A01 
0028               level_0_006_add:
0029                      byte >01
0030 A23A 0F00            byte >0f, >00, >14              ; >0014
     A23C 1400 
0031               level_0_007_add:
0032                      byte >00
0033               level_0_008_add:
0034 A23E 0110            byte >01
0035 A240 0016            byte >10, >00, >16              ; >0016
0036               level_0_009_add:
0037 A242 0211            byte >02
0038 A244 0002            byte >11, >00, >02              ; >0002
0039 A246 1200            byte >12, >00, >12              ; >0012
     A248 1201 
0040               level_0_010_add:
0041                      byte >01
0042 A24A 1300            byte >13, >00, >10              ; >0010
     A24C 1000 
0043               level_0_011_add:
0044                      byte >00
0045               level_0_012_add:
0046 A24E 0002            byte >00
0047               level_0_013_add:
0048                      byte >02
0049 A250 1400            byte >14, >00, >20              ; >0020
     A252 2015 
0050 A254 0005            byte >15, >00, >05              ; >0005
0051               level_0_014_add:
0052 A256 0716            byte >07
0053 A258 001A            byte >16, >00, >1a              ; >001a
0054 A25A 1700            byte >17, >00, >25              ; >0025
     A25C 2518 
0055 A25E 0017            byte >18, >00, >17              ; >0017
0056 A260 1900            byte >19, >00, >11              ; >0011
     A262 111A 
0057 A264 000D            byte >1a, >00, >0d              ; >000d
0058 A266 1B00            byte >1b, >00, >21              ; >0021
     A268 211C 
0059 A26A 0006            byte >1c, >00, >06              ; >0006
0060               level_0_015_add:
0061 A26C 0620            byte >06
0062 A26E 000E            byte >20, >00, >0e              ; >000e
0063 A270 2100            byte >21, >00, >22              ; >0022
     A272 2222 
0064 A274 0007            byte >22, >00, >07              ; >0007
0065 A276 1D00            byte >1d, >00, >1b              ; >001b
     A278 1B1E 
0066 A27A 0026            byte >1e, >00, >26              ; >0026
0067 A27C 1F00            byte >1f, >00, >18              ; >0018
     A27E 1802 
0068               level_0_016_add:
0069                      byte >02
0070 A280 2300            byte >23, >00, >0f              ; >000f
     A282 0F24 
0071 A284 0023            byte >24, >00, >23              ; >0023
0072               level_0_017_add:
0073 A286 0002            byte >00
0074               level_0_018_add:
0075                      byte >02
0076 A288 2500            byte >25, >00, >28              ; >0028
     A28A 2826 
0077 A28C 001C            byte >26, >00, >1c              ; >001c
0078               level_0_019_add:
0079 A28E 0000            byte >00
0080               level_0_020_add:
0081                      byte >00
0082               level_0_021_add:
0083 A290 0000            byte >00
0084               level_0_022_add:
0085                      byte >00
0086               level_0_023_add:
0087 A292 0127            byte >01
0088 A294 0024            byte >27, >00, >24              ; >0024
0089               level_0_024_add:
0090 A296 0000            byte >00
0091               level_0_025_add:
0092                      byte >00
0093               level_0_026_add:
0094 A298 0001            byte >00
0095               level_0_027_add:
0096                      byte >01
0097 A29A 2800            byte >28, >00, >1e              ; >001e
     A29C 1E00 
0098               level_0_028_add:
0099                      byte >00
0100               level_0_029_add:
0101 A29E 0229            byte >02
0102 A2A0 0027            byte >29, >00, >27              ; >0027
0103 A2A2 2A00            byte >2a, >00, >19              ; >0019
     A2A4 1900 
0104               level_0_030_add:
0105                      byte >00
0106               level_0_031_add:
0107 A2A6 0000            byte >00
0108               level_0_032_add:
0109                      byte >00
0110               level_0_033_add:
0111 A2A8 0000            byte >00
0112               level_0_034_add:
0113                      byte >00
0114               level_0_035_add:
0115 A2AA 0207            byte >02
0116 A2AC 0029            byte >07, >00, >29              ; >0029
0117 A2AE 0800            byte >08, >00, >1d              ; >001d
     A2B0 1D02 
0118               level_0_036_add:
0119                      byte >02
0120 A2B2 0A00            byte >0a, >00, >1f              ; >001f
     A2B4 1F0B 
0121 A2B6 002A            byte >0b, >00, >2a              ; >002a
0122               level_0_037_add:
0123 A2B8 0000            byte >00
0124               level_0_038_add:
0125                      byte >00
0126               level_0_039_add:
0127 A2BA 0000            byte >00
0128               level_0_040_add:
0129                      byte >00
0130               level_0_041_add:
0131 A2BC 0000            byte >00
0132               level_0_042_add:
0133                      byte >00
0134               level_0_043_add:
0135 A2BE 0000            byte >00
0136               level_0_044_add:
0137                      byte >00
0138               level_0_045_add:
0139 A2C0 0214            byte >02
0140 A2C2 0020            byte >14, >00, >20              ; >0020
0141 A2C4 1500            byte >15, >00, >05              ; >0005
     A2C6 0507 
0142               level_0_046_add:
0143                      byte >07
0144 A2C8 1600            byte >16, >00, >1a              ; >001a
     A2CA 1A17 
0145 A2CC 0025            byte >17, >00, >25              ; >0025
0146 A2CE 1800            byte >18, >00, >17              ; >0017
     A2D0 1719 
0147 A2D2 0011            byte >19, >00, >11              ; >0011
0148 A2D4 1A00            byte >1a, >00, >0d              ; >000d
     A2D6 0D1B 
0149 A2D8 0021            byte >1b, >00, >21              ; >0021
0150 A2DA 1C00            byte >1c, >00, >06              ; >0006
     A2DC 0606 
0151               level_0_047_add:
0152                      byte >06
0153 A2DE 2000            byte >20, >00, >0e              ; >000e
     A2E0 0E21 
0154 A2E2 0022            byte >21, >00, >22              ; >0022
0155 A2E4 2200            byte >22, >00, >07              ; >0007
     A2E6 071D 
0156 A2E8 001B            byte >1d, >00, >1b              ; >001b
0157 A2EA 1E00            byte >1e, >00, >26              ; >0026
     A2EC 261F 
0158 A2EE 0018            byte >1f, >00, >18              ; >0018
0159               level_0_048_add:
0160 A2F0 0223            byte >02
0161 A2F2 000F            byte >23, >00, >0f              ; >000f
0162 A2F4 2400            byte >24, >00, >23              ; >0023
     A2F6 2300 
0163               level_0_049_add:
0164                      byte >00
0165               level_0_050_add:
0166 A2F8 0225            byte >02
0167 A2FA 0028            byte >25, >00, >28              ; >0028
0168 A2FC 2600            byte >26, >00, >1c              ; >001c
     A2FE 1C00 
0169               level_0_051_add:
0170                      byte >00
0171               level_0_052_add:
0172 A300 0000            byte >00
0173               level_0_053_add:
0174                      byte >00
0175               level_0_054_add:
0176 A302 0001            byte >00
0177               level_0_055_add:
0178                      byte >01
0179 A304 2700            byte >27, >00, >24              ; >0024
     A306 2400 
0180               level_0_056_add:
0181                      byte >00
0182               level_0_057_add:
0183 A308 0000            byte >00
0184               level_0_058_add:
0185                      byte >00
0186               level_0_059_add:
0187 A30A 0128            byte >01
0188 A30C 001E            byte >28, >00, >1e              ; >001e
0189               level_0_060_add:
0190 A30E 0002            byte >00
0191               level_0_061_add:
0192                      byte >02
0193 A310 2900            byte >29, >00, >27              ; >0027
     A312 272A 
0194 A314 0019            byte >2a, >00, >19              ; >0019
0195               level_0_062_add:
0196 A316 0000            byte >00
0197               level_0_063_add:
0198                      byte >00
0199               level_0_064_add:
0200 A318 0000            byte >00
0201               level_0_065_add:
0202                      byte >00
0203               level_0_066_add:
0204 A31A 0002            byte >00
0205               level_0_067_add:
0206                      byte >02
0207 A31C 0700            byte >07, >00, >29              ; >0029
     A31E 2908 
0208 A320 001D            byte >08, >00, >1d              ; >001d
0209               level_0_068_add:
0210 A322 020A            byte >02
0211 A324 001F            byte >0a, >00, >1f              ; >001f
0212 A326 0B00            byte >0b, >00, >2a              ; >002a
     A328 2A00 
0213               level_0_069_add:
0214                      byte >00
0215               level_0_070_add:
0216 A32A 0000            byte >00
0217               level_0_071_add:
0218                      byte >00
0219               level_0_072_add:
0220 A32C 0000            byte >00
0221               level_0_073_add:
0222                      byte >00
0223               level_0_074_add:
0224 A32E 0000            byte >00
0225               level_0_075_add:
0226                      byte >00
0227               level_0_076_add:
0228 A330 0002            byte >00
0229               level_0_077_add:
0230                      byte >02
0231 A332 1400            byte >14, >00, >20              ; >0020
     A334 2015 
0232 A336 0005            byte >15, >00, >05              ; >0005
0233               level_0_078_add:
0234 A338 0716            byte >07
0235 A33A 001A            byte >16, >00, >1a              ; >001a
0236 A33C 1700            byte >17, >00, >25              ; >0025
     A33E 2518 
0237 A340 0017            byte >18, >00, >17              ; >0017
0238 A342 1900            byte >19, >00, >11              ; >0011
     A344 111A 
0239 A346 000D            byte >1a, >00, >0d              ; >000d
0240 A348 1B00            byte >1b, >00, >21              ; >0021
     A34A 211C 
0241 A34C 0006            byte >1c, >00, >06              ; >0006
0242               level_0_079_add:
0243 A34E 0620            byte >06
0244 A350 000E            byte >20, >00, >0e              ; >000e
0245 A352 2100            byte >21, >00, >22              ; >0022
     A354 2222 
0246 A356 0007            byte >22, >00, >07              ; >0007
0247 A358 1D00            byte >1d, >00, >1b              ; >001b
     A35A 1B1E 
0248 A35C 0026            byte >1e, >00, >26              ; >0026
0249 A35E 1F00            byte >1f, >00, >18              ; >0018
     A360 1802 
0250               level_0_080_add:
0251                      byte >02
0252 A362 2300            byte >23, >00, >0f              ; >000f
     A364 0F24 
0253 A366 0023            byte >24, >00, >23              ; >0023
0254               level_0_081_add:
0255 A368 0002            byte >00
0256               level_0_082_add:
0257                      byte >02
0258 A36A 2500            byte >25, >00, >28              ; >0028
     A36C 2826 
0259 A36E 001C            byte >26, >00, >1c              ; >001c
0260               level_0_083_add:
0261 A370 0000            byte >00
0262               level_0_084_add:
0263                      byte >00
0264               level_0_085_add:
0265 A372 0000            byte >00
0266               level_0_086_add:
0267                      byte >00
0268               level_0_087_add:
0269 A374 0127            byte >01
0270 A376 0024            byte >27, >00, >24              ; >0024
0271               level_0_088_add:
0272 A378 0000            byte >00
0273               level_0_089_add:
0274                      byte >00
0275               level_0_090_add:
0276 A37A 0001            byte >00
0277               level_0_091_add:
0278                      byte >01
0279 A37C 2800            byte >28, >00, >1e              ; >001e
     A37E 1E00 
0280               level_0_092_add:
0281                      byte >00
0282               level_0_093_add:
0283 A380 0229            byte >02
0284 A382 0027            byte >29, >00, >27              ; >0027
0285 A384 2A00            byte >2a, >00, >19              ; >0019
     A386 1900 
0286               level_0_094_add:
0287                      byte >00
0288               level_0_095_add:
0289 A388 0000            byte >00
0290               level_0_096_add:
0291                      byte >00
0292               level_0_097_add:
0293 A38A 0000            byte >00
0294               level_0_098_add:
0295                      byte >00
0296               level_0_099_add:
0297 A38C 0207            byte >02
0298 A38E 0029            byte >07, >00, >29              ; >0029
0299 A390 0800            byte >08, >00, >1d              ; >001d
     A392 1D02 
0300               level_0_100_add:
0301                      byte >02
0302 A394 0A00            byte >0a, >00, >1f              ; >001f
     A396 1F0B 
0303 A398 002A            byte >0b, >00, >2a              ; >002a
0304               level_0_101_add:
0305 A39A 0000            byte >00
0306               level_0_102_add:
0307                      byte >00
0308               level_0_103_add:
0309 A39C 0000            byte >00
0310               level_0_104_add:
0311                      byte >00
0312               level_0_105_add:
0313 A39E 0000            byte >00
0314               level_0_106_add:
0315                      byte >00
0316               level_0_107_add:
0317 A3A0 0000            byte >00
0318               level_0_108_add:
0319                      byte >00
0320               level_0_109_add:
0321 A3A2 0214            byte >02
0322 A3A4 0020            byte >14, >00, >20              ; >0020
0323 A3A6 1500            byte >15, >00, >05              ; >0005
     A3A8 0507 
0324               level_0_110_add:
0325                      byte >07
0326 A3AA 1600            byte >16, >00, >1a              ; >001a
     A3AC 1A17 
0327 A3AE 0025            byte >17, >00, >25              ; >0025
0328 A3B0 1800            byte >18, >00, >17              ; >0017
     A3B2 1719 
0329 A3B4 0011            byte >19, >00, >11              ; >0011
0330 A3B6 1A00            byte >1a, >00, >0d              ; >000d
     A3B8 0D1B 
0331 A3BA 0021            byte >1b, >00, >21              ; >0021
0332 A3BC 1C00            byte >1c, >00, >06              ; >0006
     A3BE 0606 
0333               level_0_111_add:
0334                      byte >06
0335 A3C0 2000            byte >20, >00, >0e              ; >000e
     A3C2 0E21 
0336 A3C4 0022            byte >21, >00, >22              ; >0022
0337 A3C6 2200            byte >22, >00, >07              ; >0007
     A3C8 071D 
0338 A3CA 001B            byte >1d, >00, >1b              ; >001b
0339 A3CC 1E00            byte >1e, >00, >26              ; >0026
     A3CE 261F 
0340 A3D0 0018            byte >1f, >00, >18              ; >0018
0341               level_0_112_add:
0342 A3D2 0223            byte >02
0343 A3D4 000F            byte >23, >00, >0f              ; >000f
0344 A3D6 2400            byte >24, >00, >23              ; >0023
     A3D8 2300 
0345               level_0_113_add:
0346                      byte >00
0347               level_0_114_add:
0348 A3DA 0225            byte >02
0349 A3DC 0028            byte >25, >00, >28              ; >0028
0350 A3DE 2600            byte >26, >00, >1c              ; >001c
     A3E0 1C00 
0351               level_0_115_add:
0352                      byte >00
0353               level_0_116_add:
0354 A3E2 0000            byte >00
0355               level_0_117_add:
0356                      byte >00
0357               level_0_118_add:
0358 A3E4 0001            byte >00
0359               level_0_119_add:
0360                      byte >01
0361 A3E6 2700            byte >27, >00, >24              ; >0024
     A3E8 2400 
0362               level_0_120_add:
0363                      byte >00
0364               level_0_121_add:
0365 A3EA 0000            byte >00
0366               level_0_122_add:
0367                      byte >00
0368               level_0_123_add:
0369 A3EC 0128            byte >01
0370 A3EE 001E            byte >28, >00, >1e              ; >001e
0371               level_0_124_add:
0372 A3F0 0002            byte >00
0373               level_0_125_add:
0374                      byte >02
0375 A3F2 2900            byte >29, >00, >27              ; >0027
     A3F4 272A 
0376 A3F6 0019            byte >2a, >00, >19              ; >0019
0377               level_0_126_add:
0378 A3F8 0000            byte >00
0379               level_0_127_add:
0380                      byte >00
**** **** ****     > zqx-one.a99
1964               diff_end_0:
1965                      copy "diff1.a99"
**** **** ****     > diff1.a99
0001               level_1_000_add:
0002 A3FA 0400            byte >04
0003 A3FC 0000            byte >00, >00, >00              ; >0000
0004 A3FE 0102            byte >01, >02, >46              ; >0246
     A400 4602 
0005 A402 00E4            byte >02, >00, >e4              ; >00e4
0006 A404 0302            byte >03, >02, >17              ; >0217
     A406 1709 
0007               level_1_001_add:
0008                      byte >09
0009 A408 0401            byte >04, >01, >1d              ; >011d
     A40A 1D05 
0010 A40C 0257            byte >05, >02, >57              ; >0257
0011 A40E 0601            byte >06, >01, >02              ; >0102
     A410 0207 
0012 A412 0247            byte >07, >02, >47              ; >0247
0013 A414 0800            byte >08, >00, >e5              ; >00e5
     A416 E509 
0014 A418 022A            byte >09, >02, >2a              ; >022a
0015 A41A 0A00            byte >0a, >00, >c4              ; >00c4
     A41C C40B 
0016 A41E 006E            byte >0b, >00, >6e              ; >006e
0017 A420 0C01            byte >0c, >01, >cc              ; >01cc
     A422 CC0B 
0018               level_1_002_add:
0019                      byte >0b
0020 A424 1000            byte >10, >00, >22              ; >0022
     A426 2211 
0021 A428 0103            byte >11, >01, >03              ; >0103
0022 A42A 1202            byte >12, >02, >48              ; >0248
     A42C 4813 
0023 A42E 022B            byte >13, >02, >2b              ; >022b
0024 A430 1400            byte >14, >00, >c5              ; >00c5
     A432 C515 
0025 A434 01FB            byte >15, >01, >fb              ; >01fb
0026 A436 1601            byte >16, >01, >cd              ; >01cd
     A438 CD17 
0027 A43A 0030            byte >17, >00, >30              ; >0030
0028 A43C 0D01            byte >0d, >01, >2f              ; >012f
     A43E 2F0E 
0029 A440 0262            byte >0e, >02, >62              ; >0262
0030 A442 0F01            byte >0f, >01, >1e              ; >011e
     A444 1E09 
0031               level_1_003_add:
0032                      byte >09
0033 A446 2001            byte >20, >01, >9f              ; >019f
     A448 9F18 
0034 A44A 0273            byte >18, >02, >73              ; >0273
0035 A44C 1901            byte >19, >01, >30              ; >0130
     A44E 301A 
0036 A450 0018            byte >1a, >00, >18              ; >0018
0037 A452 1B01            byte >1b, >01, >1f              ; >011f
     A454 1F1C 
0038 A456 0218            byte >1c, >02, >18              ; >0218
0039 A458 1D00            byte >1d, >00, >a4              ; >00a4
     A45A A41E 
0040 A45C 01FC            byte >1e, >01, >fc              ; >01fc
0041 A45E 1F01            byte >1f, >01, >ce              ; >01ce
     A460 CE0C 
0042               level_1_004_add:
0043                      byte >0c
0044 A462 2101            byte >21, >01, >4b              ; >014b
     A464 4B22 
0045 A466 0274            byte >22, >02, >74              ; >0274
0046 A468 2301            byte >23, >01, >31              ; >0131
     A46A 3124 
0047 A46C 0263            byte >24, >02, >63              ; >0263
0048 A46E 2500            byte >25, >00, >c6              ; >00c6
     A470 C626 
0049 A472 0219            byte >26, >02, >19              ; >0219
0050 A474 2700            byte >27, >00, >a5              ; >00a5
     A476 A528 
0051 A478 01CF            byte >28, >01, >cf              ; >01cf
0052 A47A 2900            byte >29, >00, >6f              ; >006f
     A47C 6F2A 
0053 A47E 0031            byte >2a, >00, >31              ; >0031
0054 A480 2B01            byte >2b, >01, >a0              ; >01a0
     A482 A02C 
0055 A484 0001            byte >2c, >00, >01              ; >0001
0056               level_1_005_add:
0057 A486 0B30            byte >0b
0058 A488 0132            byte >30, >01, >32              ; >0132
0059 A48A 3102            byte >31, >02, >64              ; >0264
     A48C 6432 
0060 A48E 00C7            byte >32, >00, >c7              ; >00c7
0061 A490 3302            byte >33, >02, >1a              ; >021a
     A492 1A34 
0062 A494 00A6            byte >34, >00, >a6              ; >00a6
0063 A496 3501            byte >35, >01, >a1              ; >01a1
     A498 A136 
0064 A49A 002C            byte >36, >00, >2c              ; >002c
0065 A49C 3700            byte >37, >00, >02              ; >0002
     A49E 022D 
0066 A4A0 028B            byte >2d, >02, >8b              ; >028b
0067 A4A2 2E01            byte >2e, >01, >4c              ; >014c
     A4A4 4C2F 
0068 A4A6 0275            byte >2f, >02, >75              ; >0275
0069               level_1_006_add:
0070 A4A8 0A40            byte >0a
0071 A4AA 01A2            byte >40, >01, >a2              ; >01a2
0072 A4AC 4100            byte >41, >00, >03              ; >0003
     A4AE 0338 
0073 A4B0 0161            byte >38, >01, >61              ; >0161
0074 A4B2 3902            byte >39, >02, >8c              ; >028c
     A4B4 8C3A 
0075 A4B6 014D            byte >3a, >01, >4d              ; >014d
0076 A4B8 3B02            byte >3b, >02, >76              ; >0276
     A4BA 763C 
0077 A4BC 022C            byte >3c, >02, >2c              ; >022c
0078 A4BE 3D00            byte >3d, >00, >c8              ; >00c8
     A4C0 C83E 
0079 A4C2 01D0            byte >3e, >01, >d0              ; >01d0
0080 A4C4 3F00            byte >3f, >00, >32              ; >0032
     A4C6 320B 
0081               level_1_007_add:
0082                      byte >0b
0083 A4C8 4201            byte >42, >01, >62              ; >0162
     A4CA 6243 
0084 A4CC 028D            byte >43, >02, >8d              ; >028d
0085 A4CE 4401            byte >44, >01, >4e              ; >014e
     A4D0 4E45 
0086 A4D2 0277            byte >45, >02, >77              ; >0277
0087 A4D4 4600            byte >46, >00, >e6              ; >00e6
     A4D6 E647 
0088 A4D8 022D            byte >47, >02, >2d              ; >022d
0089 A4DA 4800            byte >48, >00, >c9              ; >00c9
     A4DC C949 
0090 A4DE 01D1            byte >49, >01, >d1              ; >01d1
0091 A4E0 4A00            byte >4a, >00, >33              ; >0033
     A4E2 334B 
0092 A4E4 01A3            byte >4b, >01, >a3              ; >01a3
0093 A4E6 4C00            byte >4c, >00, >04              ; >0004
     A4E8 040A 
0094               level_1_008_add:
0095                      byte >0a
0096 A4EA 5000            byte >50, >00, >29              ; >0029
     A4EC 2951 
0097 A4EE 01C6            byte >51, >01, >c6              ; >01c6
0098 A4F0 5200            byte >52, >00, >70              ; >0070
     A4F2 7053 
0099 A4F4 01D2            byte >53, >01, >d2              ; >01d2
0100 A4F6 5400            byte >54, >00, >34              ; >0034
     A4F8 3455 
0101 A4FA 01A4            byte >55, >01, >a4              ; >01a4
0102 A4FC 5600            byte >56, >00, >05              ; >0005
     A4FE 054D 
0103 A500 029D            byte >4d, >02, >9d              ; >029d
0104 A502 4E01            byte >4e, >01, >63              ; >0163
     A504 634F 
0105 A506 0249            byte >4f, >02, >49              ; >0249
0106               level_1_009_add:
0107 A508 0B60            byte >0b
0108 A50A 01A5            byte >60, >01, >a5              ; >01a5
0109 A50C 6100            byte >61, >00, >06              ; >0006
     A50E 0657 
0110 A510 017C            byte >57, >01, >7c              ; >017c
0111 A512 5802            byte >58, >02, >9e              ; >029e
     A514 9E59 
0112 A516 0164            byte >59, >01, >64              ; >0164
0113 A518 5A02            byte >5a, >02, >4a              ; >024a
     A51A 4A5B 
0114 A51C 002A            byte >5b, >00, >2a              ; >002a
0115 A51E 5C01            byte >5c, >01, >c7              ; >01c7
     A520 C75D 
0116 A522 0071            byte >5d, >00, >71              ; >0071
0117 A524 5E01            byte >5e, >01, >d3              ; >01d3
     A526 D35F 
0118 A528 0035            byte >5f, >00, >35              ; >0035
0119               level_1_010_add:
0120 A52A 0862            byte >08
0121 A52C 02AA            byte >62, >02, >aa              ; >02aa
0122 A52E 6301            byte >63, >01, >7d              ; >017d
     A530 7D64 
0123 A532 029F            byte >64, >02, >9f              ; >029f
0124 A534 6501            byte >65, >01, >fd              ; >01fd
     A536 FD66 
0125 A538 0072            byte >66, >00, >72              ; >0072
0126 A53A 6700            byte >67, >00, >36              ; >0036
     A53C 3668 
0127 A53E 01A6            byte >68, >01, >a6              ; >01a6
0128 A540 6900            byte >69, >00, >07              ; >0007
     A542 0708 
0129               level_1_011_add:
0130                      byte >08
0131 A544 7001            byte >70, >01, >a7              ; >01a7
     A546 A771 
0132 A548 0008            byte >71, >00, >08              ; >0008
0133 A54A 6A01            byte >6a, >01, >94              ; >0194
     A54C 946B 
0134 A54E 02AB            byte >6b, >02, >ab              ; >02ab
0135 A550 6C01            byte >6c, >01, >7e              ; >017e
     A552 7E6D 
0136 A554 01FE            byte >6d, >01, >fe              ; >01fe
0137 A556 6E00            byte >6e, >00, >73              ; >0073
     A558 736F 
0138 A55A 0037            byte >6f, >00, >37              ; >0037
0139               level_1_012_add:
0140 A55C 0872            byte >08
0141 A55E 02BA            byte >72, >02, >ba              ; >02ba
0142 A560 7301            byte >73, >01, >95              ; >0195
     A562 9574 
0143 A564 02AC            byte >74, >02, >ac              ; >02ac
0144 A566 7500            byte >75, >00, >0d              ; >000d
     A568 0D76 
0145 A56A 0074            byte >76, >00, >74              ; >0074
0146 A56C 7701            byte >77, >01, >d4              ; >01d4
     A56E D478 
0147 A570 0038            byte >78, >00, >38              ; >0038
0148 A572 7900            byte >79, >00, >09              ; >0009
     A574 0906 
0149               level_1_013_add:
0150                      byte >06
0151 A576 7A02            byte >7a, >02, >bb              ; >02bb
     A578 BB7B 
0152 A57A 0196            byte >7b, >01, >96              ; >0196
0153 A57C 7C02            byte >7c, >02, >ad              ; >02ad
     A57E AD7D 
0154 A580 0075            byte >7d, >00, >75              ; >0075
0155 A582 7E01            byte >7e, >01, >d5              ; >01d5
     A584 D57F 
0156 A586 0039            byte >7f, >00, >39              ; >0039
0157               level_1_014_add:
0158 A588 0380            byte >03
0159 A58A 0051            byte >80, >00, >51              ; >0051
0160 A58C 8100            byte >81, >00, >7f              ; >007f
     A58E 7F82 
0161 A590 0076            byte >82, >00, >76              ; >0076
0162               level_1_015_add:
0163 A592 0883            byte >08
0164 A594 022E            byte >83, >02, >2e              ; >022e
0165 A596 8400            byte >84, >00, >b1              ; >00b1
     A598 B185 
0166 A59A 00CA            byte >85, >00, >ca              ; >00ca
0167 A59C 8600            byte >86, >00, >17              ; >0017
     A59E 1787 
0168 A5A0 00A1            byte >87, >00, >a1              ; >00a1
0169 A5A2 8800            byte >88, >00, >3a              ; >003a
     A5A4 3A89 
0170 A5A6 01A8            byte >89, >01, >a8              ; >01a8
0171 A5A8 8A00            byte >8a, >00, >0a              ; >000a
     A5AA 0A04 
0172               level_1_016_add:
0173                      byte >04
0174 A5AC 8B00            byte >8b, >00, >7a              ; >007a
     A5AE 7A8C 
0175 A5B0 0077            byte >8c, >00, >77              ; >0077
0176 A5B2 8D00            byte >8d, >00, >3b              ; >003b
     A5B4 3B8E 
0177 A5B6 01A9            byte >8e, >01, >a9              ; >01a9
0178               level_1_017_add:
0179 A5B8 0390            byte >03
0180 A5BA 0078            byte >90, >00, >78              ; >0078
0181 A5BC 9101            byte >91, >01, >d6              ; >01d6
     A5BE D68F 
0182 A5C0 0052            byte >8f, >00, >52              ; >0052
0183               level_1_018_add:
0184 A5C2 0292            byte >02
0185 A5C4 0053            byte >92, >00, >53              ; >0053
0186 A5C6 9300            byte >93, >00, >3e              ; >003e
     A5C8 3E03 
0187               level_1_019_add:
0188                      byte >03
0189 A5CA 9400            byte >94, >00, >a7              ; >00a7
     A5CC A795 
0190 A5CE 003F            byte >95, >00, >3f              ; >003f
0191 A5D0 9600            byte >96, >00, >0c              ; >000c
     A5D2 0C03 
0192               level_1_020_add:
0193                      byte >03
0194 A5D4 9700            byte >97, >00, >3c              ; >003c
     A5D6 3C98 
0195 A5D8 01AA            byte >98, >01, >aa              ; >01aa
0196 A5DA 9900            byte >99, >00, >0b              ; >000b
     A5DC 0B03 
0197               level_1_021_add:
0198                      byte >03
0199 A5DE 9A00            byte >9a, >00, >79              ; >0079
     A5E0 799B 
0200 A5E2 01D7            byte >9b, >01, >d7              ; >01d7
0201 A5E4 9C00            byte >9c, >00, >3d              ; >003d
     A5E6 3D01 
0202               level_1_022_add:
0203                      byte >01
0204 A5E8 9D00            byte >9d, >00, >6a              ; >006a
     A5EA 6A01 
0205               level_1_023_add:
0206                      byte >01
0207 A5EC 9E01            byte >9e, >01, >33              ; >0133
     A5EE 3300 
0208               level_1_024_add:
0209                      byte >00
0210               level_1_025_add:
0211 A5F0 05A0            byte >05
0212 A5F2 017F            byte >a0, >01, >7f              ; >017f
0213 A5F4 A101            byte >a1, >01, >65              ; >0165
     A5F6 65A2 
0214 A5F8 028E            byte >a2, >02, >8e              ; >028e
0215 A5FA A300            byte >a3, >00, >a8              ; >00a8
     A5FC A89F 
0216 A5FE 02A0            byte >9f, >02, >a0              ; >02a0
0217               level_1_026_add:
0218 A600 01A4            byte >01
0219 A602 0166            byte >a4, >01, >66              ; >0166
0220               level_1_027_add:
0221 A604 03A5            byte >03
0222 A606 02A1            byte >a5, >02, >a1              ; >02a1
0223 A608 A601            byte >a6, >01, >67              ; >0167
     A60A 67A7 
0224 A60C 028F            byte >a7, >02, >8f              ; >028f
0225               level_1_028_add:
0226 A60E 05A8            byte >05
0227 A610 02AE            byte >a8, >02, >ae              ; >02ae
0228 A612 A901            byte >a9, >01, >97              ; >0197
     A614 97AA 
0229 A616 0180            byte >aa, >01, >80              ; >0180
0230 A618 AB02            byte >ab, >02, >a2              ; >02a2
     A61A A2AC 
0231 A61C 0168            byte >ac, >01, >68              ; >0168
0232               level_1_029_add:
0233 A61E 0301            byte >03
0234 A620 02A3            byte >01, >02, >a3              ; >02a3
0235 A622 0201            byte >02, >01, >07              ; >0107
     A624 07AD 
0236 A626 00EA            byte >ad, >00, >ea              ; >00ea
0237               level_1_030_add:
0238 A628 0404            byte >04
0239 A62A 02AF            byte >04, >02, >af              ; >02af
0240 A62C 0501            byte >05, >01, >81              ; >0181
     A62E 8106 
0241 A630 00E7            byte >06, >00, >e7              ; >00e7
0242 A632 0701            byte >07, >01, >08              ; >0108
     A634 0801 
0243               level_1_031_add:
0244                      byte >01
0245 A636 0301            byte >03, >01, >04              ; >0104
     A638 0400 
0246               level_1_032_add:
0247                      byte >00
0248               level_1_033_add:
0249 A63A 0000            byte >00
0250               level_1_034_add:
0251                      byte >00
0252               level_1_035_add:
0253 A63C 0000            byte >00
0254               level_1_036_add:
0255                      byte >00
0256               level_1_037_add:
0257 A63E 0004            byte >00
0258               level_1_038_add:
0259                      byte >04
0260 A640 0801            byte >08, >01, >d8              ; >01d8
     A642 D809 
0261 A644 0040            byte >09, >00, >40              ; >0040
0262 A646 0A01            byte >0a, >01, >ab              ; >01ab
     A648 AB0B 
0263 A64A 000E            byte >0b, >00, >0e              ; >000e
0264               level_1_039_add:
0265 A64C 0811            byte >08
0266 A64E 01D9            byte >11, >01, >d9              ; >01d9
0267 A650 1200            byte >12, >00, >41              ; >0041
     A652 4113 
0268 A654 01AC            byte >13, >01, >ac              ; >01ac
0269 A656 1400            byte >14, >00, >0f              ; >000f
     A658 0F0C 
0270 A65A 0049            byte >0c, >00, >49              ; >0049
0271 A65C 0D02            byte >0d, >02, >1b              ; >021b
     A65E 1B0E 
0272 A660 01FF            byte >0e, >01, >ff              ; >01ff
0273 A662 0F00            byte >0f, >00, >7b              ; >007b
     A664 7B08 
0274               level_1_040_add:
0275                      byte >08
0276 A666 1501            byte >15, >01, >20              ; >0120
     A668 2016 
0277 A66A 0258            byte >16, >02, >58              ; >0258
0278 A66C 1701            byte >17, >01, >05              ; >0105
     A66E 0518 
0279 A670 022F            byte >18, >02, >2f              ; >022f
0280 A672 1900            byte >19, >00, >cb              ; >00cb
     A674 CB1B 
0281 A676 00A9            byte >1b, >00, >a9              ; >00a9
0282 A678 1C02            byte >1c, >02, >00              ; >0200
     A67A 001D 
0283 A67C 007C            byte >1d, >00, >7c              ; >007c
0284               level_1_041_add:
0285 A67E 0720            byte >07
0286 A680 016D            byte >20, >01, >6d              ; >016d
0287 A682 2101            byte >21, >01, >06              ; >0106
     A684 0622 
0288 A686 0230            byte >22, >02, >30              ; >0230
0289 A688 2300            byte >23, >00, >cc              ; >00cc
     A68A CC24 
0290 A68C 007D            byte >24, >00, >7d              ; >007d
0291 A68E 1E00            byte >1e, >00, >af              ; >00af
     A690 AF1F 
0292 A692 0121            byte >1f, >01, >21              ; >0121
0293               level_1_042_add:
0294 A694 0325            byte >03
0295 A696 0087            byte >25, >00, >87              ; >0087
0296 A698 2602            byte >26, >02, >31              ; >0231
     A69A 3127 
0297 A69C 007E            byte >27, >00, >7e              ; >007e
0298               level_1_043_add:
0299 A69E 0628            byte >06
0300 A6A0 00B0            byte >28, >00, >b0              ; >00b0
0301 A6A2 2901            byte >29, >01, >22              ; >0122
     A6A4 222A 
0302 A6A6 00E8            byte >2a, >00, >e8              ; >00e8
0303 A6A8 2B02            byte >2b, >02, >32              ; >0232
     A6AA 322C 
0304 A6AC 00CD            byte >2c, >00, >cd              ; >00cd
0305 A6AE 2D00            byte >2d, >00, >10              ; >0010
     A6B0 1003 
0306               level_1_044_add:
0307                      byte >03
0308 A6B2 3000            byte >30, >00, >11              ; >0011
     A6B4 112E 
0309 A6B6 0042            byte >2e, >00, >42              ; >0042
0310 A6B8 2F01            byte >2f, >01, >ad              ; >01ad
     A6BA AD04 
0311               level_1_045_add:
0312                      byte >04
0313 A6BC 3102            byte >31, >02, >33              ; >0233
     A6BE 3332 
0314 A6C0 00CE            byte >32, >00, >ce              ; >00ce
0315 A6C2 3300            byte >33, >00, >43              ; >0043
     A6C4 4334 
0316 A6C6 01AE            byte >34, >01, >ae              ; >01ae
0317               level_1_046_add:
0318 A6C8 0737            byte >07
0319 A6CA 00AA            byte >37, >00, >aa              ; >00aa
0320 A6CC 3802            byte >38, >02, >01              ; >0201
     A6CE 0139 
0321 A6D0 0080            byte >39, >00, >80              ; >0080
0322 A6D2 3A01            byte >3a, >01, >da              ; >01da
     A6D4 DA3B 
0323 A6D6 0044            byte >3b, >00, >44              ; >0044
0324 A6D8 3C01            byte >3c, >01, >af              ; >01af
     A6DA AF3D 
0325 A6DC 0012            byte >3d, >00, >12              ; >0012
0326               level_1_047_add:
0327 A6DE 0840            byte >08
0328 A6E0 0265            byte >40, >02, >65              ; >0265
0329 A6E2 4101            byte >41, >01, >39              ; >0139
     A6E4 3942 
0330 A6E6 00AB            byte >42, >00, >ab              ; >00ab
0331 A6E8 4302            byte >43, >02, >02              ; >0202
     A6EA 0244 
0332 A6EC 0081            byte >44, >00, >81              ; >0081
0333 A6EE 4501            byte >45, >01, >db              ; >01db
     A6F0 DB46 
0334 A6F2 001F            byte >46, >00, >1f              ; >001f
0335 A6F4 4701            byte >47, >01, >b0              ; >01b0
     A6F6 B005 
0336               level_1_048_add:
0337                      byte >05
0338 A6F8 4802            byte >48, >02, >66              ; >0266
     A6FA 6649 
0339 A6FC 0203            byte >49, >02, >03              ; >0203
0340 A6FE 4A00            byte >4a, >00, >82              ; >0082
     A700 824B 
0341 A702 01DC            byte >4b, >01, >dc              ; >01dc
0342 A704 4C00            byte >4c, >00, >45              ; >0045
     A706 4506 
0343               level_1_049_add:
0344                      byte >06
0345 A708 5300            byte >53, >00, >cf              ; >00cf
     A70A CF54 
0346 A70C 0204            byte >54, >02, >04              ; >0204
0347 A70E 5500            byte >55, >00, >83              ; >0083
     A710 8356 
0348 A712 01DD            byte >56, >01, >dd              ; >01dd
0349 A714 4D02            byte >4d, >02, >67              ; >0267
     A716 674E 
0350 A718 0259            byte >4e, >02, >59              ; >0259
0351               level_1_050_add:
0352 A71A 0710            byte >07
0353 A71C 0169            byte >10, >01, >69              ; >0169
0354 A71E 6001            byte >60, >01, >b1              ; >01b1
     A720 B157 
0355 A722 010A            byte >57, >01, >0a              ; >010a
0356 A724 5800            byte >58, >00, >ac              ; >00ac
     A726 AC59 
0357 A728 00A3            byte >59, >00, >a3              ; >00a3
0358 A72A 5E01            byte >5e, >01, >de              ; >01de
     A72C DE5F 
0359 A72E 0046            byte >5f, >00, >46              ; >0046
0360               level_1_051_add:
0361 A730 0761            byte >07
0362 A732 0109            byte >61, >01, >09              ; >0109
0363 A734 6201            byte >62, >01, >0b              ; >010b
     A736 0B63 
0364 A738 0123            byte >63, >01, >23              ; >0123
0365 A73A 6400            byte >64, >00, >d0              ; >00d0
     A73C D066 
0366 A73E 00AD            byte >66, >00, >ad              ; >00ad
0367 A740 6702            byte >67, >02, >05              ; >0205
     A742 054F 
0368 A744 016A            byte >4f, >01, >6a              ; >016a
0369               level_1_052_add:
0370 A746 0970            byte >09
0371 A748 0047            byte >70, >00, >47              ; >0047
0372 A74A 6800            byte >68, >00, >85              ; >0085
     A74C 8569 
0373 A74E 00D1            byte >69, >00, >d1              ; >00d1
0374 A750 5A00            byte >5a, >00, >50              ; >0050
     A752 506A 
0375 A754 01C3            byte >6a, >01, >c3              ; >01c3
0376 A756 6B00            byte >6b, >00, >ae              ; >00ae
     A758 AE6C 
0377 A75A 0206            byte >6c, >02, >06              ; >0206
0378 A75C 6E00            byte >6e, >00, >84              ; >0084
     A75E 846F 
0379 A760 01DF            byte >6f, >01, >df              ; >01df
0380               level_1_053_add:
0381 A762 0550            byte >05
0382 A764 0125            byte >50, >01, >25              ; >0125
0383 A766 7101            byte >71, >01, >34              ; >0134
     A768 3472 
0384 A76A 0086            byte >72, >00, >86              ; >0086
0385 A76C 7300            byte >73, >00, >48              ; >0048
     A76E 4874 
0386 A770 0016            byte >74, >00, >16              ; >0016
0387               level_1_054_add:
0388 A772 0476            byte >04
0389 A774 0135            byte >76, >01, >35              ; >0135
0390 A776 7701            byte >77, >01, >b2              ; >01b2
     A778 B278 
0391 A77A 0006            byte >78, >00, >06              ; >0006
0392 A77C 6D00            byte >6d, >00, >89              ; >0089
     A77E 8905 
0393               level_1_055_add:
0394                      byte >05
0395 A780 7A01            byte >7a, >01, >36              ; >0136
     A782 367B 
0396 A784 01B3            byte >7b, >01, >b3              ; >01b3
0397 A786 7C00            byte >7c, >00, >13              ; >0013
     A788 133E 
0398 A78A 014F            byte >3e, >01, >4f              ; >014f
0399 A78C 3F02            byte >3f, >02, >78              ; >0278
     A78E 7805 
0400               level_1_056_add:
0401                      byte >05
0402 A790 3500            byte >35, >00, >8c              ; >008c
     A792 8C36 
0403 A794 00E9            byte >36, >00, >e9              ; >00e9
0404 A796 7D01            byte >7d, >01, >e0              ; >01e0
     A798 E07E 
0405 A79A 004A            byte >7e, >00, >4a              ; >004a
0406 A79C 7F01            byte >7f, >01, >b4              ; >01b4
     A79E B402 
0407               level_1_057_add:
0408                      byte >02
0409 A7A0 8201            byte >82, >01, >37              ; >0137
     A7A2 3788 
0410 A7A4 004B            byte >88, >00, >4b              ; >004b
0411               level_1_058_add:
0412 A7A6 0301            byte >03
0413 A7A8 008D            byte >01, >00, >8d              ; >008d
0414 A7AA 8900            byte >89, >00, >4c              ; >004c
     A7AC 4C5B 
0415 A7AE 01E1            byte >5b, >01, >e1              ; >01e1
0416               level_1_059_add:
0417 A7B0 0104            byte >01
0418 A7B2 0124            byte >04, >01, >24              ; >0124
0419               level_1_060_add:
0420 A7B4 0651            byte >06
0421 A7B6 0070            byte >51, >00, >70              ; >0070
0422 A7B8 5202            byte >52, >02, >68              ; >0268
     A7BA 6883 
0423 A7BC 01B5            byte >83, >01, >b5              ; >01b5
0424 A7BE 0501            byte >05, >01, >c4              ; >01c4
     A7C0 C45C 
0425 A7C2 01E2            byte >5c, >01, >e2              ; >01e2
0426 A7C4 5D00            byte >5d, >00, >4d              ; >004d
     A7C6 4D03 
0427               level_1_061_add:
0428                      byte >03
0429 A7C8 6501            byte >65, >01, >c5              ; >01c5
     A7CA C58A 
0430 A7CC 0071            byte >8a, >00, >71              ; >0071
0431 A7CE 8B02            byte >8b, >02, >69              ; >0269
     A7D0 6901 
0432               level_1_062_add:
0433                      byte >01
0434 A7D2 8C01            byte >8c, >01, >fd              ; >01fd
     A7D4 FD02 
0435               level_1_063_add:
0436                      byte >02
0437 A7D6 8D01            byte >8d, >01, >fe              ; >01fe
     A7D8 FE8E 
0438 A7DA 0088            byte >8e, >00, >88              ; >0088
0439               level_1_064_add:
0440 A7DC 0103            byte >01
0441 A7DE 0138            byte >03, >01, >38              ; >0138
0442               level_1_065_add:
0443 A7E0 0001            byte >00
0444               level_1_066_add:
0445                      byte >01
0446 A7E2 9001            byte >90, >01, >e3              ; >01e3
     A7E4 E306 
0447               level_1_067_add:
0448                      byte >06
0449 A7E6 9100            byte >91, >00, >d2              ; >00d2
     A7E8 D297 
0450 A7EA 008A            byte >97, >00, >8a              ; >008a
0451 A7EC 9801            byte >98, >01, >e4              ; >01e4
     A7EE E499 
0452 A7F0 004E            byte >99, >00, >4e              ; >004e
0453 A7F2 9A01            byte >9a, >01, >b6              ; >01b6
     A7F4 B69B 
0454 A7F6 0014            byte >9b, >00, >14              ; >0014
0455               level_1_068_add:
0456 A7F8 019C            byte >01
0457 A7FA 0234            byte >9c, >02, >34              ; >0234
0458               level_1_069_add:
0459 A7FC 0416            byte >04
0460 A7FE 0235            byte >16, >02, >35              ; >0235
0461 A800 0800            byte >08, >00, >2a              ; >002a
     A802 2A0A 
0462 A804 01C7            byte >0a, >01, >c7              ; >01c7
0463 A806 0B01            byte >0b, >01, >33              ; >0133
     A808 3301 
0464               level_1_070_add:
0465                      byte >01
0466 A80A 1101            byte >11, >01, >c6              ; >01c6
     A80C C606 
0467               level_1_071_add:
0468                      byte >06
0469 A80E 2000            byte >20, >00, >4f              ; >004f
     A810 4F13 
0470 A812 02B0            byte >13, >02, >b0              ; >02b0
0471 A814 1400            byte >14, >00, >8b              ; >008b
     A816 8B24 
0472 A818 01B7            byte >24, >01, >b7              ; >01b7
0473 A81A 2700            byte >27, >00, >15              ; >0015
     A81C 151D 
0474 A81E 0183            byte >1d, >01, >83              ; >0183
0475               level_1_072_add:
0476 A820 010F            byte >01
0477 A822 026B            byte >0f, >02, >6b              ; >026b
0478               level_1_073_add:
0479 A824 0294            byte >02
0480 A826 0290            byte >94, >02, >90              ; >0290
0481 A828 9E02            byte >9e, >02, >6a              ; >026a
     A82A 6A00 
0482               level_1_074_add:
0483                      byte >00
0484               level_1_075_add:
0485 A82C 0131            byte >01
0486 A82E 016B            byte >31, >01, >6b              ; >016b
0487               level_1_076_add:
0488 A830 0003            byte >00
0489               level_1_077_add:
0490                      byte >03
0491 A832 3202            byte >32, >02, >65              ; >0265
     A834 6537 
0492 A836 0233            byte >37, >02, >33              ; >0233
0493 A838 3800            byte >38, >00, >ce              ; >00ce
     A83A CE07 
0494               level_1_078_add:
0495                      byte >07
0496 A83C 4001            byte >40, >01, >da              ; >01da
     A83E DA41 
0497 A840 0044            byte >41, >00, >44              ; >0044
0498 A842 4201            byte >42, >01, >af              ; >01af
     A844 AF39 
0499 A846 0266            byte >39, >02, >66              ; >0266
0500 A848 3A00            byte >3a, >00, >aa              ; >00aa
     A84A AA3B 
0501 A84C 0201            byte >3b, >02, >01              ; >0201
0502 A84E 3C00            byte >3c, >00, >80              ; >0080
     A850 8003 
0503               level_1_079_add:
0504                      byte >03
0505 A852 1002            byte >10, >02, >67              ; >0267
     A854 6743 
0506 A856 0202            byte >43, >02, >02              ; >0202
0507 A858 1700            byte >17, >00, >ab              ; >00ab
     A85A AB04 
0508               level_1_080_add:
0509                      byte >04
0510 A85C 2102            byte >21, >02, >03              ; >0203
     A85E 0348 
0511 A860 0082            byte >48, >00, >82              ; >0082
0512 A862 4901            byte >49, >01, >dc              ; >01dc
     A864 DC4A 
0513 A866 0045            byte >4a, >00, >45              ; >0045
0514               level_1_081_add:
0515 A868 044B            byte >04
0516 A86A 02A4            byte >4b, >02, >a4              ; >02a4
0517 A86C 4C01            byte >4c, >01, >6c              ; >016c
     A86E 6C4D 
0518 A870 00EC            byte >4d, >00, >ec              ; >00ec
0519 A872 4E00            byte >4e, >00, >cf              ; >00cf
     A874 CF05 
0520               level_1_082_add:
0521                      byte >05
0522 A876 6001            byte >60, >01, >b1              ; >01b1
     A878 B153 
0523 A87A 0105            byte >53, >01, >05              ; >0105
0524 A87C 5E01            byte >5e, >01, >de              ; >01de
     A87E DE4F 
0525 A880 0169            byte >4f, >01, >69              ; >0169
0526 A882 5F00            byte >5f, >00, >46              ; >0046
     A884 4603 
0527               level_1_083_add:
0528                      byte >03
0529 A886 6B01            byte >6b, >01, >6d              ; >016d
     A888 6D6C 
0530 A88A 0106            byte >6c, >01, >06              ; >0106
0531 A88C 6E00            byte >6e, >00, >d3              ; >00d3
     A88E D306 
0532               level_1_084_add:
0533                      byte >06
0534 A890 7000            byte >70, >00, >47              ; >0047
     A892 4761 
0535 A894 0206            byte >61, >02, >06              ; >0206
0536 A896 6400            byte >64, >00, >84              ; >0084
     A898 843E 
0537 A89A 00EB            byte >3e, >00, >eb              ; >00eb
0538 A89C 3F00            byte >3f, >00, >ae              ; >00ae
     A89E AE6F 
0539 A8A0 01DF            byte >6f, >01, >df              ; >01df
0540               level_1_085_add:
0541 A8A2 0271            byte >02
0542 A8A4 0109            byte >71, >01, >09              ; >0109
0543 A8A6 3601            byte >36, >01, >39              ; >0139
     A8A8 3903 
0544               level_1_086_add:
0545                      byte >03
0546 A8AA 5001            byte >50, >01, >35              ; >0135
     A8AC 3576 
0547 A8AE 01B2            byte >76, >01, >b2              ; >01b2
0548 A8B0 7700            byte >77, >00, >06              ; >0006
     A8B2 0606 
0549               level_1_087_add:
0550                      byte >06
0551 A8B4 7801            byte >78, >01, >6a              ; >016a
     A8B6 6A7A 
0552 A8B8 014F            byte >7a, >01, >4f              ; >014f
0553 A8BA 7B02            byte >7b, >02, >78              ; >0278
     A8BC 787C 
0554 A8BE 0136            byte >7c, >01, >36              ; >0136
0555 A8C0 7D01            byte >7d, >01, >b3              ; >01b3
     A8C2 B37E 
0556 A8C4 0013            byte >7e, >00, >13              ; >0013
0557               level_1_088_add:
0558 A8C6 03A0            byte >03
0559 A8C8 01B4            byte >a0, >01, >b4              ; >01b4
0560 A8CA 7F01            byte >7f, >01, >e0              ; >01e0
     A8CC E09F 
0561 A8CE 004A            byte >9f, >00, >4a              ; >004a
0562               level_1_089_add:
0563 A8D0 02A1            byte >02
0564 A8D2 0125            byte >a1, >01, >25              ; >0125
0565 A8D4 5201            byte >52, >01, >82              ; >0182
     A8D6 8200 
0566               level_1_090_add:
0567                      byte >00
0568               level_1_091_add:
0569 A8D8 018B            byte >01
0570 A8DA 010C            byte >8b, >01, >0c              ; >010c
0571               level_1_092_add:
0572 A8DC 0001            byte >00
0573               level_1_093_add:
0574                      byte >01
0575 A8DE 1802            byte >18, >02, >b1              ; >02b1
     A8E0 B101 
0576               level_1_094_add:
0577                      byte >01
0578 A8E2 2202            byte >22, >02, >b2              ; >02b2
     A8E4 B200 
0579               level_1_095_add:
0580                      byte >00
0581               level_1_096_add:
0582 A8E6 0123            byte >01
0583 A8E8 0236            byte >23, >02, >36              ; >0236
0584               level_1_097_add:
0585 A8EA 0205            byte >02
0586 A8EC 0237            byte >05, >02, >37              ; >0237
0587 A8EE 8D00            byte >8d, >00, >cc              ; >00cc
     A8F0 CC01 
0588               level_1_098_add:
0589                      byte >01
0590 A8F2 0801            byte >08, >01, >e3              ; >01e3
     A8F4 E304 
0591               level_1_099_add:
0592                      byte >04
0593 A8F6 1100            byte >11, >00, >4e              ; >004e
     A8F8 4E51 
0594 A8FA 0014            byte >51, >00, >14              ; >0014
0595 A8FC 1601            byte >16, >01, >b6              ; >01b6
     A8FE B60B 
0596 A900 00D2            byte >0b, >00, >d2              ; >00d2
0597               level_1_100_add:
0598 A902 010A            byte >01
0599 A904 0234            byte >0a, >02, >34              ; >0234
0600               level_1_101_add:
0601 A906 0113            byte >01
0602 A908 0235            byte >13, >02, >35              ; >0235
0603               level_1_102_add:
0604 A90A 0004            byte >00
0605               level_1_103_add:
0606                      byte >04
0607 A90C 2001            byte >20, >01, >b7              ; >01b7
     A90E B714 
0608 A910 004F            byte >14, >00, >4f              ; >004f
0609 A912 2400            byte >24, >00, >15              ; >0015
     A914 150F 
0610 A916 008B            byte >0f, >00, >8b              ; >008b
0611               level_1_104_add:
0612 A918 0431            byte >04
0613 A91A 01C4            byte >31, >01, >c4              ; >01c4
0614 A91C 6500            byte >65, >00, >70              ; >0070
     A91E 7027 
0615 A920 026B            byte >27, >02, >6b              ; >026b
0616 A922 8A02            byte >8a, >02, >38              ; >0238
     A924 3804 
0617               level_1_105_add:
0618                      byte >04
0619 A926 9001            byte >90, >01, >c5              ; >01c5
     A928 C591 
0620 A92A 0071            byte >91, >00, >71              ; >0071
0621 A92C 9402            byte >94, >02, >39              ; >0239
     A92E 398C 
0622 A930 026A            byte >8c, >02, >6a              ; >026a
0623               level_1_106_add:
0624 A932 0132            byte >01
0625 A934 01FD            byte >32, >01, >fd              ; >01fd
0626               level_1_107_add:
0627 A936 0137            byte >01
0628 A938 01FE            byte >37, >01, >fe              ; >01fe
0629               level_1_108_add:
0630 A93A 0003            byte >00
0631               level_1_109_add:
0632                      byte >03
0633 A93C 1002            byte >10, >02, >90              ; >0290
     A93E 9021 
0634 A940 00CE            byte >21, >00, >ce              ; >00ce
0635 A942 1702            byte >17, >02, >33              ; >0233
     A944 3300 
0636               level_1_110_add:
0637                      byte >00
0638               level_1_111_add:
0639 A946 0430            byte >04
0640 A948 0184            byte >30, >01, >84              ; >0184
0641 A94A 3301            byte >33, >01, >6b              ; >016b
     A94C 6B34 
0642 A94E 003F            byte >34, >00, >3f              ; >003f
0643 A950 3800            byte >38, >00, >19              ; >0019
     A952 1902 
0644               level_1_112_add:
0645                      byte >02
0646 A954 3900            byte >39, >00, >54              ; >0054
     A956 543A 
0647 A958 008E            byte >3a, >00, >8e              ; >008e
0648               level_1_113_add:
0649 A95A 0640            byte >06
0650 A95C 0055            byte >40, >00, >55              ; >0055
0651 A95E 4101            byte >41, >01, >b8              ; >01b8
     A960 B842 
0652 A962 001A            byte >42, >00, >1a              ; >001a
0653 A964 3B02            byte >3b, >02, >b3              ; >02b3
     A966 B33C 
0654 A968 0291            byte >3c, >02, >91              ; >0291
0655 A96A 3F01            byte >3f, >01, >50              ; >0150
     A96C 5007 
0656               level_1_114_add:
0657                      byte >07
0658 A96E 4300            byte >43, >00, >ed              ; >00ed
     A970 ED44 
0659 A972 01E5            byte >44, >01, >e5              ; >01e5
0660 A974 4500            byte >45, >00, >56              ; >0056
     A976 5636 
0661 A978 024B            byte >36, >02, >4b              ; >024b
0662 A97A 4601            byte >46, >01, >b9              ; >01b9
     A97C B947 
0663 A97E 001B            byte >47, >00, >1b              ; >001b
0664 A980 2D01            byte >2d, >01, >26              ; >0126
     A982 2605 
0665               level_1_115_add:
0666                      byte >05
0667 A984 4800            byte >48, >00, >ee              ; >00ee
     A986 EE49 
0668 A988 01E6            byte >49, >01, >e6              ; >01e6
0669 A98A 4A00            byte >4a, >00, >1c              ; >001c
     A98C 1C2E 
0670 A98E 0127            byte >2e, >01, >27              ; >0127
0671 A990 2F02            byte >2f, >02, >4c              ; >024c
     A992 4C06 
0672               level_1_116_add:
0673                      byte >06
0674 A994 5000            byte >50, >00, >ef              ; >00ef
     A996 EF54 
0675 A998 0057            byte >54, >00, >57              ; >0057
0676 A99A 5501            byte >55, >01, >ba              ; >01ba
     A99C BA56 
0677 A99E 001D            byte >56, >00, >1d              ; >001d
0678 A9A0 4B01            byte >4b, >01, >0d              ; >010d
     A9A2 0D4E 
0679 A9A4 024D            byte >4e, >02, >4d              ; >024d
0680               level_1_117_add:
0681 A9A6 0760            byte >07
0682 A9A8 01BB            byte >60, >01, >bb              ; >01bb
0683 A9AA 6100            byte >61, >00, >1e              ; >001e
     A9AC 1E58 
0684 A9AE 024E            byte >58, >02, >4e              ; >024e
0685 A9B0 5900            byte >59, >00, >f0              ; >00f0
     A9B2 F03D 
0686 A9B4 010E            byte >3d, >01, >0e              ; >010e
0687 A9B6 5E01            byte >5e, >01, >e7              ; >01e7
     A9B8 E75F 
0688 A9BA 0058            byte >5f, >00, >58              ; >0058
0689               level_1_118_add:
0690 A9BC 0B70            byte >0b
0691 A9BE 001F            byte >70, >00, >1f              ; >001f
0692 A9C0 5201            byte >52, >01, >6e              ; >016e
     A9C2 6E64 
0693 A9C4 00F1            byte >64, >00, >f1              ; >00f1
0694 A9C6 6602            byte >66, >02, >08              ; >0208
     A9C8 0867 
0695 A9CA 0092            byte >67, >00, >92              ; >0092
0696 A9CC 6901            byte >69, >01, >eb              ; >01eb
     A9CE EB6A 
0697 A9D0 008F            byte >6a, >00, >8f              ; >008f
0698 A9D2 6B01            byte >6b, >01, >e8              ; >01e8
     A9D4 E86E 
0699 A9D6 0059            byte >6e, >00, >59              ; >0059
0700 A9D8 1F01            byte >1f, >01, >0f              ; >010f
     A9DA 0F6F 
0701 A9DC 01BC            byte >6f, >01, >bc              ; >01bc
0702               level_1_119_add:
0703 A9DE 0A95            byte >0a
0704 A9E0 01BD            byte >95, >01, >bd              ; >01bd
0705 A9E2 7600            byte >76, >00, >22              ; >0022
     A9E4 2257 
0706 A9E6 0110            byte >57, >01, >10              ; >0110
0707 A9E8 9900            byte >99, >00, >20              ; >0020
     A9EA 207A 
0708 A9EC 00F2            byte >7a, >00, >f2              ; >00f2
0709 A9EE 7B02            byte >7b, >02, >09              ; >0209
     A9F0 097C 
0710 A9F2 00B2            byte >7c, >00, >b2              ; >00b2
0711 A9F4 7D00            byte >7d, >00, >90              ; >0090
     A9F6 907E 
0712 A9F8 01E9            byte >7e, >01, >e9              ; >01e9
0713 A9FA 7F00            byte >7f, >00, >5a              ; >005a
     A9FC 5A08 
0714               level_1_120_add:
0715                      byte >08
0716 A9FE 6302            byte >63, >02, >1c              ; >021c
     AA00 1C9A 
0717 AA02 0207            byte >9a, >02, >07              ; >0207
0718 AA04 8B00            byte >8b, >00, >b3              ; >00b3
     AA06 B39B 
0719 AA08 0091            byte >9b, >00, >91              ; >0091
0720 AA0A 4C01            byte >4c, >01, >3a              ; >013a
     AA0C 3A9C 
0721 AA0E 01EA            byte >9c, >01, >ea              ; >01ea
0722 AA10 4D00            byte >4d, >00, >69              ; >0069
     AA12 699E 
0723 AA14 005B            byte >9e, >00, >5b              ; >005b
0724               level_1_121_add:
0725 AA16 0303            byte >03
0726 AA18 00D4            byte >03, >00, >d4              ; >00d4
0727 AA1A 6801            byte >68, >01, >3b              ; >013b
     AA1C 3B9F 
0728 AA1E 0028            byte >9f, >00, >28              ; >0028
0729               level_1_122_add:
0730 AA20 04A0            byte >04
0731 AA22 01BE            byte >a0, >01, >be              ; >01be
0732 AA24 7102            byte >71, >02, >5a              ; >025a
     AA26 5A62 
0733 AA28 013C            byte >62, >01, >3c              ; >013c
0734 AA2A 7200            byte >72, >00, >5c              ; >005c
     AA2C 5C07 
0735               level_1_123_add:
0736                      byte >07
0737 AA2E A201            byte >a2, >01, >3d              ; >013d
     AA30 3DA3 
0738 AA32 0185            byte >a3, >01, >85              ; >0185
0739 AA34 A402            byte >a4, >02, >5b              ; >025b
     AA36 5BA5 
0740 AA38 0111            byte >a5, >01, >11              ; >0111
0741 AA3A A600            byte >a6, >00, >93              ; >0093
     AA3C 93A7 
0742 AA3E 01EC            byte >a7, >01, >ec              ; >01ec
0743 AA40 A800            byte >a8, >00, >ad              ; >00ad
     AA42 AD09 
0744               level_1_124_add:
0745                      byte >09
0746 AA44 B000            byte >b0, >00, >5d              ; >005d
     AA46 5DA1 
0747 AA48 016F            byte >a1, >01, >6f              ; >016f
0748 AA4A B101            byte >b1, >01, >bf              ; >01bf
     AA4C BFA9 
0749 AA4E 0279            byte >a9, >02, >79              ; >0279
0750 AA50 AA01            byte >aa, >01, >51              ; >0151
     AA52 51AB 
0751 AA54 013E            byte >ab, >01, >3e              ; >013e
0752 AA56 AC02            byte >ac, >02, >0a              ; >020a
     AA58 0AAE 
0753 AA5A 0094            byte >ae, >00, >94              ; >0094
0754 AA5C AF01            byte >af, >01, >ed              ; >01ed
     AA5E ED08 
0755               level_1_125_add:
0756                      byte >08
0757 AA60 B201            byte >b2, >01, >f4              ; >01f4
     AA62 F423 
0758 AA64 0152            byte >23, >01, >52              ; >0152
0759 AA66 8300            byte >83, >00, >9a              ; >009a
     AA68 9AB3 
0760 AA6A 0095            byte >b3, >00, >95              ; >0095
0761 AA6C B401            byte >b4, >01, >ee              ; >01ee
     AA6E EEB5 
0762 AA70 005E            byte >b5, >00, >5e              ; >005e
0763 AA72 5C01            byte >5c, >01, >3f              ; >013f
     AA74 3F5D 
0764 AA76 026C            byte >5d, >02, >6c              ; >026c
0765               level_1_126_add:
0766 AA78 0405            byte >04
0767 AA7A 0198            byte >05, >01, >98              ; >0198
0768 AA7C B600            byte >b6, >00, >b4              ; >00b4
     AA7E B4B7 
0769 AA80 01EF            byte >b7, >01, >ef              ; >01ef
0770 AA82 8D02            byte >8d, >02, >7a              ; >027a
     AA84 7A05 
0771               level_1_127_add:
0772                      byte >05
0773 AA86 0800            byte >08, >00, >b5              ; >00b5
     AA88 B5B8 
0774 AA8A 0128            byte >b8, >01, >28              ; >0128
0775 AA8C B900            byte >b9, >00, >96              ; >0096
     AA8E 96BA 
0776 AA90 01F0            byte >ba, >01, >f0              ; >01f0
0777 AA92 BB00            byte >bb, >00, >5f              ; >005f
     AA94 5F06 
0778               level_1_128_add:
0779                      byte >06
0780 AA96 1100            byte >11, >00, >b6              ; >00b6
     AA98 B651 
0781 AA9A 0097            byte >51, >00, >97              ; >0097
0782 AA9C 1600            byte >16, >00, >62              ; >0062
     AA9E 6298 
0783 AAA0 01F1            byte >98, >01, >f1              ; >01f1
0784 AAA2 0B02            byte >0b, >02, >1d              ; >021d
     AAA4 1DBC 
0785 AAA6 0060            byte >bc, >00, >60              ; >0060
0786               level_1_129_add:
0787 AAA8 0BC0            byte >0b
0788 AAAA 00F3            byte >c0, >00, >f3              ; >00f3
0789 AAAC C102            byte >c1, >02, >3a              ; >023a
     AAAE 3AC2 
0790 AAB0 021E            byte >c2, >02, >1e              ; >021e
0791 AAB2 C300            byte >c3, >00, >21              ; >0021
     AAB4 21C4 
0792 AAB6 020B            byte >c4, >02, >0b              ; >020b
0793 AAB8 C500            byte >c5, >00, >98              ; >0098
     AABA 98C6 
0794 AABC 01F2            byte >c6, >01, >f2              ; >01f2
0795 AABE 0A02            byte >0a, >02, >92              ; >0292
     AAC0 92BD 
0796 AAC2 0153            byte >bd, >01, >53              ; >0153
0797 AAC4 BE02            byte >be, >02, >7b              ; >027b
     AAC6 7BBF 
0798 AAC8 0140            byte >bf, >01, >40              ; >0140
0799               level_1_130_add:
0800 AACA 0B13            byte >0b
0801 AACC 0154            byte >13, >01, >54              ; >0154
0802 AACE C701            byte >c7, >01, >41              ; >0141
     AAD0 4188 
0803 AAD2 027C            byte >88, >02, >7c              ; >027c
0804 AAD4 C800            byte >c8, >00, >d5              ; >00d5
     AAD6 D5C9 
0805 AAD8 021F            byte >c9, >02, >1f              ; >021f
0806 AADA CA00            byte >ca, >00, >b7              ; >00b7
     AADC B7CB 
0807 AADE 020C            byte >cb, >02, >0c              ; >020c
0808 AAE0 0C02            byte >0c, >02, >93              ; >0293
     AAE2 93CC 
0809 AAE4 0099            byte >cc, >00, >99              ; >0099
0810 AAE6 CD01            byte >cd, >01, >f3              ; >01f3
     AAE8 F3CE 
0811 AAEA 0061            byte >ce, >00, >61              ; >0061
0812               level_1_131_add:
0813 AAEC 06D0            byte >06
0814 AAEE 00B8            byte >d0, >00, >b8              ; >00b8
0815 AAF0 D100            byte >d1, >00, >23              ; >0023
     AAF2 23D2 
0816 AAF4 0172            byte >d2, >01, >72              ; >0172
0817 AAF6 8901            byte >89, >01, >42              ; >0142
     AAF8 425B 
0818 AAFA 027D            byte >5b, >02, >7d              ; >027d
0819 AAFC CF00            byte >cf, >00, >ba              ; >00ba
     AAFE BA05 
0820               level_1_132_add:
0821                      byte >05
0822 AB00 2002            byte >20, >02, >94              ; >0294
     AB02 9414 
0823 AB04 012C            byte >14, >01, >2c              ; >012c
0824 AB06 2401            byte >24, >01, >15              ; >0115
     AB08 151E 
0825 AB0A 0170            byte >1e, >01, >70              ; >0170
0826 AB0C 0F01            byte >0f, >01, >16              ; >0116
     AB0E 1607 
0827               level_1_133_add:
0828                      byte >07
0829 AB10 D301            byte >d3, >01, >43              ; >0143
     AB12 43D4 
0830 AB14 018B            byte >d4, >01, >8b              ; >018b
0831 AB16 3501            byte >35, >01, >2d              ; >012d
     AB18 2DD5 
0832 AB1A 009B            byte >d5, >00, >9b              ; >009b
0833 AB1C D600            byte >d6, >00, >63              ; >0063
     AB1E 6327 
0834 AB20 0186            byte >27, >01, >86              ; >0186
0835 AB22 8A01            byte >8a, >01, >71              ; >0171
     AB24 7101 
0836               level_1_134_add:
0837                      byte >01
0838 AB26 9400            byte >94, >00, >f4              ; >00f4
     AB28 F408 
0839               level_1_135_add:
0840                      byte >08
0841 AB2A D700            byte >d7, >00, >a0              ; >00a0
     AB2C A0D8 
0842 AB2E 0199            byte >d8, >01, >99              ; >0199
0843 AB30 D902            byte >d9, >02, >6d              ; >026d
     AB32 6DDA 
0844 AB34 0129            byte >da, >01, >29              ; >0129
0845 AB36 DB00            byte >db, >00, >f5              ; >00f5
     AB38 F5DC 
0846 AB3A 0220            byte >dc, >02, >20              ; >0220
0847 AB3C DD00            byte >dd, >00, >b9              ; >00b9
     AB3E B9DE 
0848 AB40 009C            byte >de, >00, >9c              ; >009c
0849               level_1_136_add:
0850 AB42 0718            byte >07
0851 AB44 018C            byte >18, >01, >8c              ; >018c
0852 AB46 0901            byte >09, >01, >55              ; >0155
     AB48 552B 
0853 AB4A 00D6            byte >2b, >00, >d6              ; >00d6
0854 AB4C 2C02            byte >2c, >02, >21              ; >0221
     AB4E 210D 
0855 AB50 027E            byte >0d, >02, >7e              ; >027e
0856 AB52 1D01            byte >1d, >01, >73              ; >0173
     AB54 730E 
0857 AB56 0144            byte >0e, >01, >44              ; >0144
0858               level_1_137_add:
0859 AB58 0701            byte >07
0860 AB5A 00F8            byte >01, >00, >f8              ; >00f8
0861 AB5C 1201            byte >12, >01, >56              ; >0156
     AB5E 5622 
0862 AB60 00D7            byte >22, >00, >d7              ; >00d7
0863 AB62 2602            byte >26, >02, >22              ; >0222
     AB64 2219 
0864 AB66 027F            byte >19, >02, >7f              ; >027f
0865 AB68 1B01            byte >1b, >01, >8a              ; >018a
     AB6A 8A1C 
0866 AB6C 0112            byte >1c, >01, >12              ; >0112
0867               level_1_138_add:
0868 AB6E 0310            byte >03
0869 AB70 019A            byte >10, >01, >9a              ; >019a
0870 AB72 2100            byte >21, >00, >d8              ; >00d8
     AB74 D817 
0871 AB76 02B4            byte >17, >02, >b4              ; >02b4
0872               level_1_139_add:
0873 AB78 0482            byte >04
0874 AB7A 012A            byte >82, >01, >2a              ; >012a
0875 AB7C 7302            byte >73, >02, >b5              ; >02b5
     AB7E B574 
0876 AB80 0187            byte >74, >01, >87              ; >0187
0877 AB82 6D01            byte >6d, >01, >9b              ; >019b
     AB84 9B02 
0878               level_1_140_add:
0879                      byte >02
0880 AB86 2902            byte >29, >02, >bc              ; >02bc
     AB88 BC2A 
0881 AB8A 018D            byte >2a, >01, >8d              ; >018d
0882               level_1_141_add:
0883 AB8C 0530            byte >05
0884 AB8E 0188            byte >30, >01, >88              ; >0188
0885 AB90 3100            byte >31, >00, >f6              ; >00f6
     AB92 F632 
0886 AB94 023B            byte >32, >02, >3b              ; >023b
0887 AB96 3300            byte >33, >00, >d9              ; >00d9
     AB98 D925 
0888 AB9A 0174            byte >25, >01, >74              ; >0174
0889               level_1_142_add:
0890 AB9C 0204            byte >02
0891 AB9E 024F            byte >04, >02, >4f              ; >024f
0892 ABA0 2800            byte >28, >00, >f7              ; >00f7
     ABA2 F704 
0893               level_1_143_add:
0894                      byte >04
0895 ABA4 3402            byte >34, >02, >23              ; >0223
     ABA6 2315 
0896 ABA8 023C            byte >15, >02, >3c              ; >023c
0897 ABAA 3700            byte >37, >00, >bb              ; >00bb
     ABAC BB2D 
0898 ABAE 00DA            byte >2d, >00, >da              ; >00da
0899               level_1_144_add:
0900 ABB0 0643            byte >06
0901 ABB2 00BC            byte >43, >00, >bc              ; >00bc
0902 ABB4 3B00            byte >3b, >00, >f9              ; >00f9
     ABB6 F93C 
0903 ABB8 023D            byte >3c, >02, >3d              ; >023d
0904 ABBA 2E02            byte >2e, >02, >50              ; >0250
     ABBC 503E 
0905 ABBE 00DB            byte >3e, >00, >db              ; >00db
0906 ABC0 3F02            byte >3f, >02, >24              ; >0224
     ABC2 2402 
0907               level_1_145_add:
0908                      byte >02
0909 ABC4 4802            byte >48, >02, >a5              ; >02a5
     ABC6 A54F 
0910 ABC8 0251            byte >4f, >02, >51              ; >0251
0911               level_1_146_add:
0912 ABCA 0350            byte >03
0913 ABCC 025C            byte >50, >02, >5c              ; >025c
0914 ABCE 5301            byte >53, >01, >13              ; >0113
     ABD0 135A 
0915 ABD2 00FA            byte >5a, >00, >fa              ; >00fa
0916               level_1_147_add:
0917 ABD4 0465            byte >04
0918 ABD6 0114            byte >65, >01, >14              ; >0114
0919 ABD8 3601            byte >36, >01, >9c              ; >019c
     ABDA 9C4B 
0920 ABDC 025D            byte >4b, >02, >5d              ; >025d
0921 ABDE 6C02            byte >6c, >02, >52              ; >0252
     ABE0 5205 
0922               level_1_148_add:
0923                      byte >05
0924 ABE2 8000            byte >80, >00, >64              ; >0064
     ABE4 6484 
0925 ABE6 01C0            byte >84, >01, >c0              ; >01c0
0926 ABE8 7801            byte >78, >01, >f5              ; >01f5
     ABEA F53D 
0927 ABEC 012B            byte >3d, >01, >2b              ; >012b
0928 ABEE 2F02            byte >2f, >02, >6e              ; >026e
     ABF0 6E07 
0929               level_1_149_add:
0930                      byte >07
0931 ABF2 9000            byte >90, >00, >25              ; >0025
     ABF4 2585 
0932 ABF6 020D            byte >85, >02, >0d              ; >020d
0933 ABF8 8600            byte >86, >00, >9d              ; >009d
     ABFA 9D4C 
0934 ABFC 0175            byte >4c, >01, >75              ; >0175
0935 ABFE 8C00            byte >8c, >00, >65              ; >0065
     AC00 654E 
0936 AC02 026F            byte >4e, >02, >6f              ; >026f
0937 AC04 8E01            byte >8e, >01, >c1              ; >01c1
     AC06 C109 
0938               level_1_150_add:
0939                      byte >09
0940 AC08 E000            byte >e0, >00, >66              ; >0066
     AC0A 6691 
0941 AC0C 00BD            byte >91, >00, >bd              ; >00bd
0942 AC0E 0202            byte >02, >02, >95              ; >0295
     AC10 9597 
0943 AC12 020E            byte >97, >02, >0e              ; >020e
0944 AC14 5801            byte >58, >01, >57              ; >0157
     AC16 5768 
0945 AC18 0145            byte >68, >01, >45              ; >0145
0946 AC1A 5902            byte >59, >02, >80              ; >0280
     AC1C 80AD 
0947 AC1E 009E            byte >ad, >00, >9e              ; >009e
0948 AC20 DF01            byte >df, >01, >f6              ; >01f6
     AC22 F606 
0949               level_1_151_add:
0950                      byte >06
0951 AC24 E100            byte >e1, >00, >be              ; >00be
     AC26 BE72 
0952 AC28 0281            byte >72, >02, >81              ; >0281
0953 AC2A E202            byte >e2, >02, >0f              ; >020f
     AC2C 0FE3 
0954 AC2E 009F            byte >e3, >00, >9f              ; >009f
0955 AC30 0602            byte >06, >02, >96              ; >0296
     AC32 9607 
0956 AC34 0158            byte >07, >01, >58              ; >0158
0957               level_1_152_add:
0958 AC36 02A6            byte >02
0959 AC38 0297            byte >a6, >02, >97              ; >0297
0960 AC3A A701            byte >a7, >01, >59              ; >0159
     AC3C 5906 
0961               level_1_153_add:
0962                      byte >06
0963 AC3E B002            byte >b0, >02, >26              ; >0226
     AC40 26A1 
0964 AC42 0283            byte >a1, >02, >83              ; >0283
0965 AC44 6202            byte >62, >02, >98              ; >0298
     AC46 98AA 
0966 AC48 0147            byte >aa, >01, >47              ; >0147
0967 AC4A AC02            byte >ac, >02, >3e              ; >023e
     AC4C 3EAF 
0968 AC4E 00DC            byte >af, >00, >dc              ; >00dc
0969               level_1_154_add:
0970 AC50 0423            byte >04
0971 AC52 0253            byte >23, >02, >53              ; >0253
0972 AC54 A900            byte >a9, >00, >5c              ; >005c
     AC56 5C5C 
0973 AC58 00FB            byte >5c, >00, >fb              ; >00fb
0974 AC5A 5D02            byte >5d, >02, >3f              ; >023f
     AC5C 3F05 
0975               level_1_155_add:
0976                      byte >05
0977 AC5E B100            byte >b1, >00, >93              ; >0093
     AC60 93B3 
0978 AC62 01EC            byte >b3, >01, >ec              ; >01ec
0979 AC64 8D02            byte >8d, >02, >40              ; >0240
     AC66 409D 
0980 AC68 00DD            byte >9d, >00, >dd              ; >00dd
0981 AC6A AE00            byte >ae, >00, >de              ; >00de
     AC6C DE07 
0982               level_1_156_add:
0983                      byte >07
0984 AC6E 0302            byte >03, >02, >b6              ; >02b6
     AC70 B6B4 
0985 AC72 0189            byte >b4, >01, >89              ; >0189
0986 AC74 B501            byte >b5, >01, >76              ; >0176
     AC76 76B7 
0987 AC78 0299            byte >b7, >02, >99              ; >0299
0988 AC7A B901            byte >b9, >01, >5a              ; >015a
     AC7C 5ABA 
0989 AC7E 0284            byte >ba, >02, >84              ; >0284
0990 AC80 BB00            byte >bb, >00, >fc              ; >00fc
     AC82 FC02 
0991               level_1_157_add:
0992                      byte >02
0993 AC84 1101            byte >11, >01, >5b              ; >015b
     AC86 5B0B 
0994 AC88 02B7            byte >0b, >02, >b7              ; >02b7
0995               level_1_158_add:
0996 AC8A 040A            byte >04
0997 AC8C 0286            byte >0a, >02, >86              ; >0286
0998 AC8E BD00            byte >bd, >00, >94              ; >0094
     AC90 94BE 
0999 AC92 01EF            byte >be, >01, >ef              ; >01ef
1000 AC94 BF01            byte >bf, >01, >bf              ; >01bf
     AC96 BF03 
1001               level_1_159_add:
1002                      byte >03
1003 AC98 1301            byte >13, >01, >f0              ; >01f0
     AC9A F088 
1004 AC9C 005F            byte >88, >00, >5f              ; >005f
1005 AC9E 0C00            byte >0c, >00, >96              ; >0096
     ACA0 9604 
1006               level_1_160_add:
1007                      byte >04
1008 ACA2 C202            byte >c2, >02, >1d              ; >021d
     ACA4 1DC3 
1009 ACA6 00B6            byte >c3, >00, >b6              ; >00b6
1010 ACA8 8900            byte >89, >00, >fe              ; >00fe
     ACAA FE5B 
1011 ACAC 018F            byte >5b, >01, >8f              ; >018f
1012               level_1_161_add:
1013 ACAE 09C4            byte >09
1014 ACB0 0287            byte >c4, >02, >87              ; >0287
1015 ACB2 C501            byte >c5, >01, >17              ; >0117
     ACB4 17C6 
1016 ACB6 00FF            byte >c6, >00, >ff              ; >00ff
1017 ACB8 C702            byte >c7, >02, >1e              ; >021e
     ACBA 1EC8 
1018 ACBC 0021            byte >c8, >00, >21              ; >0021
1019 ACBE C902            byte >c9, >02, >0b              ; >020b
     ACC0 0BCB 
1020 ACC2 0098            byte >cb, >00, >98              ; >0098
1021 ACC4 CC01            byte >cc, >01, >f2              ; >01f2
     ACC6 F21E 
1022 ACC8 015C            byte >1e, >01, >5c              ; >015c
1023               level_1_162_add:
1024 ACCA 07D5            byte >07
1025 ACCC 0099            byte >d5, >00, >99              ; >0099
1026 ACCE D601            byte >d6, >01, >f3              ; >01f3
     ACD0 F327 
1027 ACD2 029A            byte >27, >02, >9a              ; >029a
1028 ACD4 3801            byte >38, >01, >5d              ; >015d
     ACD6 5D8A 
1029 ACD8 00D5            byte >8a, >00, >d5              ; >00d5
1030 ACDA CD02            byte >cd, >02, >1f              ; >021f
     ACDC 1FCE 
1031 ACDE 020C            byte >ce, >02, >0c              ; >020c
1032               level_1_163_add:
1033 ACE0 0194            byte >01
1034 ACE2 0026            byte >94, >00, >26              ; >0026
1035               level_1_164_add:
1036 ACE4 0140            byte >01
1037 ACE6 0170            byte >40, >01, >70              ; >0170
1038               level_1_165_add:
1039 ACE8 0541            byte >05
1040 ACEA 009B            byte >41, >00, >9b              ; >009b
1041 ACEC 4200            byte >42, >00, >63              ; >0063
     ACEE 6344 
1042 ACF0 0019            byte >44, >00, >19              ; >0019
1043 ACF2 2B01            byte >2b, >01, >86              ; >0186
     ACF4 862C 
1044 ACF6 0171            byte >2c, >01, >71              ; >0171
1045               level_1_166_add:
1046 ACF8 011C            byte >01
1047 ACFA 00F4            byte >1c, >00, >f4              ; >00f4
1048               level_1_167_add:
1049 ACFC 08C0            byte >08
1050 ACFE 001A            byte >c0, >00, >1a              ; >001a
1051 AD00 2100            byte >21, >00, >f5              ; >00f5
     AD02 F522 
1052 AD04 0220            byte >22, >02, >20              ; >0220
1053 AD06 6401            byte >64, >01, >b8              ; >01b8
     AD08 B845 
1054 AD0A 009C            byte >45, >00, >9c              ; >009c
1055 AD0C 2600            byte >26, >00, >b9              ; >00b9
     AD0E B946 
1056 AD10 0055            byte >46, >00, >55              ; >0055
1057 AD12 1702            byte >17, >02, >6d              ; >026d
     AD14 6D06 
1058               level_1_168_add:
1059                      byte >06
1060 AD16 7300            byte >73, >00, >f1              ; >00f1
     AD18 F174 
1061 AD1A 00D6            byte >74, >00, >d6              ; >00d6
1062 AD1C D902            byte >d9, >02, >21              ; >0221
     AD1E 21DB 
1063 AD20 01E5            byte >db, >01, >e5              ; >01e5
1064 AD22 DC00            byte >dc, >00, >56              ; >0056
     AD24 56DD 
1065 AD26 01B9            byte >dd, >01, >b9              ; >01b9
1066               level_1_169_add:
1067 AD28 01DE            byte >01
1068 AD2A 00F3            byte >de, >00, >f3              ; >00f3
1069               level_1_170_add:
1070 AD2C 0125            byte >01
1071 AD2E 00D8            byte >25, >00, >d8              ; >00d8
1072               level_1_171_add:
1073 AD30 0104            byte >01
1074 AD32 0187            byte >04, >01, >87              ; >0187
1075               level_1_172_add:
1076 AD34 0115            byte >01
1077 AD36 025E            byte >15, >02, >5e              ; >025e
1078               level_1_173_add:
1079 AD38 0431            byte >04
1080 AD3A 00F6            byte >31, >00, >f6              ; >00f6
1081 AD3C 3300            byte >33, >00, >d9              ; >00d9
     AD3E D928 
1082 AD40 0174            byte >28, >01, >74              ; >0174
1083 AD42 2D02            byte >2d, >02, >5f              ; >025f
     AD44 5F02 
1084               level_1_174_add:
1085                      byte >02
1086 AD46 3402            byte >34, >02, >4f              ; >024f
     AD48 4F37 
1087 AD4A 00F7            byte >37, >00, >f7              ; >00f7
1088               level_1_175_add:
1089 AD4C 0001            byte >00
1090               level_1_176_add:
1091                      byte >01
1092 AD4E 3B00            byte >3b, >00, >df              ; >00df
     AD50 DF01 
1093               level_1_177_add:
1094                      byte >01
1095 AD52 3C02            byte >3c, >02, >a5              ; >02a5
     AD54 A500 
1096               level_1_178_add:
1097                      byte >00
1098               level_1_179_add:
1099 AD56 0302            byte >03
1100 AD58 019C            byte >02, >01, >9c              ; >019c
1101 AD5A 3602            byte >36, >02, >a6              ; >02a6
     AD5C A63E 
1102 AD5E 0177            byte >3e, >01, >77              ; >0177
1103               level_1_180_add:
1104 AD60 0643            byte >06
1105 AD62 01E1            byte >43, >01, >e1              ; >01e1
1106 AD64 0601            byte >06, >01, >8e              ; >018e
     AD66 8E48 
1107 AD68 0068            byte >48, >00, >68              ; >0068
1108 AD6A 4B01            byte >4b, >01, >c3              ; >01c3
     AD6C C34E 
1109 AD6E 0027            byte >4e, >00, >27              ; >0027
1110 AD70 3F02            byte >3f, >02, >a7              ; >02a7
     AD72 A700 
1111               level_1_181_add:
1112                      byte >00
1113               level_1_182_add:
1114 AD74 0307            byte >03
1115 AD76 0295            byte >07, >02, >95              ; >0295
1116 AD78 4C01            byte >4c, >01, >57              ; >0157
     AD7A 574F 
1117 AD7C 0280            byte >4f, >02, >80              ; >0280
1118               level_1_183_add:
1119 AD7E 0323            byte >03
1120 AD80 0296            byte >23, >02, >96              ; >0296
1121 AD82 3D02            byte >3d, >02, >88              ; >0288
     AD84 882F 
1122 AD86 0158            byte >2f, >01, >58              ; >0158
1123               level_1_184_add:
1124 AD88 0450            byte >04
1125 AD8A 0283            byte >50, >02, >83              ; >0283
1126 AD8C 5301            byte >53, >01, >5e              ; >015e
     AD8E 5E58 
1127 AD90 0146            byte >58, >01, >46              ; >0146
1128 AD92 5900            byte >59, >00, >6a              ; >006a
     AD94 6A04 
1129               level_1_185_add:
1130                      byte >04
1131 AD96 1001            byte >10, >01, >99              ; >0199
     AD98 9903 
1132 AD9A 00A0            byte >03, >00, >a0              ; >00a0
1133 AD9C 5C01            byte >5c, >01, >47              ; >0147
     AD9E 475D 
1134 ADA0 0175            byte >5d, >01, >75              ; >0175
1135               level_1_186_add:
1136 ADA2 010B            byte >01
1137 ADA4 0178            byte >0b, >01, >78              ; >0178
1138               level_1_187_add:
1139 ADA6 010A            byte >01
1140 ADA8 0179            byte >0a, >01, >79              ; >0179
1141               level_1_188_add:
1142 ADAA 0711            byte >07
1143 ADAC 02B4            byte >11, >02, >b4              ; >02b4
1144 ADAE 6202            byte >62, >02, >84              ; >0284
     ADB0 8413 
1145 ADB2 0176            byte >13, >01, >76              ; >0176
1146 ADB4 6801            byte >68, >01, >90              ; >0190
     ADB6 9029 
1147 ADB8 0299            byte >29, >02, >99              ; >0299
1148 ADBA 0C01            byte >0c, >01, >9a              ; >019a
     ADBC 9A2E 
1149 ADBE 015A            byte >2e, >01, >5a              ; >015a
1150               level_1_189_add:
1151 ADC0 0780            byte >07
1152 ADC2 0148            byte >80, >01, >48              ; >0148
1153 ADC4 5101            byte >51, >01, >9b              ; >019b
     ADC6 9B72 
1154 ADC8 015B            byte >72, >01, >5b              ; >015b
1155 ADCA 8402            byte >84, >02, >70              ; >0270
     ADCC 7085 
1156 ADCE 0254            byte >85, >02, >54              ; >0254
1157 ADD0 7802            byte >78, >02, >85              ; >0285
     ADD2 856D 
1158 ADD4 02B5            byte >6d, >02, >b5              ; >02b5
1159               level_1_190_add:
1160 ADD6 0582            byte >05
1161 ADD8 0119            byte >82, >01, >19              ; >0119
1162 ADDA 8601            byte >86, >01, >18              ; >0118
     ADDC 1888 
1163 ADDE 01C4            byte >88, >01, >c4              ; >01c4
1164 ADE0 8900            byte >89, >00, >29              ; >0029
     ADE2 291E 
1165 ADE4 0286            byte >1e, >02, >86              ; >0286
1166               level_1_191_add:
1167 ADE6 0427            byte >04
1168 ADE8 0191            byte >27, >01, >91              ; >0191
1169 ADEA 3801            byte >38, >01, >c5              ; >01c5
     ADEC C52A 
1170 ADEE 011A            byte >2a, >01, >1a              ; >011a
1171 ADF0 8A00            byte >8a, >00, >2a              ; >002a
     ADF2 2A01 
1172               level_1_192_add:
1173                      byte >01
1174 ADF4 8C01            byte >8c, >01, >c6              ; >01c6
     ADF6 C601 
1175               level_1_193_add:
1176                      byte >01
1177 ADF8 4001            byte >40, >01, >c7              ; >01c7
     ADFA C700 
1178               level_1_194_add:
1179                      byte >00
1180               level_1_195_add:
1181 ADFC 0006            byte >00
1182               level_1_196_add:
1183                      byte >06
1184 ADFE 2100            byte >21, >00, >c0              ; >00c0
     AE00 C022 
1185 AE02 0212            byte >22, >02, >12              ; >0212
1186 AE04 2600            byte >26, >00, >2b              ; >002b
     AE06 2B17 
1187 AE08 00E0            byte >17, >00, >e0              ; >00e0
1188 AE0A 1C02            byte >1c, >02, >27              ; >0227
     AE0C 272C 
1189 AE0E 01C8            byte >2c, >01, >c8              ; >01c8
1190               level_1_197_add:
1191 AE10 0741            byte >07
1192 AE12 00EA            byte >41, >00, >ea              ; >00ea
1193 AE14 4200            byte >42, >00, >e1              ; >00e1
     AE16 E144 
1194 AE18 021A            byte >44, >02, >1a              ; >021a
1195 AE1A 4500            byte >45, >00, >a6              ; >00a6
     AE1C A646 
1196 AE1E 01A1            byte >46, >01, >a1              ; >01a1
1197 AE20 5700            byte >57, >00, >2c              ; >002c
     AE22 2C1F 
1198 AE24 0107            byte >1f, >01, >07              ; >0107
1199               level_1_198_add:
1200 AE26 0890            byte >08
1201 AE28 01A2            byte >90, >01, >a2              ; >01a2
1202 AE2A 9100            byte >91, >00, >03              ; >0003
     AE2C 0373 
1203 AE2E 0108            byte >73, >01, >08              ; >0108
1204 AE30 8300            byte >83, >00, >c8              ; >00c8
     AE32 C864 
1205 AE34 00E7            byte >64, >00, >e7              ; >00e7
1206 AE36 7402            byte >74, >02, >43              ; >0243
     AE38 438D 
1207 AE3A 01D0            byte >8d, >01, >d0              ; >01d0
1208 AE3C 8E00            byte >8e, >00, >32              ; >0032
     AE3E 3207 
1209               level_1_199_add:
1210                      byte >07
1211 AE40 A001            byte >a0, >01, >a3              ; >01a3
     AE42 A3A1 
1212 AE44 0004            byte >a1, >00, >04              ; >0004
1213 AE46 9402            byte >94, >02, >2d              ; >022d
     AE48 2D25 
1214 AE4A 0100            byte >25, >01, >00              ; >0100
1215 AE4C 9700            byte >97, >00, >c9              ; >00c9
     AE4E C998 
1216 AE50 01D1            byte >98, >01, >d1              ; >01d1
1217 AE52 9D00            byte >9d, >00, >33              ; >0033
     AE54 3305 
1218               level_1_200_add:
1219                      byte >05
1220 AE56 0400            byte >04, >00, >70              ; >0070
     AE58 70A6 
1221 AE5A 01D2            byte >a6, >01, >d2              ; >01d2
1222 AE5C A700            byte >a7, >00, >34              ; >0034
     AE5E 34A8 
1223 AE60 01A4            byte >a8, >01, >a4              ; >01a4
1224 AE62 A900            byte >a9, >00, >2d              ; >002d
     AE64 2D07 
1225               level_1_201_add:
1226                      byte >07
1227 AE66 1400            byte >14, >00, >71              ; >0071
     AE68 7115 
1228 AE6A 01F7            byte >15, >01, >f7              ; >01f7
1229 AE6C AA00            byte >aa, >00, >6b              ; >006b
     AE6E 6BAC 
1230 AE70 01C9            byte >ac, >01, >c9              ; >01c9
1231 AE72 AD00            byte >ad, >00, >2e              ; >002e
     AE74 2E0E 
1232 AE76 00CA            byte >0e, >00, >ca              ; >00ca
1233 AE78 0F00            byte >0f, >00, >b1              ; >00b1
     AE7A B103 
1234               level_1_202_add:
1235                      byte >03
1236 AE7C 2800            byte >28, >00, >51              ; >0051
     AE7E 512B 
1237 AE80 0213            byte >2b, >02, >13              ; >0213
1238 AE82 2D01            byte >2d, >01, >1c              ; >011c
     AE84 1C04 
1239               level_1_203_add:
1240                      byte >04
1241 AE86 3100            byte >31, >00, >17              ; >0017
     AE88 1732 
1242 AE8A 0214            byte >32, >02, >14              ; >0214
1243 AE8C 3401            byte >34, >01, >ca              ; >01ca
     AE8E CA35 
1244 AE90 002F            byte >35, >00, >2f              ; >002f
1245               level_1_204_add:
1246 AE92 0237            byte >02
1247 AE94 006C            byte >37, >00, >6c              ; >006c
1248 AE96 4701            byte >47, >01, >cb              ; >01cb
     AE98 CB02 
1249               level_1_205_add:
1250                      byte >02
1251 AE9A 3901            byte >39, >01, >f8              ; >01f8
     AE9C F83A 
1252 AE9E 006D            byte >3a, >00, >6d              ; >006d
1253               level_1_206_add:
1254 AEA0 013C            byte >01
1255 AEA2 01F9            byte >3c, >01, >f9              ; >01f9
1256               level_1_207_add:
1257 AEA4 0209            byte >02
1258 AEA6 003F            byte >09, >00, >3f              ; >003f
1259 AEA8 0D01            byte >0d, >01, >fa              ; >01fa
     AEAA FA02 
1260               level_1_208_add:
1261                      byte >02
1262 AEAC 1202            byte >12, >02, >15              ; >0215
     AEAE 1519 
1263 AEB0 00A2            byte >19, >00, >a2              ; >00a2
1264               level_1_209_add:
1265 AEB2 0230            byte >02
1266 AEB4 0216            byte >30, >02, >16              ; >0216
1267 AEB6 0600            byte >06, >00, >c1              ; >00c1
     AEB8 C102 
1268               level_1_210_add:
1269                      byte >02
1270 AEBA 0202            byte >02, >02, >28              ; >0228
     AEBC 2836 
1271 AEBE 00C2            byte >36, >00, >c2              ; >00c2
1272               level_1_211_add:
1273 AEC0 0107            byte >01
1274 AEC2 00C3            byte >07, >00, >c3              ; >00c3
1275               level_1_212_add:
1276 AEC4 0223            byte >02
1277 AEC6 0229            byte >23, >02, >29              ; >0229
1278 AEC8 0800            byte >08, >00, >e2              ; >00e2
     AECA E201 
1279               level_1_213_add:
1280                      byte >01
1281 AECC 1D00            byte >1d, >00, >e3              ; >00e3
     AECE E301 
1282               level_1_214_add:
1283                      byte >01
1284 AED0 2F02            byte >2f, >02, >44              ; >0244
     AED2 4404 
1285               level_1_215_add:
1286                      byte >04
1287 AED4 3B01            byte >3b, >01, >49              ; >0149
     AED6 493D 
1288 AED8 0255            byte >3d, >02, >55              ; >0255
1289 AEDA 3E01            byte >3e, >01, >01              ; >0101
     AEDC 013F 
1290 AEDE 0245            byte >3f, >02, >45              ; >0245
1291               level_1_216_add:
1292 AEE0 0210            byte >02
1293 AEE2 0256            byte >10, >02, >56              ; >0256
1294 AEE4 0301            byte >03, >01, >1b              ; >011b
     AEE6 1B04 
1295               level_1_217_add:
1296                      byte >04
1297 AEE8 1101            byte >11, >01, >7f              ; >017f
     AEEA 7F13 
1298 AEEC 0165            byte >13, >01, >65              ; >0165
1299 AEEE 2902            byte >29, >02, >8e              ; >028e
     AEF0 8E0C 
1300 AEF2 02A0            byte >0c, >02, >a0              ; >02a0
1301               level_1_218_add:
1302 AEF4 0301            byte >03
1303 AEF6 0166            byte >01, >01, >66              ; >0166
1304 AEF8 4302            byte >43, >02, >60              ; >0260
     AEFA 602E 
1305 AEFC 0271            byte >2e, >02, >71              ; >0271
1306               level_1_219_add:
1307 AEFE 0720            byte >07
1308 AF00 029B            byte >20, >02, >9b              ; >029b
1309 AF02 2401            byte >24, >01, >4a              ; >014a
     AF04 4A16 
1310 AF06 02A1            byte >16, >02, >a1              ; >02a1
1311 AF08 4802            byte >48, >02, >72              ; >0272
     AF0A 7249 
1312 AF0C 012E            byte >49, >01, >2e              ; >012e
1313 AF0E 4A02            byte >4a, >02, >61              ; >0261
     AF10 611E 
1314 AF12 0167            byte >1e, >01, >67              ; >0167
1315               level_1_220_add:
1316 AF14 0650            byte >06
1317 AF16 017A            byte >50, >01, >7a              ; >017a
1318 AF18 5102            byte >51, >02, >89              ; >0289
     AF1A 894B 
1319 AF1C 02AE            byte >4b, >02, >ae              ; >02ae
1320 AF1E 4C01            byte >4c, >01, >97              ; >0197
     AF20 974E 
1321 AF22 0180            byte >4e, >01, >80              ; >0180
1322 AF24 4F02            byte >4f, >02, >a2              ; >02a2
     AF26 A202 
1323               level_1_221_add:
1324                      byte >02
1325 AF28 1802            byte >18, >02, >8a              ; >028a
     AF2A 8A0B 
1326 AF2C 02A8            byte >0b, >02, >a8              ; >02a8
1327               level_1_222_add:
1328 AF2E 0333            byte >03
1329 AF30 015F            byte >33, >01, >5f              ; >015f
1330 AF32 0A02            byte >0a, >02, >b8              ; >02b8
     AF34 B81B 
1331 AF36 0192            byte >1b, >01, >92              ; >0192
1332               level_1_223_add:
1333 AF38 0552            byte >05
1334 AF3A 017B            byte >52, >01, >7b              ; >017b
1335 AF3C 5302            byte >53, >02, >9c              ; >029c
     AF3E 9C54 
1336 AF40 0160            byte >54, >01, >60              ; >0160
1337 AF42 0501            byte >05, >01, >93              ; >0193
     AF44 934D 
1338 AF46 02A9            byte >4d, >02, >a9              ; >02a9
1339               level_1_224_add:
1340 AF48 0227            byte >02
1341 AF4A 019D            byte >27, >01, >9d              ; >019d
1342 AF4C 2A02            byte >2a, >02, >b9              ; >02b9
     AF4E B901 
1343               level_1_225_add:
1344                      byte >01
1345 AF50 1C01            byte >1c, >01, >9e              ; >019e
     AF52 9E01 
1346               level_1_226_add:
1347                      byte >01
1348 AF54 2102            byte >21, >02, >bd              ; >02bd
     AF56 BD00 
1349               level_1_227_add:
1350                      byte >00
**** **** ****     > zqx-one.a99
1966               diff_end_1:
1967                      copy "diff2.a99"
**** **** ****     > diff2.a99
0001               level_2_000_add:
0002 AF58 0400            byte >04
0003 AF5A 0000            byte >00, >00, >00              ; >0000
0004 AF5C 0101            byte >01, >01, >99              ; >0199
     AF5E 9902 
0005 AF60 00B1            byte >02, >00, >b1              ; >00b1
0006 AF62 0301            byte >03, >01, >71              ; >0171
     AF64 7109 
0007               level_2_001_add:
0008                      byte >09
0009 AF66 0400            byte >04, >00, >d7              ; >00d7
     AF68 D705 
0010 AF6A 01A8            byte >05, >01, >a8              ; >01a8
0011 AF6C 0600            byte >06, >00, >c5              ; >00c5
     AF6E C507 
0012 AF70 019A            byte >07, >01, >9a              ; >019a
0013 AF72 0800            byte >08, >00, >b2              ; >00b2
     AF74 B209 
0014 AF76 018A            byte >09, >01, >8a              ; >018a
0015 AF78 0A00            byte >0a, >00, >99              ; >0099
     AF7A 990B 
0016 AF7C 004D            byte >0b, >00, >4d              ; >004d
0017 AF7E 0C01            byte >0c, >01, >4c              ; >014c
     AF80 4C0C 
0018               level_2_002_add:
0019                      byte >0c
0020 AF82 1000            byte >10, >00, >27              ; >0027
     AF84 2711 
0021 AF86 00C6            byte >11, >00, >c6              ; >00c6
0022 AF88 1201            byte >12, >01, >9b              ; >019b
     AF8A 9B13 
0023 AF8C 018B            byte >13, >01, >8b              ; >018b
0024 AF8E 1400            byte >14, >00, >9a              ; >009a
     AF90 9A15 
0025 AF92 0074            byte >15, >00, >74              ; >0074
0026 AF94 1601            byte >16, >01, >67              ; >0167
     AF96 6717 
0027 AF98 014D            byte >17, >01, >4d              ; >014d
0028 AF9A 1800            byte >18, >00, >26              ; >0026
     AF9C 260D 
0029 AF9E 00E5            byte >0d, >00, >e5              ; >00e5
0030 AFA0 0E01            byte >0e, >01, >b3              ; >01b3
     AFA2 B30F 
0031 AFA4 00D8            byte >0f, >00, >d8              ; >00d8
0032               level_2_003_add:
0033 AFA6 0920            byte >09
0034 AFA8 014E            byte >20, >01, >4e              ; >014e
0035 AFAA 2101            byte >21, >01, >25              ; >0125
     AFAC 2519 
0036 AFAE 01BE            byte >19, >01, >be              ; >01be
0037 AFB0 1A00            byte >1a, >00, >e6              ; >00e6
     AFB2 E61B 
0038 AFB4 0021            byte >1b, >00, >21              ; >0021
0039 AFB6 1C00            byte >1c, >00, >d9              ; >00d9
     AFB8 D91D 
0040 AFBA 0172            byte >1d, >01, >72              ; >0172
0041 AFBC 1E00            byte >1e, >00, >75              ; >0075
     AFBE 751F 
0042 AFC0 0168            byte >1f, >01, >68              ; >0168
0043               level_2_004_add:
0044 AFC2 0C22            byte >0c
0045 AFC4 00F1            byte >22, >00, >f1              ; >00f1
0046 AFC6 2301            byte >23, >01, >bf              ; >01bf
     AFC8 BF24 
0047 AFCA 00E7            byte >24, >00, >e7              ; >00e7
0048 AFCC 2501            byte >25, >01, >b4              ; >01b4
     AFCE B426 
0049 AFD0 009B            byte >26, >00, >9b              ; >009b
0050 AFD2 2701            byte >27, >01, >73              ; >0173
     AFD4 7328 
0051 AFD6 0076            byte >28, >00, >76              ; >0076
0052 AFD8 2901            byte >29, >01, >4f              ; >014f
     AFDA 4F2A 
0053 AFDC 004E            byte >2a, >00, >4e              ; >004e
0054 AFDE 2B00            byte >2b, >00, >28              ; >0028
     AFE0 282C 
0055 AFE2 0126            byte >2c, >01, >26              ; >0126
0056 AFE4 2D00            byte >2d, >00, >01              ; >0001
     AFE6 010B 
0057               level_2_005_add:
0058                      byte >0b
0059 AFE8 3001            byte >30, >01, >c0              ; >01c0
     AFEA C031 
0060 AFEC 00E8            byte >31, >00, >e8              ; >00e8
0061 AFEE 3201            byte >32, >01, >b5              ; >01b5
     AFF0 B533 
0062 AFF2 009C            byte >33, >00, >9c              ; >009c
0063 AFF4 3401            byte >34, >01, >74              ; >0174
     AFF6 7435 
0064 AFF8 0077            byte >35, >00, >77              ; >0077
0065 AFFA 3600            byte >36, >00, >3f              ; >003f
     AFFC 3F37 
0066 AFFE 000E            byte >37, >00, >0e              ; >000e
0067 B000 3800            byte >38, >00, >02              ; >0002
     B002 022E 
0068 B004 01CA            byte >2e, >01, >ca              ; >01ca
0069 B006 2F00            byte >2f, >00, >f2              ; >00f2
     B008 F20A 
0070               level_2_006_add:
0071                      byte >0a
0072 B00A 4000            byte >40, >00, >29              ; >0029
     B00C 2941 
0073 B00E 0127            byte >41, >01, >27              ; >0127
0074 B010 4200            byte >42, >00, >03              ; >0003
     B012 0339 
0075 B014 00FC            byte >39, >00, >fc              ; >00fc
0076 B016 3A01            byte >3a, >01, >cb              ; >01cb
     B018 CB3B 
0077 B01A 00F3            byte >3b, >00, >f3              ; >00f3
0078 B01C 3C01            byte >3c, >01, >c1              ; >01c1
     B01E C13D 
0079 B020 018C            byte >3d, >01, >8c              ; >018c
0080 B022 3E00            byte >3e, >00, >9d              ; >009d
     B024 9D3F 
0081 B026 0019            byte >3f, >00, >19              ; >0019
0082               level_2_007_add:
0083 B028 0B43            byte >0b
0084 B02A 00FD            byte >43, >00, >fd              ; >00fd
0085 B02C 4401            byte >44, >01, >cc              ; >01cc
     B02E CC45 
0086 B030 00F4            byte >45, >00, >f4              ; >00f4
0087 B032 4601            byte >46, >01, >c2              ; >01c2
     B034 C247 
0088 B036 00B3            byte >47, >00, >b3              ; >00b3
0089 B038 4801            byte >48, >01, >8d              ; >018d
     B03A 8D49 
0090 B03C 009E            byte >49, >00, >9e              ; >009e
0091 B03E 4A01            byte >4a, >01, >50              ; >0150
     B040 504B 
0092 B042 002A            byte >4b, >00, >2a              ; >002a
0093 B044 4C01            byte >4c, >01, >28              ; >0128
     B046 284D 
0094 B048 0004            byte >4d, >00, >04              ; >0004
0095               level_2_008_add:
0096 B04A 0A50            byte >0a
0097 B04C 019C            byte >50, >01, >9c              ; >019c
0098 B04E 5100            byte >51, >00, >78              ; >0078
     B050 7852 
0099 B052 0122            byte >52, >01, >22              ; >0122
0100 B054 5300            byte >53, >00, >4f              ; >004f
     B056 4F54 
0101 B058 0151            byte >54, >01, >51              ; >0151
0102 B05A 5500            byte >55, >00, >2b              ; >002b
     B05C 2B56 
0103 B05E 0129            byte >56, >01, >29              ; >0129
0104 B060 5700            byte >57, >00, >05              ; >0005
     B062 054E 
0105 B064 01D3            byte >4e, >01, >d3              ; >01d3
0106 B066 4F00            byte >4f, >00, >fe              ; >00fe
     B068 FE0B 
0107               level_2_009_add:
0108                      byte >0b
0109 B06A 6000            byte >60, >00, >2c              ; >002c
     B06C 2C61 
0110 B06E 012A            byte >61, >01, >2a              ; >012a
0111 B070 6200            byte >62, >00, >06              ; >0006
     B072 0658 
0112 B074 0111            byte >58, >01, >11              ; >0111
0113 B076 5901            byte >59, >01, >d4              ; >01d4
     B078 D45A 
0114 B07A 00FF            byte >5a, >00, >ff              ; >00ff
0115 B07C 5B01            byte >5b, >01, >9d              ; >019d
     B07E 9D5C 
0116 B080 0079            byte >5c, >00, >79              ; >0079
0117 B082 5D01            byte >5d, >01, >23              ; >0123
     B084 235E 
0118 B086 0050            byte >5e, >00, >50              ; >0050
0119 B088 5F01            byte >5f, >01, >52              ; >0152
     B08A 5208 
0120               level_2_010_add:
0121                      byte >08
0122 B08C 6301            byte >63, >01, >dc              ; >01dc
     B08E DC64 
0123 B090 0112            byte >64, >01, >12              ; >0112
0124 B092 6501            byte >65, >01, >d5              ; >01d5
     B094 D566 
0125 B096 00CD            byte >66, >00, >cd              ; >00cd
0126 B098 6700            byte >67, >00, >51              ; >0051
     B09A 5168 
0127 B09C 002D            byte >68, >00, >2d              ; >002d
0128 B09E 6901            byte >69, >01, >2b              ; >012b
     B0A0 2B6A 
0129 B0A2 0007            byte >6a, >00, >07              ; >0007
0130               level_2_011_add:
0131 B0A4 0870            byte >08
0132 B0A6 002E            byte >70, >00, >2e              ; >002e
0133 B0A8 7101            byte >71, >01, >2c              ; >012c
     B0AA 2C72 
0134 B0AC 0008            byte >72, >00, >08              ; >0008
0135 B0AE 6B01            byte >6b, >01, >1c              ; >011c
     B0B0 1C6C 
0136 B0B2 01DD            byte >6c, >01, >dd              ; >01dd
0137 B0B4 6D01            byte >6d, >01, >13              ; >0113
     B0B6 136E 
0138 B0B8 00BB            byte >6e, >00, >bb              ; >00bb
0139 B0BA 6F00            byte >6f, >00, >52              ; >0052
     B0BC 5208 
0140               level_2_012_add:
0141                      byte >08
0142 B0BE 7301            byte >73, >01, >e1              ; >01e1
     B0C0 E174 
0143 B0C2 011D            byte >74, >01, >1d              ; >011d
0144 B0C4 7501            byte >75, >01, >de              ; >01de
     B0C6 DE76 
0145 B0C8 000C            byte >76, >00, >0c              ; >000c
0146 B0CA 7700            byte >77, >00, >53              ; >0053
     B0CC 5378 
0147 B0CE 0153            byte >78, >01, >53              ; >0153
0148 B0D0 7900            byte >79, >00, >2f              ; >002f
     B0D2 2F7A 
0149 B0D4 0009            byte >7a, >00, >09              ; >0009
0150               level_2_013_add:
0151 B0D6 0680            byte >06
0152 B0D8 0030            byte >80, >00, >30              ; >0030
0153 B0DA 7B01            byte >7b, >01, >e2              ; >01e2
     B0DC E27C 
0154 B0DE 011E            byte >7c, >01, >1e              ; >011e
0155 B0E0 7D01            byte >7d, >01, >df              ; >01df
     B0E2 DF7E 
0156 B0E4 0054            byte >7e, >00, >54              ; >0054
0157 B0E6 7F01            byte >7f, >01, >54              ; >0154
     B0E8 5404 
0158               level_2_014_add:
0159                      byte >04
0160 B0EA 8101            byte >81, >01, >e3              ; >01e3
     B0EC E382 
0161 B0EE 0059            byte >82, >00, >59              ; >0059
0162 B0F0 8300            byte >83, >00, >7b              ; >007b
     B0F2 7B84 
0163 B0F4 0055            byte >84, >00, >55              ; >0055
0164               level_2_015_add:
0165 B0F6 0785            byte >07
0166 B0F8 0124            byte >85, >01, >24              ; >0124
0167 B0FA 8600            byte >86, >00, >9f              ; >009f
     B0FC 9F87 
0168 B0FE 00A0            byte >87, >00, >a0              ; >00a0
0169 B100 8800            byte >88, >00, >7a              ; >007a
     B102 7A89 
0170 B104 0091            byte >89, >00, >91              ; >0091
0171 B106 8A00            byte >8a, >00, >31              ; >0031
     B108 318B 
0172 B10A 012D            byte >8b, >01, >2d              ; >012d
0173               level_2_016_add:
0174 B10C 048C            byte >04
0175 B10E 005C            byte >8c, >00, >5c              ; >005c
0176 B110 8D00            byte >8d, >00, >56              ; >0056
     B112 568E 
0177 B114 0032            byte >8e, >00, >32              ; >0032
0178 B116 8F01            byte >8f, >01, >2e              ; >012e
     B118 2E03 
0179               level_2_017_add:
0180                      byte >03
0181 B11A 9000            byte >90, >00, >5a              ; >005a
     B11C 5A91 
0182 B11E 0057            byte >91, >00, >57              ; >0057
0183 B120 9201            byte >92, >01, >55              ; >0155
     B122 5502 
0184               level_2_018_add:
0185                      byte >02
0186 B124 9300            byte >93, >00, >7e              ; >007e
     B126 7E94 
0187 B128 0035            byte >94, >00, >35              ; >0035
0188               level_2_019_add:
0189 B12A 0395            byte >03
0190 B12C 007C            byte >95, >00, >7c              ; >007c
0191 B12E 9600            byte >96, >00, >36              ; >0036
     B130 3697 
0192 B132 000B            byte >97, >00, >0b              ; >000b
0193               level_2_020_add:
0194 B134 0398            byte >03
0195 B136 0033            byte >98, >00, >33              ; >0033
0196 B138 9900            byte >99, >00, >12              ; >0012
     B13A 129A 
0197 B13C 000A            byte >9a, >00, >0a              ; >000a
0198               level_2_021_add:
0199 B13E 039B            byte >03
0200 B140 0058            byte >9b, >00, >58              ; >0058
0201 B142 9C01            byte >9c, >01, >56              ; >0156
     B144 569D 
0202 B146 0034            byte >9d, >00, >34              ; >0034
0203               level_2_022_add:
0204 B148 019E            byte >01
0205 B14A 005B            byte >9e, >00, >5b              ; >005b
0206               level_2_023_add:
0207 B14C 019F            byte >01
0208 B14E 00E9            byte >9f, >00, >e9              ; >00e9
0209               level_2_024_add:
0210 B150 0005            byte >00
0211               level_2_025_add:
0212                      byte >05
0213 B152 A001            byte >a0, >01, >d6              ; >01d6
     B154 D6A1 
0214 B156 0114            byte >a1, >01, >14              ; >0114
0215 B158 A201            byte >a2, >01, >00              ; >0100
     B15A 00A3 
0216 B15C 01CD            byte >a3, >01, >cd              ; >01cd
0217 B15E A400            byte >a4, >00, >7d              ; >007d
     B160 7D01 
0218               level_2_026_add:
0219                      byte >01
0220 B162 A501            byte >a5, >01, >01              ; >0101
     B164 0103 
0221               level_2_027_add:
0222                      byte >03
0223 B166 A601            byte >a6, >01, >d7              ; >01d7
     B168 D7A7 
0224 B16A 0102            byte >a7, >01, >02              ; >0102
0225 B16C A801            byte >a8, >01, >ce              ; >01ce
     B16E CE05 
0226               level_2_028_add:
0227                      byte >05
0228 B170 A900            byte >a9, >00, >40              ; >0040
     B172 40AA 
0229 B174 011F            byte >aa, >01, >1f              ; >011f
0230 B176 AB01            byte >ab, >01, >15              ; >0115
     B178 15AC 
0231 B17A 01D8            byte >ac, >01, >d8              ; >01d8
0232 B17C AD01            byte >ad, >01, >03              ; >0103
     B17E 0303 
0233               level_2_029_add:
0234                      byte >03
0235 B180 0101            byte >01, >01, >d9              ; >01d9
     B182 D902 
0236 B184 00EA            byte >02, >00, >ea              ; >00ea
0237 B186 AE00            byte >ae, >00, >bc              ; >00bc
     B188 BC04 
0238               level_2_030_add:
0239                      byte >04
0240 B18A 0401            byte >04, >01, >e0              ; >01e0
     B18C E005 
0241 B18E 0116            byte >05, >01, >16              ; >0116
0242 B190 0600            byte >06, >00, >ce              ; >00ce
     B192 CE07 
0243 B194 00EB            byte >07, >00, >eb              ; >00eb
0244               level_2_031_add:
0245 B196 0103            byte >01
0246 B198 00C7            byte >03, >00, >c7              ; >00c7
0247               level_2_032_add:
0248 B19A 0108            byte >01
0249 B19C 01E4            byte >08, >01, >e4              ; >01e4
0250               level_2_033_add:
0251 B19E 0004            byte >00
0252               level_2_034_add:
0253                      byte >04
0254 B1A0 0901            byte >09, >01, >04              ; >0104
     B1A2 040A 
0255 B1A4 00DB            byte >0a, >00, >db              ; >00db
0256 B1A6 0B00            byte >0b, >00, >7f              ; >007f
     B1A8 7F0C 
0257 B1AA 0169            byte >0c, >01, >69              ; >0169
0258               level_2_035_add:
0259 B1AC 0411            byte >04
0260 B1AE 0080            byte >11, >00, >80              ; >0080
0261 B1B0 0D01            byte >0d, >01, >05              ; >0105
     B1B2 050E 
0262 B1B4 00DC            byte >0e, >00, >dc              ; >00dc
0263 B1B6 0F00            byte >0f, >00, >f5              ; >00f5
     B1B8 F505 
0264               level_2_036_add:
0265                      byte >05
0266 B1BA 1201            byte >12, >01, >06              ; >0106
     B1BC 0613 
0267 B1BE 00DD            byte >13, >00, >dd              ; >00dd
0268 B1C0 1401            byte >14, >01, >75              ; >0175
     B1C2 7515 
0269 B1C4 000D            byte >15, >00, >0d              ; >000d
0270 B1C6 1601            byte >16, >01, >2f              ; >012f
     B1C8 2F03 
0271               level_2_037_add:
0272                      byte >03
0273 B1CA 1701            byte >17, >01, >07              ; >0107
     B1CC 0718 
0274 B1CE 00DE            byte >18, >00, >de              ; >00de
0275 B1D0 1900            byte >19, >00, >a1              ; >00a1
     B1D2 A103 
0276               level_2_038_add:
0277                      byte >03
0278 B1D4 1A00            byte >1a, >00, >a9              ; >00a9
     B1D6 A91C 
0279 B1D8 0127            byte >1c, >01, >27              ; >0127
0280 B1DA 1D00            byte >1d, >00, >03              ; >0003
     B1DC 0306 
0281               level_2_039_add:
0282                      byte >06
0283 B1DE 2000            byte >20, >00, >2a              ; >002a
     B1E0 2A21 
0284 B1E2 0150            byte >21, >01, >50              ; >0150
0285 B1E4 2201            byte >22, >01, >28              ; >0128
     B1E6 2823 
0286 B1E8 0004            byte >23, >00, >04              ; >0004
0287 B1EA 1E00            byte >1e, >00, >b4              ; >00b4
     B1EC B41F 
0288 B1EE 018E            byte >1f, >01, >8e              ; >018e
0289               level_2_040_add:
0290 B1F0 0524            byte >05
0291 B1F2 00CC            byte >24, >00, >cc              ; >00cc
0292 B1F4 2501            byte >25, >01, >51              ; >0151
     B1F6 5126 
0293 B1F8 002B            byte >26, >00, >2b              ; >002b
0294 B1FA 2701            byte >27, >01, >30              ; >0130
     B1FC 3028 
0295 B1FE 000F            byte >28, >00, >0f              ; >000f
0296               level_2_041_add:
0297 B200 0529            byte >05
0298 B202 00B9            byte >29, >00, >b9              ; >00b9
0299 B204 2A01            byte >2a, >01, >76              ; >0176
     B206 762B 
0300 B208 0081            byte >2b, >00, >81              ; >0081
0301 B20A 2C00            byte >2c, >00, >37              ; >0037
     B20C 372D 
0302 B20E 0131            byte >2d, >01, >31              ; >0131
0303               level_2_042_add:
0304 B210 012E            byte >01
0305 B212 0177            byte >2e, >01, >77              ; >0177
0306               level_2_043_add:
0307 B214 0430            byte >04
0308 B216 004B            byte >30, >00, >4b              ; >004b
0309 B218 3100            byte >31, >00, >5d              ; >005d
     B21A 5D32 
0310 B21C 0010            byte >32, >00, >10              ; >0010
0311 B21E 2F00            byte >2f, >00, >6b              ; >006b
     B220 6B04 
0312               level_2_044_add:
0313                      byte >04
0314 B222 3301            byte >33, >01, >8f              ; >018f
     B224 8F34 
0315 B226 00A2            byte >34, >00, >a2              ; >00a2
0316 B228 3500            byte >35, >00, >5e              ; >005e
     B22A 5E38 
0317 B22C 0011            byte >38, >00, >11              ; >0011
0318               level_2_045_add:
0319 B22E 0439            byte >04
0320 B230 0190            byte >39, >01, >90              ; >0190
0321 B232 3A00            byte >3a, >00, >a3              ; >00a3
     B234 A33B 
0322 B236 0082            byte >3b, >00, >82              ; >0082
0323 B238 3C00            byte >3c, >00, >5f              ; >005f
     B23A 5F07 
0324               level_2_046_add:
0325                      byte >07
0326 B23C 4101            byte >41, >01, >6a              ; >016a
     B23E 6A42 
0327 B240 0060            byte >42, >00, >60              ; >0060
0328 B242 4301            byte >43, >01, >57              ; >0157
     B244 5744 
0329 B246 0038            byte >44, >00, >38              ; >0038
0330 B248 4501            byte >45, >01, >32              ; >0132
     B24A 323D 
0331 B24C 0191            byte >3d, >01, >91              ; >0191
0332 B24E 3E00            byte >3e, >00, >83              ; >0083
     B250 8306 
0333               level_2_047_add:
0334                      byte >06
0335 B252 4600            byte >46, >00, >a4              ; >00a4
     B254 A447 
0336 B256 0084            byte >47, >00, >84              ; >0084
0337 B258 4801            byte >48, >01, >6b              ; >016b
     B25A 6B49 
0338 B25C 0158            byte >49, >01, >58              ; >0158
0339 B25E 4A00            byte >4a, >00, >39              ; >0039
     B260 394B 
0340 B262 0133            byte >4b, >01, >33              ; >0133
0341               level_2_048_add:
0342 B264 034C            byte >03
0343 B266 0192            byte >4c, >01, >92              ; >0192
0344 B268 4D01            byte >4d, >01, >78              ; >0178
     B26A 784E 
0345 B26C 0085            byte >4e, >00, >85              ; >0085
0346               level_2_049_add:
0347 B26E 0554            byte >05
0348 B270 00A5            byte >54, >00, >a5              ; >00a5
0349 B272 5501            byte >55, >01, >79              ; >0179
     B274 7956 
0350 B276 0086            byte >56, >00, >86              ; >0086
0351 B278 5700            byte >57, >00, >61              ; >0061
     B27A 614F 
0352 B27C 0193            byte >4f, >01, >93              ; >0193
0353               level_2_050_add:
0354 B27E 0001            byte >00
0355               level_2_051_add:
0356                      byte >01
0357 B280 1000            byte >10, >00, >da              ; >00da
     B282 DA01 
0358               level_2_052_add:
0359                      byte >01
0360 B284 5000            byte >50, >00, >62              ; >0062
     B286 6200 
0361               level_2_053_add:
0362                      byte >00
0363               level_2_054_add:
0364 B288 0004            byte >00
0365               level_2_055_add:
0366                      byte >04
0367 B28A 5800            byte >58, >00, >e9              ; >00e9
     B28C E959 
0368 B28E 0159            byte >59, >01, >59              ; >0159
0369 B290 5A00            byte >5a, >00, >3a              ; >003a
     B292 3A5B 
0370 B294 0134            byte >5b, >01, >34              ; >0134
0371               level_2_056_add:
0372 B296 0360            byte >03
0373 B298 003B            byte >60, >00, >3b              ; >003b
0374 B29A 6101            byte >61, >01, >35              ; >0135
     B29C 355F 
0375 B29E 015A            byte >5f, >01, >5a              ; >015a
0376               level_2_057_add:
0377 B2A0 0463            byte >04
0378 B2A2 01D6            byte >63, >01, >d6              ; >01d6
0379 B2A4 6401            byte >64, >01, >00              ; >0100
     B2A6 0065 
0380 B2A8 01CD            byte >65, >01, >cd              ; >01cd
0381 B2AA 6700            byte >67, >00, >12              ; >0012
     B2AC 1204 
0382               level_2_058_add:
0383                      byte >04
0384 B2AE 0101            byte >01, >01, >01              ; >0101
     B2B0 0168 
0385 B2B2 017A            byte >68, >01, >7a              ; >017a
0386 B2B4 6900            byte >69, >00, >13              ; >0013
     B2B6 136A 
0387 B2B8 0017            byte >6a, >00, >17              ; >0017
0388               level_2_059_add:
0389 B2BA 0970            byte >09
0390 B2BC 0020            byte >70, >00, >20              ; >0020
0391 B2BE 7101            byte >71, >01, >5b              ; >015b
     B2C0 5B72 
0392 B2C2 0014            byte >72, >00, >14              ; >0014
0393 B2C4 0401            byte >04, >01, >e5              ; >01e5
     B2C6 E505 
0394 B2C8 0102            byte >05, >01, >02              ; >0102
0395 B2CA 6B01            byte >6b, >01, >ce              ; >01ce
     B2CC CE6C 
0396 B2CE 00A6            byte >6c, >00, >a6              ; >00a6
0397 B2D0 6D01            byte >6d, >01, >7b              ; >017b
     B2D2 7B6F 
0398 B2D4 0063            byte >6f, >00, >63              ; >0063
0399               level_2_060_add:
0400 B2D6 0A73            byte >0a
0401 B2D8 01E6            byte >73, >01, >e6              ; >01e6
0402 B2DA 7401            byte >74, >01, >03              ; >0103
     B2DC 0375 
0403 B2DE 0194            byte >75, >01, >94              ; >0194
0404 B2E0 7700            byte >77, >00, >a7              ; >00a7
     B2E2 A778 
0405 B2E4 017C            byte >78, >01, >7c              ; >017c
0406 B2E6 7900            byte >79, >00, >43              ; >0043
     B2E8 437B 
0407 B2EA 003C            byte >7b, >00, >3c              ; >003c
0408 B2EC 7C00            byte >7c, >00, >64              ; >0064
     B2EE 647D 
0409 B2F0 0136            byte >7d, >01, >36              ; >0136
0410 B2F2 7E00            byte >7e, >00, >15              ; >0015
     B2F4 1507 
0411               level_2_061_add:
0412                      byte >07
0413 B2F6 8000            byte >80, >00, >44              ; >0044
     B2F8 4481 
0414 B2FA 003D            byte >81, >00, >3d              ; >003d
0415 B2FC 8400            byte >84, >00, >65              ; >0065
     B2FE 6585 
0416 B300 0137            byte >85, >01, >37              ; >0137
0417 B302 0801            byte >08, >01, >e7              ; >01e7
     B304 E78A 
0418 B306 0016            byte >8a, >00, >16              ; >0016
0419 B308 7F01            byte >7f, >01, >7d              ; >017d
     B30A 7D05 
0420               level_2_062_add:
0421                      byte >05
0422 B30C 9100            byte >91, >00, >3e              ; >003e
     B30E 3E8B 
0423 B310 00A8            byte >8b, >00, >a8              ; >00a8
0424 B312 8D01            byte >8d, >01, >7e              ; >017e
     B314 7E8E 
0425 B316 0087            byte >8e, >00, >87              ; >0087
0426 B318 8F00            byte >8f, >00, >66              ; >0066
     B31A 6600 
0427               level_2_063_add:
0428                      byte >00
0429               level_2_064_add:
0430 B31C 0002            byte >00
0431               level_2_065_add:
0432                      byte >02
0433 B31E 0900            byte >09, >00, >c8              ; >00c8
     B320 C80A 
0434 B322 019E            byte >0a, >01, >9e              ; >019e
0435               level_2_066_add:
0436 B324 020B            byte >02
0437 B326 0120            byte >0b, >01, >20              ; >0120
0438 B328 0C00            byte >0c, >00, >c9              ; >00c9
     B32A C902 
0439               level_2_067_add:
0440                      byte >02
0441 B32C 0D00            byte >0d, >00, >ca              ; >00ca
     B32E CA0E 
0442 B330 019F            byte >0e, >01, >9f              ; >019f
0443               level_2_068_add:
0444 B332 0411            byte >04
0445 B334 00B6            byte >11, >00, >b6              ; >00b6
0446 B336 1201            byte >12, >01, >21              ; >0121
     B338 2113 
0447 B33A 00CB            byte >13, >00, >cb              ; >00cb
0448 B33C 0F01            byte >0f, >01, >17              ; >0117
     B33E 1702 
0449               level_2_069_add:
0450                      byte >02
0451 B340 1401            byte >14, >01, >18              ; >0118
     B342 1815 
0452 B344 00B7            byte >15, >00, >b7              ; >00b7
0453               level_2_070_add:
0454 B346 0316            byte >03
0455 B348 0175            byte >16, >01, >75              ; >0175
0456 B34A 1700            byte >17, >00, >0d              ; >000d
     B34C 0D18 
0457 B34E 012F            byte >18, >01, >2f              ; >012f
0458               level_2_071_add:
0459 B350 0319            byte >03
0460 B352 00A1            byte >19, >00, >a1              ; >00a1
0461 B354 1A00            byte >1a, >00, >3f              ; >003f
     B356 3F1C 
0462 B358 000E            byte >1c, >00, >0e              ; >000e
0463               level_2_072_add:
0464 B35A 0420            byte >04
0465 B35C 0003            byte >20, >00, >03              ; >0003
0466 B35E 1D00            byte >1d, >00, >a9              ; >00a9
     B360 A91E 
0467 B362 0029            byte >1e, >00, >29              ; >0029
0468 B364 1F01            byte >1f, >01, >27              ; >0127
     B366 2706 
0469               level_2_073_add:
0470                      byte >06
0471 B368 2100            byte >21, >00, >b5              ; >00b5
     B36A B522 
0472 B36C 018E            byte >22, >01, >8e              ; >018e
0473 B36E 2300            byte >23, >00, >2a              ; >002a
     B370 2A25 
0474 B372 0150            byte >25, >01, >50              ; >0150
0475 B374 2601            byte >26, >01, >28              ; >0128
     B376 2827 
0476 B378 0004            byte >27, >00, >04              ; >0004
0477               level_2_074_add:
0478 B37A 0428            byte >04
0479 B37C 0151            byte >28, >01, >51              ; >0151
0480 B37E 2A00            byte >2a, >00, >2b              ; >002b
     B380 2B2B 
0481 B382 0130            byte >2b, >01, >30              ; >0130
0482 B384 2C00            byte >2c, >00, >0f              ; >000f
     B386 0F04 
0483               level_2_075_add:
0484                      byte >04
0485 B388 3101            byte >31, >01, >6c              ; >016c
     B38A 6C35 
0486 B38C 0037            byte >35, >00, >37              ; >0037
0487 B38E 3601            byte >36, >01, >31              ; >0131
     B390 312D 
0488 B392 011A            byte >2d, >01, >1a              ; >011a
0489               level_2_076_add:
0490 B394 0137            byte >01
0491 B396 017F            byte >37, >01, >7f              ; >017f
0492               level_2_077_add:
0493 B398 0240            byte >02
0494 B39A 005D            byte >40, >00, >5d              ; >005d
0495 B39C 3B01            byte >3b, >01, >80              ; >0180
     B39E 8001 
0496               level_2_078_add:
0497                      byte >01
0498 B3A0 4300            byte >43, >00, >5e              ; >005e
     B3A2 5E01 
0499               level_2_079_add:
0500                      byte >01
0501 B3A4 4400            byte >44, >00, >82              ; >0082
     B3A6 8203 
0502               level_2_080_add:
0503                      byte >03
0504 B3A8 1000            byte >10, >00, >38              ; >0038
     B3AA 3802 
0505 B3AC 0157            byte >02, >01, >57              ; >0157
0506 B3AE 4501            byte >45, >01, >32              ; >0132
     B3B0 3203 
0507               level_2_081_add:
0508                      byte >03
0509 B3B2 0601            byte >06, >01, >58              ; >0158
     B3B4 5807 
0510 B3B6 0039            byte >07, >00, >39              ; >0039
0511 B3B8 4901            byte >49, >01, >33              ; >0133
     B3BA 3300 
0512               level_2_082_add:
0513                      byte >00
0514               level_2_083_add:
0515 B3BC 014A            byte >01
0516 B3BE 01A0            byte >4a, >01, >a0              ; >01a0
0517               level_2_084_add:
0518 B3C0 0000            byte >00
0519               level_2_085_add:
0520                      byte >00
0521               level_2_086_add:
0522 B3C2 014B            byte >01
0523 B3C4 0062            byte >4b, >00, >62              ; >0062
0524               level_2_087_add:
0525 B3C6 0002            byte >00
0526               level_2_088_add:
0527                      byte >02
0528 B3C8 0101            byte >01, >01, >0a              ; >010a
     B3CA 0A04 
0529 B3CC 00DB            byte >04, >00, >db              ; >00db
0530               level_2_089_add:
0531 B3CE 0750            byte >07
0532 B3D0 01B6            byte >50, >01, >b6              ; >01b6
0533 B3D2 0500            byte >05, >00, >e9              ; >00e9
     B3D4 E958 
0534 B3D6 00DC            byte >58, >00, >dc              ; >00dc
0535 B3D8 5901            byte >59, >01, >a9              ; >01a9
     B3DA A95A 
0536 B3DC 0159            byte >5a, >01, >59              ; >0159
0537 B3DE 5B00            byte >5b, >00, >3a              ; >003a
     B3E0 3A5F 
0538 B3E2 0134            byte >5f, >01, >34              ; >0134
0539               level_2_090_add:
0540 B3E4 0560            byte >05
0541 B3E6 00DD            byte >60, >00, >dd              ; >00dd
0542 B3E8 6101            byte >61, >01, >5a              ; >015a
     B3EA 5A63 
0543 B3EC 003B            byte >63, >00, >3b              ; >003b
0544 B3EE 6401            byte >64, >01, >35              ; >0135
     B3F0 3508 
0545 B3F2 010C            byte >08, >01, >0c              ; >010c
0546               level_2_091_add:
0547 B3F4 0765            byte >07
0548 B3F6 01D6            byte >65, >01, >d6              ; >01d6
0549 B3F8 6701            byte >67, >01, >14              ; >0114
     B3FA 1468 
0550 B3FC 0100            byte >68, >01, >00              ; >0100
0551 B3FE 6901            byte >69, >01, >cd              ; >01cd
     B400 CD6A 
0552 B402 0124            byte >6a, >01, >24              ; >0124
0553 B404 6B01            byte >6b, >01, >b7              ; >01b7
     B406 B76C 
0554 B408 00DE            byte >6c, >00, >de              ; >00de
0555               level_2_092_add:
0556 B40A 0470            byte >04
0557 B40C 0013            byte >70, >00, >13              ; >0013
0558 B40E 7100            byte >71, >00, >17              ; >0017
     B410 176D 
0559 B412 0101            byte >6d, >01, >01              ; >0101
0560 B414 6F01            byte >6f, >01, >7a              ; >017a
     B416 7A0A 
0561               level_2_093_add:
0562                      byte >0a
0563 B418 7201            byte >72, >01, >e8              ; >01e8
     B41A E873 
0564 B41C 01D7            byte >73, >01, >d7              ; >01d7
0565 B41E 7401            byte >74, >01, >02              ; >0102
     B420 0275 
0566 B422 01CE            byte >75, >01, >ce              ; >01ce
0567 B424 7700            byte >77, >00, >a6              ; >00a6
     B426 A678 
0568 B428 017B            byte >78, >01, >7b              ; >017b
0569 B42A 7900            byte >79, >00, >63              ; >0063
     B42C 637B 
0570 B42E 0020            byte >7b, >00, >20              ; >0020
0571 B430 7C01            byte >7c, >01, >5b              ; >015b
     B432 5B7D 
0572 B434 0014            byte >7d, >00, >14              ; >0014
0573               level_2_094_add:
0574 B436 0C80            byte >0c
0575 B438 01D8            byte >80, >01, >d8              ; >01d8
0576 B43A 8101            byte >81, >01, >03              ; >0103
     B43C 0391 
0577 B43E 0015            byte >91, >00, >15              ; >0015
0578 B440 8401            byte >84, >01, >94              ; >0194
     B442 9485 
0579 B444 00A7            byte >85, >00, >a7              ; >00a7
0580 B446 8A01            byte >8a, >01, >7c              ; >017c
     B448 7C8B 
0581 B44A 0043            byte >8b, >00, >43              ; >0043
0582 B44C 8D00            byte >8d, >00, >3c              ; >003c
     B44E 3C7E 
0583 B450 01E9            byte >7e, >01, >e9              ; >01e9
0584 B452 8E00            byte >8e, >00, >64              ; >0064
     B454 647F 
0585 B456 0115            byte >7f, >01, >15              ; >0115
0586 B458 8F01            byte >8f, >01, >36              ; >0136
     B45A 3608 
0587               level_2_095_add:
0588                      byte >08
0589 B45C 9201            byte >92, >01, >ea              ; >01ea
     B45E EA98 
0590 B460 01D9            byte >98, >01, >d9              ; >01d9
0591 B462 9901            byte >99, >01, >7d              ; >017d
     B464 7D9A 
0592 B466 0044            byte >9a, >00, >44              ; >0044
0593 B468 9B00            byte >9b, >00, >3d              ; >003d
     B46A 3D9C 
0594 B46C 0065            byte >9c, >00, >65              ; >0065
0595 B46E 9D01            byte >9d, >01, >37              ; >0137
     B470 379F 
0596 B472 0016            byte >9f, >00, >16              ; >0016
0597               level_2_096_add:
0598 B474 08A0            byte >08
0599 B476 0116            byte >a0, >01, >16              ; >0116
0600 B478 A101            byte >a1, >01, >08              ; >0108
     B47A 08A2 
0601 B47C 00A8            byte >a2, >00, >a8              ; >00a8
0602 B47E A301            byte >a3, >01, >7e              ; >017e
     B480 7EA5 
0603 B482 0087            byte >a5, >00, >87              ; >0087
0604 B484 A600            byte >a6, >00, >66              ; >0066
     B486 66A7 
0605 B488 003E            byte >a7, >00, >3e              ; >003e
0606 B48A 0E01            byte >0e, >01, >eb              ; >01eb
     B48C EB01 
0607               level_2_097_add:
0608                      byte >01
0609 B48E A801            byte >a8, >01, >09              ; >0109
     B490 0900 
0610               level_2_098_add:
0611                      byte >00
0612               level_2_099_add:
0613 B492 0714            byte >07
0614 B494 0119            byte >14, >01, >19              ; >0119
0615 B496 9500            byte >95, >00, >88              ; >0088
     B498 8816 
0616 B49A 00EA            byte >16, >00, >ea              ; >00ea
0617 B49C 1700            byte >17, >00, >bc              ; >00bc
     B49E BC18 
0618 B4A0 0181            byte >18, >01, >81              ; >0181
0619 B4A2 A901            byte >a9, >01, >38              ; >0138
     B4A4 38AA 
0620 B4A6 0018            byte >aa, >00, >18              ; >0018
0621               level_2_100_add:
0622 B4A8 0219            byte >02
0623 B4AA 00CE            byte >19, >00, >ce              ; >00ce
0624 B4AC 1A00            byte >1a, >00, >eb              ; >00eb
     B4AE EB03 
0625               level_2_101_add:
0626                      byte >03
0627 B4B0 2000            byte >20, >00, >3f              ; >003f
     B4B2 3FAB 
0628 B4B4 001A            byte >ab, >00, >1a              ; >001a
0629 B4B6 1F00            byte >1f, >00, >a1              ; >00a1
     B4B8 A105 
0630               level_2_102_add:
0631                      byte >05
0632 B4BA 2101            byte >21, >01, >1f              ; >011f
     B4BC 1F22 
0633 B4BE 0040            byte >22, >00, >40              ; >0040
0634 B4C0 2301            byte >23, >01, >39              ; >0139
     B4C2 3925 
0635 B4C4 001B            byte >25, >00, >1b              ; >001b
0636 B4C6 0A00            byte >0a, >00, >b8              ; >00b8
     B4C8 B805 
0637               level_2_103_add:
0638                      byte >05
0639 B4CA 2601            byte >26, >01, >95              ; >0195
     B4CC 9527 
0640 B4CE 00AA            byte >27, >00, >aa              ; >00aa
0641 B4D0 2800            byte >28, >00, >41              ; >0041
     B4D2 412A 
0642 B4D4 013A            byte >2a, >01, >3a              ; >013a
0643 B4D6 2B00            byte >2b, >00, >1c              ; >001c
     B4D8 1C05 
0644               level_2_104_add:
0645                      byte >05
0646 B4DA 3100            byte >31, >00, >ab              ; >00ab
     B4DC AB35 
0647 B4DE 0182            byte >35, >01, >82              ; >0182
0648 B4E0 3600            byte >36, >00, >42              ; >0042
     B4E2 422C 
0649 B4E4 00BA            byte >2c, >00, >ba              ; >00ba
0650 B4E6 AC01            byte >ac, >01, >3b              ; >013b
     B4E8 3B00 
0651               level_2_105_add:
0652                      byte >00
0653               level_2_106_add:
0654 B4EA 0000            byte >00
0655               level_2_107_add:
0656                      byte >00
0657               level_2_108_add:
0658 B4EC 0137            byte >01
0659 B4EE 0089            byte >37, >00, >89              ; >0089
0660               level_2_109_add:
0661 B4F0 0510            byte >05
0662 B4F2 016D            byte >10, >01, >6d              ; >016d
0663 B4F4 4000            byte >40, >00, >38              ; >0038
     B4F6 3802 
0664 B4F8 007C            byte >02, >00, >7c              ; >007c
0665 B4FA 4301            byte >43, >01, >3c              ; >013c
     B4FC 3C3B 
0666 B4FE 015C            byte >3b, >01, >5c              ; >015c
0667               level_2_110_add:
0668 B500 0544            byte >05
0669 B502 015D            byte >44, >01, >5d              ; >015d
0670 B504 4500            byte >45, >00, >39              ; >0039
     B506 3906 
0671 B508 008A            byte >06, >00, >8a              ; >008a
0672 B50A 0701            byte >07, >01, >6e              ; >016e
     B50C 6E49 
0673 B50E 013D            byte >49, >01, >3d              ; >013d
0674               level_2_111_add:
0675 B510 010F            byte >01
0676 B512 008B            byte >0f, >00, >8b              ; >008b
0677               level_2_112_add:
0678 B514 034A            byte >03
0679 B516 0183            byte >4a, >01, >83              ; >0183
0680 B518 AD00            byte >ad, >00, >8c              ; >008c
     B51A 8CAE 
0681 B51C 005E            byte >ae, >00, >5e              ; >005e
0682               level_2_113_add:
0683 B51E 0000            byte >00
0684               level_2_114_add:
0685                      byte >00
0686               level_2_115_add:
0687 B520 01AF            byte >01
0688 B522 005D            byte >af, >00, >5d              ; >005d
0689               level_2_116_add:
0690 B524 0000            byte >00
0691               level_2_117_add:
0692                      byte >00
0693               level_2_118_add:
0694 B526 0750            byte >07
0695 B528 015E            byte >50, >01, >5e              ; >015e
0696 B52A 0101            byte >01, >01, >ec              ; >01ec
     B52C EC04 
0697 B52E 011B            byte >04, >01, >1b              ; >011b
0698 B530 0501            byte >05, >01, >0a              ; >010a
     B532 0A58 
0699 B534 003A            byte >58, >00, >3a              ; >003a
0700 B536 5901            byte >59, >01, >3e              ; >013e
     B538 3E3E 
0701 B53A 00DB            byte >3e, >00, >db              ; >00db
0702               level_2_119_add:
0703 B53C 0741            byte >07
0704 B53E 010B            byte >41, >01, >0b              ; >010b
0705 B540 5101            byte >51, >01, >5f              ; >015f
     B542 5F08 
0706 B544 0123            byte >08, >01, >23              ; >0123
0707 B546 5A00            byte >5a, >00, >3b              ; >003b
     B548 3B5B 
0708 B54A 013F            byte >5b, >01, >3f              ; >013f
0709 B54C 4D00            byte >4d, >00, >dc              ; >00dc
     B54E DC4E 
0710 B550 00F5            byte >4e, >00, >f5              ; >00f5
0711               level_2_120_add:
0712 B552 0355            byte >03
0713 B554 010C            byte >55, >01, >0c              ; >010c
0714 B556 5600            byte >56, >00, >dd              ; >00dd
     B558 DD48 
0715 B55A 01ED            byte >48, >01, >ed              ; >01ed
0716               level_2_121_add:
0717 B55C 0860            byte >08
0718 B55E 00DE            byte >60, >00, >de              ; >00de
0719 B560 6101            byte >61, >01, >84              ; >0184
     B562 8463 
0720 B564 008D            byte >63, >00, >8d              ; >008d
0721 B566 6400            byte >64, >00, >1d              ; >001d
     B568 1D65 
0722 B56A 0013            byte >65, >00, >13              ; >0013
0723 B56C 5C01            byte >5c, >01, >ee              ; >01ee
     B56E EE5D 
0724 B570 0124            byte >5d, >01, >24              ; >0124
0725 B572 5F01            byte >5f, >01, >0d              ; >010d
     B574 0D05 
0726               level_2_122_add:
0727                      byte >05
0728 B576 6700            byte >67, >00, >ac              ; >00ac
     B578 AC68 
0729 B57A 0185            byte >68, >01, >85              ; >0185
0730 B57C 6900            byte >69, >00, >8e              ; >008e
     B57E 8E6A 
0731 B580 0067            byte >6a, >00, >67              ; >0067
0732 B582 6B00            byte >6b, >00, >20              ; >0020
     B584 2006 
0733               level_2_123_add:
0734                      byte >06
0735 B586 7000            byte >70, >00, >68              ; >0068
     B588 6871 
0736 B58A 0140            byte >71, >01, >40              ; >0140
0737 B58C 7200            byte >72, >00, >1e              ; >001e
     B58E 1E6C 
0738 B590 00AD            byte >6c, >00, >ad              ; >00ad
0739 B592 6D00            byte >6d, >00, >64              ; >0064
     B594 646F 
0740 B596 0043            byte >6f, >00, >43              ; >0043
0741               level_2_124_add:
0742 B598 0573            byte >05
0743 B59A 003D            byte >73, >00, >3d              ; >003d
0744 B59C 7400            byte >74, >00, >65              ; >0065
     B59E 6575 
0745 B5A0 0044            byte >75, >00, >44              ; >0044
0746 B5A2 7701            byte >77, >01, >41              ; >0141
     B5A4 4178 
0747 B5A6 001F            byte >78, >00, >1f              ; >001f
0748               level_2_125_add:
0749 B5A8 0811            byte >08
0750 B5AA 00A8            byte >11, >00, >a8              ; >00a8
0751 B5AC 7901            byte >79, >01, >86              ; >0186
     B5AE 867B 
0752 B5B0 008F            byte >7b, >00, >8f              ; >008f
0753 B5B2 7C00            byte >7c, >00, >87              ; >0087
     B5B4 877D 
0754 B5B6 0069            byte >7d, >00, >69              ; >0069
0755 B5B8 0E01            byte >0e, >01, >96              ; >0196
     B5BA 967E 
0756 B5BC 003E            byte >7e, >00, >3e              ; >003e
0757 B5BE 7F01            byte >7f, >01, >42              ; >0142
     B5C0 4200 
0758               level_2_126_add:
0759                      byte >00
0760               level_2_127_add:
0761 B5C2 0000            byte >00
0762               level_2_128_add:
0763                      byte >00
0764               level_2_129_add:
0765 B5C4 0003            byte >00
0766               level_2_130_add:
0767                      byte >03
0768 B5C6 0901            byte >09, >01, >04              ; >0104
     B5C8 040B 
0769 B5CA 007F            byte >0b, >00, >7f              ; >007f
0770 B5CC 0C01            byte >0c, >01, >69              ; >0169
     B5CE 6902 
0771               level_2_131_add:
0772                      byte >02
0773 B5D0 0A01            byte >0a, >01, >05              ; >0105
     B5D2 050D 
0774 B5D4 0080            byte >0d, >00, >80              ; >0080
0775               level_2_132_add:
0776 B5D6 0412            byte >04
0777 B5D8 0106            byte >12, >01, >06              ; >0106
0778 B5DA 1301            byte >13, >01, >75              ; >0175
     B5DC 7514 
0779 B5DE 000D            byte >14, >00, >0d              ; >000d
0780 B5E0 1501            byte >15, >01, >2f              ; >012f
     B5E2 2F04 
0781               level_2_133_add:
0782                      byte >04
0783 B5E4 1801            byte >18, >01, >07              ; >0107
     B5E6 071C 
0784 B5E8 00A1            byte >1c, >00, >a1              ; >00a1
0785 B5EA 1D00            byte >1d, >00, >3f              ; >003f
     B5EC 3F1E 
0786 B5EE 000E            byte >1e, >00, >0e              ; >000e
0787               level_2_134_add:
0788 B5F0 0420            byte >04
0789 B5F2 0029            byte >20, >00, >29              ; >0029
0790 B5F4 2101            byte >21, >01, >27              ; >0127
     B5F6 2722 
0791 B5F8 0003            byte >22, >00, >03              ; >0003
0792 B5FA 1F00            byte >1f, >00, >a9              ; >00a9
     B5FC A906 
0793               level_2_135_add:
0794                      byte >06
0795 B5FE 2300            byte >23, >00, >b4              ; >00b4
     B600 B425 
0796 B602 018E            byte >25, >01, >8e              ; >018e
0797 B604 2600            byte >26, >00, >2a              ; >002a
     B606 2A27 
0798 B608 0150            byte >27, >01, >50              ; >0150
0799 B60A 2801            byte >28, >01, >28              ; >0128
     B60C 282A 
0800 B60E 0004            byte >2a, >00, >04              ; >0004
0801               level_2_136_add:
0802 B610 0531            byte >05
0803 B612 0130            byte >31, >01, >30              ; >0130
0804 B614 3500            byte >35, >00, >0f              ; >000f
     B616 0F2B 
0805 B618 0078            byte >2b, >00, >78              ; >0078
0806 B61A 2C01            byte >2c, >01, >51              ; >0151
     B61C 512D 
0807 B61E 002B            byte >2d, >00, >2b              ; >002b
0808               level_2_137_add:
0809 B620 0580            byte >05
0810 B622 0131            byte >80, >01, >31              ; >0131
0811 B624 3600            byte >36, >00, >79              ; >0079
     B626 7937 
0812 B628 0176            byte >37, >01, >76              ; >0176
0813 B62A 5700            byte >57, >00, >37              ; >0037
     B62C 374B 
0814 B62E 0081            byte >4b, >00, >81              ; >0081
0815               level_2_138_add:
0816 B630 0000            byte >00
0817               level_2_139_add:
0818                      byte >00
0819               level_2_140_add:
0820 B632 0001            byte >00
0821               level_2_141_add:
0822                      byte >01
0823 B634 3B00            byte >3b, >00, >82              ; >0082
     B636 8205 
0824               level_2_142_add:
0825                      byte >05
0826 B638 4000            byte >40, >00, >83              ; >0083
     B63A 8343 
0827 B63C 016A            byte >43, >01, >6a              ; >016a
0828 B63E 4401            byte >44, >01, >57              ; >0157
     B640 5745 
0829 B642 0038            byte >45, >00, >38              ; >0038
0830 B644 4901            byte >49, >01, >32              ; >0132
     B646 3204 
0831               level_2_143_add:
0832                      byte >04
0833 B648 8101            byte >81, >01, >6b              ; >016b
     B64A 6B84 
0834 B64C 0158            byte >84, >01, >58              ; >0158
0835 B64E 8500            byte >85, >00, >39              ; >0039
     B650 398A 
0836 B652 0133            byte >8a, >01, >33              ; >0133
0837               level_2_144_add:
0838 B654 028B            byte >02
0839 B656 0178            byte >8b, >01, >78              ; >0178
0840 B658 8D00            byte >8d, >00, >85              ; >0085
     B65A 8503 
0841               level_2_145_add:
0842                      byte >03
0843 B65C 9100            byte >91, >00, >61              ; >0061
     B65E 618E 
0844 B660 0179            byte >8e, >01, >79              ; >0179
0845 B662 8F00            byte >8f, >00, >86              ; >0086
     B664 8600 
0846               level_2_146_add:
0847                      byte >00
0848               level_2_147_add:
0849 B666 0101            byte >01
0850 B668 00DA            byte >01, >00, >da              ; >00da
0851               level_2_148_add:
0852 B66A 0104            byte >01
0853 B66C 0062            byte >04, >00, >62              ; >0062
0854               level_2_149_add:
0855 B66E 0000            byte >00
0856               level_2_150_add:
0857                      byte >00
0858               level_2_151_add:
0859 B670 0441            byte >04
0860 B672 003A            byte >41, >00, >3a              ; >003a
0861 B674 0500            byte >05, >00, >e9              ; >00e9
     B676 E948 
0862 B678 0134            byte >48, >01, >34              ; >0134
0863 B67A 0F01            byte >0f, >01, >59              ; >0159
     B67C 5903 
0864               level_2_152_add:
0865                      byte >03
0866 B67E 5000            byte >50, >00, >3b              ; >003b
     B680 3B51 
0867 B682 0135            byte >51, >01, >35              ; >0135
0868 B684 4A01            byte >4a, >01, >5a              ; >015a
     B686 5A04 
0869               level_2_153_add:
0870                      byte >04
0871 B688 5501            byte >55, >01, >d6              ; >01d6
     B68A D658 
0872 B68C 0100            byte >58, >01, >00              ; >0100
0873 B68E 5901            byte >59, >01, >cd              ; >01cd
     B690 CD5A 
0874 B692 0012            byte >5a, >00, >12              ; >0012
0875               level_2_154_add:
0876 B694 0411            byte >04
0877 B696 017A            byte >11, >01, >7a              ; >017a
0878 B698 5B00            byte >5b, >00, >13              ; >0013
     B69A 135C 
0879 B69C 0017            byte >5c, >00, >17              ; >0017
0880 B69E 0E01            byte >0e, >01, >01              ; >0101
     B6A0 0109 
0881               level_2_155_add:
0882                      byte >09
0883 B6A2 6101            byte >61, >01, >ce              ; >01ce
     B6A4 CE63 
0884 B6A6 00A6            byte >63, >00, >a6              ; >00a6
0885 B6A8 6401            byte >64, >01, >7b              ; >017b
     B6AA 7B65 
0886 B6AC 0063            byte >65, >00, >63              ; >0063
0887 B6AE 6700            byte >67, >00, >20              ; >0020
     B6B0 2068 
0888 B6B2 015B            byte >68, >01, >5b              ; >015b
0889 B6B4 6900            byte >69, >00, >14              ; >0014
     B6B6 145D 
0890 B6B8 01E5            byte >5d, >01, >e5              ; >01e5
0891 B6BA 5F01            byte >5f, >01, >02              ; >0102
     B6BC 020A 
0892               level_2_156_add:
0893                      byte >0a
0894 B6BE 1001            byte >10, >01, >e6              ; >01e6
     B6C0 E670 
0895 B6C2 003C            byte >70, >00, >3c              ; >003c
0896 B6C4 7100            byte >71, >00, >64              ; >0064
     B6C6 6472 
0897 B6C8 0136            byte >72, >01, >36              ; >0136
0898 B6CA 7300            byte >73, >00, >15              ; >0015
     B6CC 156A 
0899 B6CE 0103            byte >6a, >01, >03              ; >0103
0900 B6D0 6B01            byte >6b, >01, >94              ; >0194
     B6D2 946C 
0901 B6D4 00A7            byte >6c, >00, >a7              ; >00a7
0902 B6D6 6D01            byte >6d, >01, >7c              ; >017c
     B6D8 7C6F 
0903 B6DA 0043            byte >6f, >00, >43              ; >0043
0904               level_2_157_add:
0905 B6DC 0874            byte >08
0906 B6DE 017D            byte >74, >01, >7d              ; >017d
0907 B6E0 7500            byte >75, >00, >44              ; >0044
     B6E2 4406 
0908 B6E4 01E7            byte >06, >01, >e7              ; >01e7
0909 B6E6 0700            byte >07, >00, >7d              ; >007d
     B6E8 7D77 
0910 B6EA 003D            byte >77, >00, >3d              ; >003d
0911 B6EC 7800            byte >78, >00, >65              ; >0065
     B6EE 6579 
0912 B6F0 0137            byte >79, >01, >37              ; >0137
0913 B6F2 7B00            byte >7b, >00, >16              ; >0016
     B6F4 1605 
0914               level_2_158_add:
0915                      byte >05
0916 B6F6 9200            byte >92, >00, >3e              ; >003e
     B6F8 3E7C 
0917 B6FA 00A8            byte >7c, >00, >a8              ; >00a8
0918 B6FC 7D01            byte >7d, >01, >7e              ; >017e
     B6FE 7E7E 
0919 B700 0087            byte >7e, >00, >87              ; >0087
0920 B702 7F00            byte >7f, >00, >66              ; >0066
     B704 6600 
0921               level_2_159_add:
0922                      byte >00
0923               level_2_160_add:
0924 B706 0002            byte >00
0925               level_2_161_add:
0926                      byte >02
0927 B708 0900            byte >09, >00, >c8              ; >00c8
     B70A C80A 
0928 B70C 019E            byte >0a, >01, >9e              ; >019e
0929               level_2_162_add:
0930 B70E 020B            byte >02
0931 B710 0120            byte >0b, >01, >20              ; >0120
0932 B712 0C00            byte >0c, >00, >c9              ; >00c9
     B714 C902 
0933               level_2_163_add:
0934                      byte >02
0935 B716 1201            byte >12, >01, >9f              ; >019f
     B718 9F0D 
0936 B71A 00CA            byte >0d, >00, >ca              ; >00ca
0937               level_2_164_add:
0938 B71C 0413            byte >04
0939 B71E 0117            byte >13, >01, >17              ; >0117
0940 B720 1400            byte >14, >00, >b6              ; >00b6
     B722 B615 
0941 B724 0121            byte >15, >01, >21              ; >0121
0942 B726 1800            byte >18, >00, >cb              ; >00cb
     B728 CB02 
0943               level_2_165_add:
0944                      byte >02
0945 B72A 1C01            byte >1c, >01, >18              ; >0118
     B72C 181D 
0946 B72E 00B7            byte >1d, >00, >b7              ; >00b7
0947               level_2_166_add:
0948 B730 0317            byte >03
0949 B732 0175            byte >17, >01, >75              ; >0175
0950 B734 1E00            byte >1e, >00, >0d              ; >000d
     B736 0D1F 
0951 B738 012F            byte >1f, >01, >2f              ; >012f
0952               level_2_167_add:
0953 B73A 0320            byte >03
0954 B73C 00A1            byte >20, >00, >a1              ; >00a1
0955 B73E 2100            byte >21, >00, >3f              ; >003f
     B740 3F22 
0956 B742 000E            byte >22, >00, >0e              ; >000e
0957               level_2_168_add:
0958 B744 0423            byte >04
0959 B746 00A9            byte >23, >00, >a9              ; >00a9
0960 B748 2500            byte >25, >00, >29              ; >0029
     B74A 2926 
0961 B74C 0127            byte >26, >01, >27              ; >0127
0962 B74E 2700            byte >27, >00, >03              ; >0003
     B750 0306 
0963               level_2_169_add:
0964                      byte >06
0965 B752 3101            byte >31, >01, >28              ; >0128
     B754 2835 
0966 B756 0004            byte >35, >00, >04              ; >0004
0967 B758 2800            byte >28, >00, >b5              ; >00b5
     B75A B52A 
0968 B75C 018E            byte >2a, >01, >8e              ; >018e
0969 B75E 2C00            byte >2c, >00, >2a              ; >002a
     B760 2A2D 
0970 B762 0150            byte >2d, >01, >50              ; >0150
0971               level_2_170_add:
0972 B764 0437            byte >04
0973 B766 0151            byte >37, >01, >51              ; >0151
0974 B768 3B00            byte >3b, >00, >2b              ; >002b
     B76A 2B4B 
0975 B76C 000F            byte >4b, >00, >0f              ; >000f
0976 B76E 3E01            byte >3e, >01, >30              ; >0130
     B770 3004 
0977               level_2_171_add:
0978                      byte >04
0979 B772 4401            byte >44, >01, >1a              ; >011a
     B774 1A45 
0980 B776 016C            byte >45, >01, >6c              ; >016c
0981 B778 4900            byte >49, >00, >37              ; >0037
     B77A 374D 
0982 B77C 0131            byte >4d, >01, >31              ; >0131
0983               level_2_172_add:
0984 B77E 014E            byte >01
0985 B780 017F            byte >4e, >01, >7f              ; >017f
0986               level_2_173_add:
0987 B782 0256            byte >02
0988 B784 0180            byte >56, >01, >80              ; >0180
0989 B786 5700            byte >57, >00, >5d              ; >005d
     B788 5D01 
0990               level_2_174_add:
0991                      byte >01
0992 B78A 6000            byte >60, >00, >5e              ; >005e
     B78C 5E01 
0993               level_2_175_add:
0994                      byte >01
0995 B78E 8000            byte >80, >00, >82              ; >0082
     B790 8203 
0996               level_2_176_add:
0997                      byte >03
0998 B792 0101            byte >01, >01, >57              ; >0157
     B794 5784 
0999 B796 0132            byte >84, >01, >32              ; >0132
1000 B798 1600            byte >16, >00, >38              ; >0038
     B79A 3803 
1001               level_2_177_add:
1002                      byte >03
1003 B79C 0401            byte >04, >01, >58              ; >0158
     B79E 5819 
1004 B7A0 0039            byte >19, >00, >39              ; >0039
1005 B7A2 1A01            byte >1a, >01, >33              ; >0133
     B7A4 3300 
1006               level_2_178_add:
1007                      byte >00
1008               level_2_179_add:
1009 B7A6 0185            byte >01
1010 B7A8 01A0            byte >85, >01, >a0              ; >01a0
1011               level_2_180_add:
1012 B7AA 0000            byte >00
1013               level_2_181_add:
1014                      byte >00
1015               level_2_182_add:
1016 B7AC 0105            byte >01
1017 B7AE 0062            byte >05, >00, >62              ; >0062
1018               level_2_183_add:
1019 B7B0 0002            byte >00
1020               level_2_184_add:
1021                      byte >02
1022 B7B2 0E01            byte >0e, >01, >0a              ; >010a
     B7B4 0A0F 
1023 B7B6 00DB            byte >0f, >00, >db              ; >00db
1024               level_2_185_add:
1025 B7B8 0710            byte >07
1026 B7BA 00E9            byte >10, >00, >e9              ; >00e9
1027 B7BC 5000            byte >50, >00, >3a              ; >003a
     B7BE 3A11 
1028 B7C0 01B6            byte >11, >01, >b6              ; >01b6
1029 B7C2 4100            byte >41, >00, >dc              ; >00dc
     B7C4 DC51 
1030 B7C6 0134            byte >51, >01, >34              ; >0134
1031 B7C8 4801            byte >48, >01, >a9              ; >01a9
     B7CA A94A 
1032 B7CC 0159            byte >4a, >01, >59              ; >0159
1033               level_2_186_add:
1034 B7CE 0555            byte >05
1035 B7D0 00DD            byte >55, >00, >dd              ; >00dd
1036 B7D2 0601            byte >06, >01, >0c              ; >010c
     B7D4 0C58 
1037 B7D6 015A            byte >58, >01, >5a              ; >015a
1038 B7D8 5900            byte >59, >00, >3b              ; >003b
     B7DA 3B5A 
1039 B7DC 0135            byte >5a, >01, >35              ; >0135
1040               level_2_187_add:
1041 B7DE 0761            byte >07
1042 B7E0 0124            byte >61, >01, >24              ; >0124
1043 B7E2 6301            byte >63, >01, >b7              ; >01b7
     B7E4 B764 
1044 B7E6 00DE            byte >64, >00, >de              ; >00de
1045 B7E8 5B01            byte >5b, >01, >d6              ; >01d6
     B7EA D65C 
1046 B7EC 0114            byte >5c, >01, >14              ; >0114
1047 B7EE 5D01            byte >5d, >01, >00              ; >0100
     B7F0 005F 
1048 B7F2 01CD            byte >5f, >01, >cd              ; >01cd
1049               level_2_188_add:
1050 B7F4 0465            byte >04
1051 B7F6 0101            byte >65, >01, >01              ; >0101
1052 B7F8 6701            byte >67, >01, >7a              ; >017a
     B7FA 7A68 
1053 B7FC 0013            byte >68, >00, >13              ; >0013
1054 B7FE 6900            byte >69, >00, >17              ; >0017
     B800 170A 
1055               level_2_189_add:
1056                      byte >0a
1057 B802 7001            byte >70, >01, >7b              ; >017b
     B804 7B71 
1058 B806 0063            byte >71, >00, >63              ; >0063
1059 B808 7200            byte >72, >00, >20              ; >0020
     B80A 2073 
1060 B80C 015B            byte >73, >01, >5b              ; >015b
1061 B80E 7400            byte >74, >00, >14              ; >0014
     B810 146A 
1062 B812 01E8            byte >6a, >01, >e8              ; >01e8
1063 B814 6B01            byte >6b, >01, >d7              ; >01d7
     B816 D76C 
1064 B818 0102            byte >6c, >01, >02              ; >0102
1065 B81A 6D01            byte >6d, >01, >ce              ; >01ce
     B81C CE6F 
1066 B81E 00A6            byte >6f, >00, >a6              ; >00a6
1067               level_2_190_add:
1068 B820 0C92            byte >0c
1069 B822 0136            byte >92, >01, >36              ; >0136
1070 B824 7501            byte >75, >01, >e9              ; >01e9
     B826 E995 
1071 B828 0015            byte >95, >00, >15              ; >0015
1072 B82A 7701            byte >77, >01, >15              ; >0115
     B82C 1578 
1073 B82E 01D8            byte >78, >01, >d8              ; >01d8
1074 B830 7901            byte >79, >01, >03              ; >0103
     B832 038A 
1075 B834 0064            byte >8a, >00, >64              ; >0064
1076 B836 7B01            byte >7b, >01, >94              ; >0194
     B838 947C 
1077 B83A 00A7            byte >7c, >00, >a7              ; >00a7
1078 B83C 7D01            byte >7d, >01, >7c              ; >017c
     B83E 7C7E 
1079 B840 0043            byte >7e, >00, >43              ; >0043
1080 B842 7F00            byte >7f, >00, >3c              ; >003c
     B844 3C08 
1081               level_2_191_add:
1082                      byte >08
1083 B846 A000            byte >a0, >00, >16              ; >0016
     B848 1698 
1084 B84A 01EA            byte >98, >01, >ea              ; >01ea
1085 B84C 9901            byte >99, >01, >d9              ; >01d9
     B84E D99A 
1086 B850 017D            byte >9a, >01, >7d              ; >017d
1087 B852 9B00            byte >9b, >00, >44              ; >0044
     B854 449C 
1088 B856 003D            byte >9c, >00, >3d              ; >003d
1089 B858 9D00            byte >9d, >00, >65              ; >0065
     B85A 659F 
1090 B85C 0137            byte >9f, >01, >37              ; >0137
1091               level_2_192_add:
1092 B85E 08A1            byte >08
1093 B860 0116            byte >a1, >01, >16              ; >0116
1094 B862 1201            byte >12, >01, >eb              ; >01eb
     B864 EBA2 
1095 B866 0108            byte >a2, >01, >08              ; >0108
1096 B868 A300            byte >a3, >00, >a8              ; >00a8
     B86A A8A4 
1097 B86C 017E            byte >a4, >01, >7e              ; >017e
1098 B86E A500            byte >a5, >00, >87              ; >0087
     B870 87A6 
1099 B872 0066            byte >a6, >00, >66              ; >0066
1100 B874 A700            byte >a7, >00, >3e              ; >003e
     B876 3E01 
1101               level_2_193_add:
1102                      byte >01
1103 B878 A801            byte >a8, >01, >09              ; >0109
     B87A 0900 
1104               level_2_194_add:
1105                      byte >00
1106               level_2_195_add:
1107 B87C 0702            byte >07
1108 B87E 0119            byte >02, >01, >19              ; >0119
1109 B880 1700            byte >17, >00, >ea              ; >00ea
     B882 EAA9 
1110 B884 0138            byte >a9, >01, >38              ; >0138
1111 B886 AA00            byte >aa, >00, >18              ; >0018
     B888 181C 
1112 B88A 00BC            byte >1c, >00, >bc              ; >00bc
1113 B88C 1E01            byte >1e, >01, >81              ; >0181
     B88E 811F 
1114 B890 0088            byte >1f, >00, >88              ; >0088
1115               level_2_196_add:
1116 B892 0220            byte >02
1117 B894 00CE            byte >20, >00, >ce              ; >00ce
1118 B896 2100            byte >21, >00, >eb              ; >00eb
     B898 EB03 
1119               level_2_197_add:
1120                      byte >03
1121 B89A 2600            byte >26, >00, >a1              ; >00a1
     B89C A127 
1122 B89E 003F            byte >27, >00, >3f              ; >003f
1123 B8A0 AB00            byte >ab, >00, >1a              ; >001a
     B8A2 1A05 
1124               level_2_198_add:
1125                      byte >05
1126 B8A4 2801            byte >28, >01, >1f              ; >011f
     B8A6 1F0A 
1127 B8A8 00B8            byte >0a, >00, >b8              ; >00b8
1128 B8AA 2A00            byte >2a, >00, >40              ; >0040
     B8AC 402C 
1129 B8AE 0139            byte >2c, >01, >39              ; >0139
1130 B8B0 2D00            byte >2d, >00, >1b              ; >001b
     B8B2 1B05 
1131               level_2_199_add:
1132                      byte >05
1133 B8B4 3101            byte >31, >01, >95              ; >0195
     B8B6 9535 
1134 B8B8 00AA            byte >35, >00, >aa              ; >00aa
1135 B8BA 3700            byte >37, >00, >41              ; >0041
     B8BC 413B 
1136 B8BE 013A            byte >3b, >01, >3a              ; >013a
1137 B8C0 3E00            byte >3e, >00, >1c              ; >001c
     B8C2 1C05 
1138               level_2_200_add:
1139                      byte >05
1140 B8C4 4500            byte >45, >00, >ba              ; >00ba
     B8C6 BA49 
1141 B8C8 00AB            byte >49, >00, >ab              ; >00ab
1142 B8CA 4B01            byte >4b, >01, >82              ; >0182
     B8CC 82AC 
1143 B8CE 013B            byte >ac, >01, >3b              ; >013b
1144 B8D0 4D00            byte >4d, >00, >42              ; >0042
     B8D2 4200 
1145               level_2_201_add:
1146                      byte >00
1147               level_2_202_add:
1148 B8D4 0000            byte >00
1149               level_2_203_add:
1150                      byte >00
1151               level_2_204_add:
1152 B8D6 014E            byte >01
1153 B8D8 0089            byte >4e, >00, >89              ; >0089
1154               level_2_205_add:
1155 B8DA 0560            byte >05
1156 B8DC 013C            byte >60, >01, >3c              ; >013c
1157 B8DE 0100            byte >01, >00, >7c              ; >007c
     B8E0 7C16 
1158 B8E2 016D            byte >16, >01, >6d              ; >016d
1159 B8E4 5601            byte >56, >01, >5c              ; >015c
     B8E6 5C57 
1160 B8E8 0038            byte >57, >00, >38              ; >0038
1161               level_2_206_add:
1162 B8EA 0580            byte >05
1163 B8EC 0039            byte >80, >00, >39              ; >0039
1164 B8EE 0400            byte >04, >00, >8a              ; >008a
     B8F0 8A84 
1165 B8F2 013D            byte >84, >01, >3d              ; >013d
1166 B8F4 1901            byte >19, >01, >6e              ; >016e
     B8F6 6E1A 
1167 B8F8 015D            byte >1a, >01, >5d              ; >015d
1168               level_2_207_add:
1169 B8FA 0113            byte >01
1170 B8FC 008B            byte >13, >00, >8b              ; >008b
1171               level_2_208_add:
1172 B8FE 0385            byte >03
1173 B900 0183            byte >85, >01, >83              ; >0183
1174 B902 AD00            byte >ad, >00, >8c              ; >008c
     B904 8CAE 
1175 B906 005E            byte >ae, >00, >5e              ; >005e
1176               level_2_209_add:
1177 B908 0000            byte >00
1178               level_2_210_add:
1179                      byte >00
1180               level_2_211_add:
1181 B90A 01AF            byte >01
1182 B90C 005D            byte >af, >00, >5d              ; >005d
1183               level_2_212_add:
1184 B90E 0000            byte >00
1185               level_2_213_add:
1186                      byte >00
1187               level_2_214_add:
1188 B910 0710            byte >07
1189 B912 00DB            byte >10, >00, >db              ; >00db
1190 B914 4001            byte >40, >01, >3e              ; >013e
     B916 3E11 
1191 B918 015E            byte >11, >01, >5e              ; >015e
1192 B91A 3600            byte >36, >00, >3a              ; >003a
     B91C 3A08 
1193 B91E 01EC            byte >08, >01, >ec              ; >01ec
1194 B920 0E01            byte >0e, >01, >1b              ; >011b
     B922 1B0F 
1195 B924 010A            byte >0f, >01, >0a              ; >010a
1196               level_2_215_add:
1197 B926 0750            byte >07
1198 B928 013F            byte >50, >01, >3f              ; >013f
1199 B92A 4100            byte >41, >00, >dc              ; >00dc
     B92C DC43 
1200 B92E 00F5            byte >43, >00, >f5              ; >00f5
1201 B930 0601            byte >06, >01, >23              ; >0123
     B932 2348 
1202 B934 015F            byte >48, >01, >5f              ; >015f
1203 B936 4A00            byte >4a, >00, >3b              ; >003b
     B938 3B2B 
1204 B93A 010B            byte >2b, >01, >0b              ; >010b
1205               level_2_216_add:
1206 B93C 0351            byte >03
1207 B93E 01ED            byte >51, >01, >ed              ; >01ed
1208 B940 5501            byte >55, >01, >0c              ; >010c
     B942 0C58 
1209 B944 00DD            byte >58, >00, >dd              ; >00dd
1210               level_2_217_add:
1211 B946 0861            byte >08
1212 B948 001D            byte >61, >00, >1d              ; >001d
1213 B94A 6300            byte >63, >00, >13              ; >0013
     B94C 1359 
1214 B94E 01EE            byte >59, >01, >ee              ; >01ee
1215 B950 5A01            byte >5a, >01, >24              ; >0124
     B952 245B 
1216 B954 010D            byte >5b, >01, >0d              ; >010d
1217 B956 5C00            byte >5c, >00, >de              ; >00de
     B958 DE5D 
1218 B95A 0184            byte >5d, >01, >84              ; >0184
1219 B95C 5F00            byte >5f, >00, >8d              ; >008d
     B95E 8D05 
1220               level_2_218_add:
1221                      byte >05
1222 B960 6400            byte >64, >00, >ac              ; >00ac
     B962 AC65 
1223 B964 0185            byte >65, >01, >85              ; >0185
1224 B966 6700            byte >67, >00, >8e              ; >008e
     B968 8E68 
1225 B96A 0067            byte >68, >00, >67              ; >0067
1226 B96C 6900            byte >69, >00, >20              ; >0020
     B96E 2006 
1227               level_2_219_add:
1228                      byte >06
1229 B970 7000            byte >70, >00, >1e              ; >001e
     B972 1E6A 
1230 B974 00AD            byte >6a, >00, >ad              ; >00ad
1231 B976 6B00            byte >6b, >00, >64              ; >0064
     B978 646C 
1232 B97A 0043            byte >6c, >00, >43              ; >0043
1233 B97C 6D00            byte >6d, >00, >68              ; >0068
     B97E 686F 
1234 B980 0140            byte >6f, >01, >40              ; >0140
1235               level_2_220_add:
1236 B982 0571            byte >05
1237 B984 003D            byte >71, >00, >3d              ; >003d
1238 B986 7200            byte >72, >00, >65              ; >0065
     B988 6573 
1239 B98A 0044            byte >73, >00, >44              ; >0044
1240 B98C 7401            byte >74, >01, >41              ; >0141
     B98E 4175 
1241 B990 001F            byte >75, >00, >1f              ; >001f
1242               level_2_221_add:
1243 B992 0812            byte >08
1244 B994 0196            byte >12, >01, >96              ; >0196
1245 B996 1400            byte >14, >00, >a8              ; >00a8
     B998 A877 
1246 B99A 0186            byte >77, >01, >86              ; >0186
1247 B99C 7800            byte >78, >00, >8f              ; >008f
     B99E 8F79 
1248 B9A0 0087            byte >79, >00, >87              ; >0087
1249 B9A2 7B00            byte >7b, >00, >69              ; >0069
     B9A4 697C 
1250 B9A6 003E            byte >7c, >00, >3e              ; >003e
1251 B9A8 7D01            byte >7d, >01, >42              ; >0142
     B9AA 4200 
1252               level_2_222_add:
1253                      byte >00
1254               level_2_223_add:
1255 B9AC 0000            byte >00
1256               level_2_224_add:
1257                      byte >00
1258               level_2_225_add:
1259 B9AE 0003            byte >00
1260               level_2_226_add:
1261                      byte >03
1262 B9B0 0201            byte >02, >01, >04              ; >0104
     B9B2 0409 
1263 B9B4 007F            byte >09, >00, >7f              ; >007f
1264 B9B6 0B01            byte >0b, >01, >69              ; >0169
     B9B8 6902 
1265               level_2_227_add:
1266                      byte >02
1267 B9BA 0A01            byte >0a, >01, >05              ; >0105
     B9BC 050C 
1268 B9BE 0080            byte >0c, >00, >80              ; >0080
1269               level_2_228_add:
1270 B9C0 0415            byte >04
1271 B9C2 0175            byte >15, >01, >75              ; >0175
1272 B9C4 1800            byte >18, >00, >0d              ; >000d
     B9C6 0D0D 
1273 B9C8 0106            byte >0d, >01, >06              ; >0106
1274 B9CA 1D01            byte >1d, >01, >2f              ; >012f
     B9CC 2F04 
1275               level_2_229_add:
1276                      byte >04
1277 B9CE 2200            byte >22, >00, >3f              ; >003f
     B9D0 3F23 
1278 B9D2 000E            byte >23, >00, >0e              ; >000e
1279 B9D4 1E01            byte >1e, >01, >07              ; >0107
     B9D6 071F 
1280 B9D8 00A1            byte >1f, >00, >a1              ; >00a1
1281               level_2_230_add:
1282 B9DA 0425            byte >04
1283 B9DC 00A9            byte >25, >00, >a9              ; >00a9
1284 B9DE 2600            byte >26, >00, >29              ; >0029
     B9E0 2927 
1285 B9E2 0127            byte >27, >01, >27              ; >0127
1286 B9E4 2800            byte >28, >00, >03              ; >0003
     B9E6 0306 
1287               level_2_231_add:
1288                      byte >06
1289 B9E8 3101            byte >31, >01, >28              ; >0128
     B9EA 2805 
1290 B9EC 00B4            byte >05, >00, >b4              ; >00b4
1291 B9EE 3500            byte >35, >00, >04              ; >0004
     B9F0 042A 
1292 B9F2 018E            byte >2a, >01, >8e              ; >018e
1293 B9F4 2C00            byte >2c, >00, >2a              ; >002a
     B9F6 2A2D 
1294 B9F8 0150            byte >2d, >01, >50              ; >0150
1295               level_2_232_add:
1296 B9FA 0544            byte >05
1297 B9FC 0130            byte >44, >01, >30              ; >0130
1298 B9FE 4500            byte >45, >00, >0f              ; >000f
     BA00 0F37 
1299 BA02 0078            byte >37, >00, >78              ; >0078
1300 BA04 3B01            byte >3b, >01, >51              ; >0151
     BA06 513E 
1301 BA08 002B            byte >3e, >00, >2b              ; >002b
1302               level_2_233_add:
1303 BA0A 0549            byte >05
1304 BA0C 0079            byte >49, >00, >79              ; >0079
1305 BA0E 4B01            byte >4b, >01, >76              ; >0176
     BA10 764D 
1306 BA12 0081            byte >4d, >00, >81              ; >0081
1307 BA14 4E00            byte >4e, >00, >37              ; >0037
     BA16 377E 
1308 BA18 0131            byte >7e, >01, >31              ; >0131
1309               level_2_234_add:
1310 BA1A 0000            byte >00
1311               level_2_235_add:
1312                      byte >00
1313               level_2_236_add:
1314 BA1C 0001            byte >00
1315               level_2_237_add:
1316                      byte >01
1317 BA1E 1A00            byte >1a, >00, >82              ; >0082
     BA20 8205 
1318               level_2_238_add:
1319                      byte >05
1320 BA22 6001            byte >60, >01, >57              ; >0157
     BA24 5780 
1321 BA26 0132            byte >80, >01, >32              ; >0132
1322 BA28 5600            byte >56, >00, >83              ; >0083
     BA2A 8357 
1323 BA2C 016A            byte >57, >01, >6a              ; >016a
1324 BA2E 7F00            byte >7f, >00, >38              ; >0038
     BA30 3804 
1325               level_2_239_add:
1326                      byte >04
1327 BA32 8101            byte >81, >01, >6b              ; >016b
     BA34 6B84 
1328 BA36 0158            byte >84, >01, >58              ; >0158
1329 BA38 8A00            byte >8a, >00, >39              ; >0039
     BA3A 398B 
1330 BA3C 0133            byte >8b, >01, >33              ; >0133
1331               level_2_240_add:
1332 BA3E 028D            byte >02
1333 BA40 0178            byte >8d, >01, >78              ; >0178
1334 BA42 8E00            byte >8e, >00, >85              ; >0085
     BA44 8503 
1335               level_2_241_add:
1336                      byte >03
1337 BA46 9100            byte >91, >00, >86              ; >0086
     BA48 8692 
1338 BA4A 0061            byte >92, >00, >61              ; >0061
1339 BA4C 8F01            byte >8f, >01, >79              ; >0179
     BA4E 7900 
1340               level_2_242_add:
1341                      byte >00
1342               level_2_243_add:
1343 BA50 0108            byte >01
1344 BA52 00DA            byte >08, >00, >da              ; >00da
1345               level_2_244_add:
1346 BA54 010E            byte >01
1347 BA56 0062            byte >0e, >00, >62              ; >0062
1348               level_2_245_add:
1349 BA58 0000            byte >00
1350               level_2_246_add:
1351                      byte >00
1352               level_2_247_add:
1353 BA5A 0411            byte >04
1354 BA5C 0159            byte >11, >01, >59              ; >0159
1355 BA5E 1300            byte >13, >00, >3a              ; >003a
     BA60 3A2B 
1356 BA62 0134            byte >2b, >01, >34              ; >0134
1357 BA64 0F00            byte >0f, >00, >e9              ; >00e9
     BA66 E904 
1358               level_2_248_add:
1359                      byte >04
1360 BA68 4001            byte >40, >01, >5a              ; >015a
     BA6A 5A36 
1361 BA6C 01EF            byte >36, >01, >ef              ; >01ef
1362 BA6E 4800            byte >48, >00, >3b              ; >003b
     BA70 3B4A 
1363 BA72 0135            byte >4a, >01, >35              ; >0135
1364               level_2_249_add:
1365 BA74 0350            byte >03
1366 BA76 01F0            byte >50, >01, >f0              ; >01f0
1367 BA78 5101            byte >51, >01, >00              ; >0100
     BA7A 0055 
1368 BA7C 01CD            byte >55, >01, >cd              ; >01cd
1369               level_2_250_add:
1370 BA7E 0412            byte >04
1371 BA80 017A            byte >12, >01, >7a              ; >017a
1372 BA82 1400            byte >14, >00, >13              ; >0013
     BA84 1307 
1373 BA86 0101            byte >07, >01, >01              ; >0101
1374 BA88 5900            byte >59, >00, >17              ; >0017
     BA8A 1708 
1375               level_2_251_add:
1376                      byte >08
1377 BA8C 6101            byte >61, >01, >7b              ; >017b
     BA8E 7B63 
1378 BA90 0063            byte >63, >00, >63              ; >0063
1379 BA92 6400            byte >64, >00, >20              ; >0020
     BA94 2065 
1380 BA96 015B            byte >65, >01, >5b              ; >015b
1381 BA98 5A01            byte >5a, >01, >e5              ; >01e5
     BA9A E55B 
1382 BA9C 0102            byte >5b, >01, >02              ; >0102
1383 BA9E 5D01            byte >5d, >01, >ce              ; >01ce
     BAA0 CE5F 
1384 BAA2 00A6            byte >5f, >00, >a6              ; >00a6
1385               level_2_252_add:
1386 BAA4 0A70            byte >0a
1387 BAA6 0015            byte >70, >00, >15              ; >0015
1388 BAA8 1601            byte >16, >01, >e6              ; >01e6
     BAAA E667 
1389 BAAC 0103            byte >67, >01, >03              ; >0103
1390 BAAE 6801            byte >68, >01, >94              ; >0194
     BAB0 9469 
1391 BAB2 00A7            byte >69, >00, >a7              ; >00a7
1392 BAB4 6A01            byte >6a, >01, >7c              ; >017c
     BAB6 7C6B 
1393 BAB8 0043            byte >6b, >00, >43              ; >0043
1394 BABA 6C00            byte >6c, >00, >3c              ; >003c
     BABC 3C6D 
1395 BABE 0064            byte >6d, >00, >64              ; >0064
1396 BAC0 6F01            byte >6f, >01, >36              ; >0136
     BAC2 3608 
1397               level_2_253_add:
1398                      byte >08
1399 BAC4 7101            byte >71, >01, >7d              ; >017d
     BAC6 7D72 
1400 BAC8 0044            byte >72, >00, >44              ; >0044
1401 BACA 7300            byte >73, >00, >3d              ; >003d
     BACC 3D04 
1402 BACE 01E7            byte >04, >01, >e7              ; >01e7
1403 BAD0 7400            byte >74, >00, >65              ; >0065
     BAD2 6575 
1404 BAD4 0137            byte >75, >01, >37              ; >0137
1405 BAD6 7700            byte >77, >00, >16              ; >0016
     BAD8 1619 
1406 BADA 007D            byte >19, >00, >7d              ; >007d
1407               level_2_254_add:
1408 BADC 0578            byte >05
1409 BADE 00A8            byte >78, >00, >a8              ; >00a8
1410 BAE0 7901            byte >79, >01, >7e              ; >017e
     BAE2 7E7B 
1411 BAE4 0087            byte >7b, >00, >87              ; >0087
1412 BAE6 7C00            byte >7c, >00, >66              ; >0066
     BAE8 667D 
1413 BAEA 003E            byte >7d, >00, >3e              ; >003e
1414               level_2_255_add:
1415 BAEC 0001            byte >00
1416               level_2_256_add:
1417                      byte >01
1418 BAEE 0200            byte >02, >00, >ae              ; >00ae
     BAF0 AE03 
1419               level_2_257_add:
1420                      byte >03
1421 BAF2 0900            byte >09, >00, >90              ; >0090
     BAF4 900A 
1422 BAF6 00CF            byte >0a, >00, >cf              ; >00cf
1423 BAF8 0B00            byte >0b, >00, >22              ; >0022
     BAFA 2202 
1424               level_2_258_add:
1425                      byte >02
1426 BAFC 0C00            byte >0c, >00, >45              ; >0045
     BAFE 450D 
1427 BB00 0143            byte >0d, >01, >43              ; >0143
1428               level_2_259_add:
1429 BB02 0310            byte >03
1430 BB04 0160            byte >10, >01, >60              ; >0160
1431 BB06 1500            byte >15, >00, >46              ; >0046
     BB08 4618 
1432 BB0A 0144            byte >18, >01, >44              ; >0144
1433               level_2_260_add:
1434 BB0C 0405            byte >04
1435 BB0E 006A            byte >05, >00, >6a              ; >006a
1436 BB10 1D01            byte >1d, >01, >61              ; >0161
     BB12 611E 
1437 BB14 0047            byte >1e, >00, >47              ; >0047
1438 BB16 1F01            byte >1f, >01, >45              ; >0145
     BB18 4501 
1439               level_2_261_add:
1440                      byte >01
1441 BB1A 2201            byte >22, >01, >62              ; >0162
     BB1C 6205 
1442               level_2_262_add:
1443                      byte >05
1444 BB1E 2300            byte >23, >00, >6c              ; >006c
     BB20 6C25 
1445 BB22 0163            byte >25, >01, >63              ; >0163
1446 BB24 2600            byte >26, >00, >48              ; >0048
     BB26 4827 
1447 BB28 0146            byte >27, >01, >46              ; >0146
1448 BB2A 1C00            byte >1c, >00, >f6              ; >00f6
     BB2C F601 
1449               level_2_263_add:
1450                      byte >01
1451 BB2E 2800            byte >28, >00, >6d              ; >006d
     BB30 6D05 
1452               level_2_264_add:
1453                      byte >05
1454 BB32 3100            byte >31, >00, >23              ; >0023
     BB34 2303 
1455 BB36 0092            byte >03, >00, >92              ; >0092
1456 BB38 2A01            byte >2a, >01, >64              ; >0164
     BB3A 642C 
1457 BB3C 0049            byte >2c, >00, >49              ; >0049
1458 BB3E 2D01            byte >2d, >01, >47              ; >0147
     BB40 4704 
1459               level_2_265_add:
1460                      byte >04
1461 BB42 4100            byte >41, >00, >24              ; >0024
     BB44 2435 
1462 BB46 006E            byte >35, >00, >6e              ; >006e
1463 BB48 3B01            byte >3b, >01, >65              ; >0165
     BB4A 653E 
1464 BB4C 0148            byte >3e, >01, >48              ; >0148
1465               level_2_266_add:
1466 BB4E 0343            byte >03
1467 BB50 004A            byte >43, >00, >4a              ; >004a
1468 BB52 4401            byte >44, >01, >49              ; >0149
     BB54 491A 
1469 BB56 006F            byte >1a, >00, >6f              ; >006f
1470               level_2_267_add:
1471 BB58 0545            byte >05
1472 BB5A 01A1            byte >45, >01, >a1              ; >01a1
1473 BB5C 5800            byte >58, >00, >25              ; >0025
     BB5E 254B 
1474 BB60 00BD            byte >4b, >00, >bd              ; >00bd
1475 BB62 4D00            byte >4d, >00, >70              ; >0070
     BB64 704E 
1476 BB66 014A            byte >4e, >01, >4a              ; >014a
1477               level_2_268_add:
1478 BB68 0660            byte >06
1479 BB6A 01A2            byte >60, >01, >a2              ; >01a2
1480 BB6C 8001            byte >80, >01, >87              ; >0187
     BB6E 8784 
1481 BB70 0093            byte >84, >00, >93              ; >0093
1482 BB72 5C00            byte >5c, >00, >d0              ; >00d0
     BB74 D07E 
1483 BB76 0197            byte >7e, >01, >97              ; >0197
1484 BB78 7F00            byte >7f, >00, >af              ; >00af
     BB7A AF04 
1485               level_2_269_add:
1486                      byte >04
1487 BB7C 8500            byte >85, >00, >d1              ; >00d1
     BB7E D195 
1488 BB80 0198            byte >95, >01, >98              ; >0198
1489 BB82 8A01            byte >8a, >01, >a3              ; >01a3
     BB84 A38B 
1490 BB86 0054            byte >8b, >00, >54              ; >0054
1491               level_2_270_add:
1492 BB88 0498            byte >04
1493 BB8A 01AA            byte >98, >01, >aa              ; >01aa
1494 BB8C 9900            byte >99, >00, >d2              ; >00d2
     BB8E D29A 
1495 BB90 01A4            byte >9a, >01, >a4              ; >01a4
1496 BB92 9B00            byte >9b, >00, >be              ; >00be
     BB94 BE03 
1497               level_2_271_add:
1498                      byte >03
1499 BB96 9C01            byte >9c, >01, >ab              ; >01ab
     BB98 AB9D 
1500 BB9A 01A5            byte >9d, >01, >a5              ; >01a5
1501 BB9C 9F00            byte >9f, >00, >bf              ; >00bf
     BB9E BF03 
1502               level_2_272_add:
1503                      byte >03
1504 BBA0 0101            byte >01, >01, >ac              ; >01ac
     BBA2 AC17 
1505 BBA4 01A6            byte >17, >01, >a6              ; >01a6
1506 BBA6 0800            byte >08, >00, >d3              ; >00d3
     BBA8 D303 
1507               level_2_273_add:
1508                      byte >03
1509 BBAA 2001            byte >20, >01, >a7              ; >01a7
     BBAC A721 
1510 BBAE 00C0            byte >21, >00, >c0              ; >00c0
1511 BBB0 0E00            byte >0e, >00, >d4              ; >00d4
     BBB2 D404 
1512               level_2_274_add:
1513                      byte >04
1514 BBB4 A001            byte >a0, >01, >ad              ; >01ad
     BBB6 ADA1 
1515 BBB8 00D5            byte >a1, >00, >d5              ; >00d5
1516 BBBA A200            byte >a2, >00, >c1              ; >00c1
     BBBC C146 
1517 BBBE 00DF            byte >46, >00, >df              ; >00df
1518               level_2_275_add:
1519 BBC0 0324            byte >03
1520 BBC2 00E0            byte >24, >00, >e0              ; >00e0
1521 BBC4 4C00            byte >4c, >00, >d6              ; >00d6
     BBC6 D62E 
1522 BBC8 01AE            byte >2e, >01, >ae              ; >01ae
1523               level_2_276_add:
1524 BBCA 0711            byte >07
1525 BBCC 01AF            byte >11, >01, >af              ; >01af
1526 BBCE 1300            byte >13, >00, >c2              ; >00c2
     BBD0 C206 
1527 BBD2 01B8            byte >06, >01, >b8              ; >01b8
1528 BBD4 2901            byte >29, >01, >88              ; >0188
     BBD6 882B 
1529 BBD8 0094            byte >2b, >00, >94              ; >0094
1530 BBDA 3C01            byte >3c, >01, >6f              ; >016f
     BBDC 6F0F 
1531 BBDE 00E1            byte >0f, >00, >e1              ; >00e1
1532               level_2_277_add:
1533 BBE0 0740            byte >07
1534 BBE2 0166            byte >40, >01, >66              ; >0166
1535 BBE4 4200            byte >42, >00, >4c              ; >004c
     BBE6 4C33 
1536 BBE8 01B9            byte >33, >01, >b9              ; >01b9
1537 BBEA 3400            byte >34, >00, >e2              ; >00e2
     BBEC E236 
1538 BBEE 01B0            byte >36, >01, >b0              ; >01b0
1539 BBF0 3700            byte >37, >00, >c3              ; >00c3
     BBF2 C347 
1540 BBF4 014B            byte >47, >01, >4b              ; >014b
1541               level_2_278_add:
1542 BBF6 0548            byte >05
1543 BBF8 01C3            byte >48, >01, >c3              ; >01c3
1544 BBFA 3901            byte >39, >01, >cf              ; >01cf
     BBFC CF49 
1545 BBFE 00E3            byte >49, >00, >e3              ; >00e3
1546 BC00 3A00            byte >3a, >00, >f7              ; >00f7
     BC02 F74A 
1547 BC04 0071            byte >4a, >00, >71              ; >0071
1548               level_2_279_add:
1549 BC06 0512            byte >05
1550 BC08 00F8            byte >12, >00, >f8              ; >00f8
1551 BC0A 1401            byte >14, >01, >c4              ; >01c4
     BC0C C407 
1552 BC0E 01D0            byte >07, >01, >d0              ; >01d0
1553 BC10 3D00            byte >3d, >00, >e4              ; >00e4
     BC12 E43F 
1554 BC14 0170            byte >3f, >01, >70              ; >0170
1555               level_2_280_add:
1556 BC16 0550            byte >05
1557 BC18 01D1            byte >50, >01, >d1              ; >01d1
1558 BC1A 5100            byte >51, >00, >f9              ; >00f9
     BC1C F952 
1559 BC1E 01B1            byte >52, >01, >b1              ; >01b1
1560 BC20 5300            byte >53, >00, >95              ; >0095
     BC22 954F 
1561 BC24 010E            byte >4f, >01, >0e              ; >010e
1562               level_2_281_add:
1563 BC26 0854            byte >08
1564 BC28 01BB            byte >54, >01, >bb              ; >01bb
1565 BC2A 5501            byte >55, >01, >0f              ; >010f
     BC2C 0F16 
1566 BC2E 01F1            byte >16, >01, >f1              ; >01f1
1567 BC30 5601            byte >56, >01, >d2              ; >01d2
     BC32 D257 
1568 BC34 00FA            byte >57, >00, >fa              ; >00fa
1569 BC36 5901            byte >59, >01, >b2              ; >01b2
     BC38 B25A 
1570 BC3A 0189            byte >5a, >01, >89              ; >0189
1571 BC3C 5B00            byte >5b, >00, >96              ; >0096
     BC3E 9609 
1572               level_2_282_add:
1573                      byte >09
1574 BC40 6101            byte >61, >01, >c5              ; >01c5
     BC42 C563 
1575 BC44 00EC            byte >63, >00, >ec              ; >00ec
1576 BC46 0401            byte >04, >01, >c8              ; >01c8
     BC48 C864 
1577 BC4A 00C4            byte >64, >00, >c4              ; >00c4
1578 BC4C 6500            byte >65, >00, >b0              ; >00b0
     BC4E B066 
1579 BC50 0097            byte >66, >00, >97              ; >0097
1580 BC52 5D00            byte >5d, >00, >ef              ; >00ef
     BC54 EF5E 
1581 BC56 01BC            byte >5e, >01, >bc              ; >01bc
1582 BC58 5F01            byte >5f, >01, >da              ; >01da
     BC5A DA07 
1583               level_2_283_add:
1584                      byte >07
1585 BC5C 3201            byte >32, >01, >c9              ; >01c9
     BC5E C967 
1586 BC60 00F0            byte >67, >00, >f0              ; >00f0
1587 BC62 6801            byte >68, >01, >bd              ; >01bd
     BC64 BD69 
1588 BC66 01DB            byte >69, >01, >db              ; >01db
1589 BC68 6A01            byte >6a, >01, >c6              ; >01c6
     BC6A C66B 
1590 BC6C 00ED            byte >6b, >00, >ed              ; >00ed
1591 BC6E 6C01            byte >6c, >01, >ba              ; >01ba
     BC70 BA04 
1592               level_2_284_add:
1593                      byte >04
1594 BC72 3801            byte >38, >01, >f2              ; >01f2
     BC74 F26D 
1595 BC76 00FB            byte >6d, >00, >fb              ; >00fb
1596 BC78 6E01            byte >6e, >01, >c7              ; >01c7
     BC7A C76F 
1597 BC7C 0098            byte >6f, >00, >98              ; >0098
1598               level_2_285_add:
1599 BC7E 0270            byte >02
1600 BC80 00EE            byte >70, >00, >ee              ; >00ee
1601 BC82 7100            byte >71, >00, >72              ; >0072
     BC84 7202 
1602               level_2_286_add:
1603                      byte >02
1604 BC86 7200            byte >72, >00, >73              ; >0073
     BC88 730B 
1605 BC8A 0110            byte >0b, >01, >10              ; >0110
1606               level_2_287_add:
1607 BC8C 0014            byte >00
**** **** ****     > zqx-one.a99
1968               diff_end_2:
1969                      copy "tl2.a99"
**** **** ****     > tl2.a99
0001               ****************************************
0002               * Tile Attributes
0003               ****************************************
0004               TAT140 BYTE >14                        ;
0005 BC8E 1414     TAT141 BYTE >14                        ;
0006               TAT142 BYTE >14                        ;
0007 BC90 1414     TAT143 BYTE >14                        ;
0008               TAT144 BYTE >14                        ;
0009 BC92 1414     TAT145 BYTE >14                        ;
0010               TAT146 BYTE >14                        ;
0011 BC94 1414     TAT147 BYTE >14                        ;
0012               TAT148 BYTE >14                        ;
0013 BC96 1414     TAT149 BYTE >14                        ;
0014               TAT150 BYTE >14                        ;
0015 BC98 1414     TAT151 BYTE >14                        ;
0016               TAT152 BYTE >14                        ;
0017 BC9A 1414     TAT153 BYTE >14                        ;
0018               TAT154 BYTE >14                        ;
0019 BC9C 1414     TAT155 BYTE >14                        ;
0020               TAT156 BYTE >14                        ;
0021 BC9E 1414     TAT157 BYTE >14                        ;
0022               TAT158 BYTE >14                        ;
0023 BCA0 1414     TAT159 BYTE >14                        ;
0024               TAT160 BYTE >14                        ;
0025 BCA2 1414     TAT161 BYTE >14                        ;
0026               TAT162 BYTE >14                        ;
0027 BCA4 1414     TAT163 BYTE >14                        ;
0028               TAT164 BYTE >14                        ;
0029 BCA6 1414     TAT165 BYTE >14                        ;
0030               TAT166 BYTE >14                        ;
0031 BCA8 1414     TAT167 BYTE >14                        ;
0032               TAT168 BYTE >14                        ;
0033 BCAA 1414     TAT169 BYTE >14                        ;
0034               TAT170 BYTE >14                        ;
0035 BCAC 1414     TAT171 BYTE >14                        ;
0036               TAT172 BYTE >14                        ;
0037 BCAE 1414     TAT173 BYTE >14                        ;
0038               TAT174 BYTE >14                        ;
0039 BCB0 1414     TAT175 BYTE >14                        ;
0040               TAT176 BYTE >14                        ;
0041 BCB2 1414     TAT177 BYTE >14                        ;
0042               TAT178 BYTE >14                        ;
0043 BCB4 1414     TAT179 BYTE >14                        ;
0044               TAT180 BYTE >14                        ;
0045 BCB6 1414     TAT181 BYTE >14                        ;
0046               TAT182 BYTE >14                        ;
0047 BCB8 1414     TAT183 BYTE >14                        ;
0048               TAT184 BYTE >14                        ;
0049 BCBA 1414     TAT185 BYTE >14                        ;
0050               TAT186 BYTE >14                        ;
0051 BCBC 1414     TAT187 BYTE >14                        ;
0052               TAT188 BYTE >14                        ;
0053 BCBE 1414     TAT189 BYTE >14                        ;
0054               TAT190 BYTE >14                        ;
0055 BCC0 1414     TAT191 BYTE >14                        ;
0056               TAT192 BYTE >14                        ;
0057 BCC2 1414     TAT193 BYTE >14                        ;
0058               TAT194 BYTE >14                        ;
0059 BCC4 1414     TAT195 BYTE >14                        ;
0060               TAT196 BYTE >14                        ;
0061 BCC6 1414     TAT197 BYTE >14                        ;
0062               TAT198 BYTE >14                        ;
0063 BCC8 1414     TAT199 BYTE >14                        ;
0064               TAT200 BYTE >14                        ;
0065 BCCA 1414     TAT201 BYTE >14                        ;
0066               TAT202 BYTE >14                        ;
0067 BCCC 1414     TAT203 BYTE >14                        ;
0068               TAT204 BYTE >14                        ;
0069 BCCE 1414     TAT205 BYTE >14                        ;
0070               TAT206 BYTE >14                        ;
0071 BCD0 1414     TAT207 BYTE >14                        ;
0072               TAT208 BYTE >14                        ;
0073 BCD2 1414     TAT209 BYTE >14                        ;
0074               TAT210 BYTE >14                        ;
0075 BCD4 1414     TAT211 BYTE >14                        ;
0076               TAT212 BYTE >14                        ;
0077 BCD6 1414     TAT213 BYTE >14                        ;
0078               TAT214 BYTE >14                        ;
0079 BCD8 1414     TAT215 BYTE >14                        ;
0080               TAT216 BYTE >14                        ;
0081 BCDA 1414     TAT217 BYTE >14                        ;
0082               TAT218 BYTE >14                        ;
0083 BCDC 1414     TAT219 BYTE >14                        ;
0084               TAT220 BYTE >14                        ;
0085 BCDE 1414     TAT221 BYTE >14                        ;
0086               TAT222 BYTE >14                        ;
0087 BCE0 1414     TAT223 BYTE >14                        ;
0088               TAT224 BYTE >14                        ;
0089 BCE2 1414     TAT225 BYTE >14                        ;
0090               TAT226 BYTE >14                        ;
0091 BCE4 1404     TAT227 BYTE >14                        ;
0092               TAT228 BYTE >04                        ;
0093 BCE6 0404     TAT229 BYTE >04                        ;
0094               TAT230 BYTE >04                        ;
0095 BCE8 0404     TAT231 BYTE >04                        ;
0096               TAT232 BYTE >04                        ;
0097 BCEA 0404     TAT233 BYTE >04                        ;
0098               TAT234 BYTE >04                        ;
0099 BCEC 0404     TAT235 BYTE >04                        ;
0100               TAT236 BYTE >04                        ;
0101 BCEE 040A     TAT237 BYTE >04                        ;
0102               TAT238 BYTE >0A                        ;
0103 BCF0 0404     TAT239 BYTE >04                        ;
0104               TAT240 BYTE >04                        ;
0105 BCF2 0404     TAT241 BYTE >04                        ;
0106               TAT242 BYTE >04                        ;
0107 BCF4 0404     TAT243 BYTE >04                        ;
0108               TAT244 BYTE >04                        ;
0109 BCF6 0404     TAT245 BYTE >04                        ;
0110               TAT246 BYTE >04                        ;
0111 BCF8 0404     TAT247 BYTE >04                        ;
0112               TAT248 BYTE >04                        ;
0113 BCFA 0404     TAT249 BYTE >04                        ;
0114               TAT250 BYTE >04                        ;
0115 BCFC 1414     TAT251 BYTE >14                        ;
0116               TAT252 BYTE >14                        ;
0117 BCFE 1414     TAT253 BYTE >14                        ;
0118               TAT254 BYTE >14                        ;
0119 BD00 1400     TAT255 BYTE >14                        ;
0120               ****************************************
0121               * Character Patterns Plane 0
0122               ****************************************
0123 BD02 0000     P0_140 DATA >0000,>0000,>0000,>0000    ;
     BD04 0000 
     BD06 0000 
     BD08 0000 
0124 BD0A 1818     P0_141 DATA >1818,>1818,>0018,>1800    ;
     BD0C 1818 
     BD0E 0018 
     BD10 1800 
0125 BD12 1414     P0_142 DATA >1414,>0000,>0000,>0000    ;
     BD14 0000 
     BD16 0000 
     BD18 0000 
0126 BD1A 2436     P0_143 DATA >2436,>3600,>0000,>0000    ;
     BD1C 3600 
     BD1E 0000 
     BD20 0000 
0127 BD22 3636     P0_144 DATA >3636,>1200,>0000,>0000    ;
     BD24 1200 
     BD26 0000 
     BD28 0000 
0128 BD2A 1818     P0_145 DATA >1818,>1818,>1800,>1800    ;
     BD2C 1818 
     BD2E 1800 
     BD30 1800 
0129 BD32 3333     P0_146 DATA >3333,>3333,>3300,>3300    ;
     BD34 3333 
     BD36 3300 
     BD38 3300 
0130 BD3A 1818     P0_147 DATA >1818,>0800,>0000,>0000    ;
     BD3C 0800 
     BD3E 0000 
     BD40 0000 
0131 BD42 0C18     P0_148 DATA >0C18,>3020,>3018,>0C00    ;
     BD44 3020 
     BD46 3018 
     BD48 0C00 
0132 BD4A 3018     P0_149 DATA >3018,>0C04,>0C18,>3000    ;
     BD4C 0C04 
     BD4E 0C18 
     BD50 3000 
0133 BD52 3C18     P0_150 DATA >3C18,>1818,>1818,>3C00    ;
     BD54 1818 
     BD56 1818 
     BD58 3C00 
0134 BD5A FF66     P0_151 DATA >FF66,>6666,>6666,>FF00    ;
     BD5C 6666 
     BD5E 6666 
     BD60 FF00 
0135 BD62 0000     P0_152 DATA >0000,>0000,>0030,>3010    ;
     BD64 0000 
     BD66 0030 
     BD68 3010 
0136 BD6A 0000     P0_153 DATA >0000,>007E,>0000,>0000    ;
     BD6C 007E 
     BD6E 0000 
     BD70 0000 
0137 BD72 0000     P0_154 DATA >0000,>0000,>0030,>3000    ;
     BD74 0000 
     BD76 0030 
     BD78 3000 
0138 BD7A 3333     P0_155 DATA >3333,>3333,>0033,>3300    ;
     BD7C 3333 
     BD7E 0033 
     BD80 3300 
0139 BD82 0000     P0_156 DATA >0000,>0000,>0000,>0000    ;
     BD84 0000 
     BD86 0000 
     BD88 0000 
0140 BD8A 0000     P0_157 DATA >0000,>0000,>0000,>0000    ;
     BD8C 0000 
     BD8E 0000 
     BD90 0000 
0141 BD92 0000     P0_158 DATA >0000,>0000,>0000,>0000    ;
     BD94 0000 
     BD96 0000 
     BD98 0000 
0142 BD9A 0000     P0_159 DATA >0000,>0000,>0000,>0000    ;
     BD9C 0000 
     BD9E 0000 
     BDA0 0000 
0143 BDA2 0000     P0_160 DATA >0000,>0000,>0000,>0000    ;
     BDA4 0000 
     BDA6 0000 
     BDA8 0000 
0144 BDAA 0000     P0_161 DATA >0000,>0000,>0000,>0000    ;
     BDAC 0000 
     BDAE 0000 
     BDB0 0000 
0145 BDB2 0000     P0_162 DATA >0000,>0000,>0000,>0000    ;
     BDB4 0000 
     BDB6 0000 
     BDB8 0000 
0146 BDBA 0000     P0_163 DATA >0000,>0000,>0000,>0000    ;
     BDBC 0000 
     BDBE 0000 
     BDC0 0000 
0147 BDC2 0000     P0_164 DATA >0000,>0000,>0000,>0000    ;
     BDC4 0000 
     BDC6 0000 
     BDC8 0000 
0148 BDCA 0000     P0_165 DATA >0000,>0000,>0000,>0000    ;
     BDCC 0000 
     BDCE 0000 
     BDD0 0000 
0149 BDD2 0000     P0_166 DATA >0000,>1000,>1000,>0000    ;
     BDD4 1000 
     BDD6 1000 
     BDD8 0000 
0150 BDDA 0000     P0_167 DATA >0000,>007E,>0000,>0000    ;
     BDDC 007E 
     BDDE 0000 
     BDE0 0000 
0151 BDE2 0F33     P0_168 DATA >0F33,>4989,>4931,>0F00    ;
     BDE4 4989 
     BDE6 4931 
     BDE8 0F00 
0152 BDEA 0000     P0_169 DATA >0000,>7E00,>7E00,>0000    ;
     BDEC 7E00 
     BDEE 7E00 
     BDF0 0000 
0153 BDF2 F08C     P0_170 DATA >F08C,>3221,>320C,>F000    ;
     BDF4 3221 
     BDF6 320C 
     BDF8 F000 
0154 BDFA 0708     P0_171 DATA >0708,>1312,>1213,>0807    ;
     BDFC 1312 
     BDFE 1213 
     BE00 0807 
0155 BE02 C020     P0_172 DATA >C020,>9010,>1090,>20C0    ;
     BE04 9010 
     BE06 1090 
     BE08 20C0 
0156 BE0A 1C36     P0_173 DATA >1C36,>6363,>7F63,>6300    ;
     BE0C 6363 
     BE0E 7F63 
     BE10 6300 
0157 BE12 7E63     P0_174 DATA >7E63,>637E,>6363,>7E00    ;
     BE14 637E 
     BE16 6363 
     BE18 7E00 
0158 BE1A 1E33     P0_175 DATA >1E33,>6060,>6033,>1E00    ;
     BE1C 6060 
     BE1E 6033 
     BE20 1E00 
0159 BE22 7C66     P0_176 DATA >7C66,>6363,>6366,>7C00    ;
     BE24 6363 
     BE26 6366 
     BE28 7C00 
0160 BE2A 3F30     P0_177 DATA >3F30,>303E,>3030,>3F00    ;
     BE2C 303E 
     BE2E 3030 
     BE30 3F00 
0161 BE32 7F60     P0_178 DATA >7F60,>607E,>6060,>6000    ;
     BE34 607E 
     BE36 6060 
     BE38 6000 
0162 BE3A 1F30     P0_179 DATA >1F30,>6067,>6333,>1F00    ;
     BE3C 6067 
     BE3E 6333 
     BE40 1F00 
0163 BE42 6363     P0_180 DATA >6363,>637F,>6363,>6300    ;
     BE44 637F 
     BE46 6363 
     BE48 6300 
0164 BE4A 3F0C     P0_181 DATA >3F0C,>0C0C,>0C0C,>3F00    ;
     BE4C 0C0C 
     BE4E 0C0C 
     BE50 3F00 
0165 BE52 0303     P0_182 DATA >0303,>0303,>0363,>3E00    ;
     BE54 0303 
     BE56 0363 
     BE58 3E00 
0166 BE5A 6366     P0_183 DATA >6366,>6C78,>7C6E,>6700    ;
     BE5C 6C78 
     BE5E 7C6E 
     BE60 6700 
0167 BE62 3030     P0_184 DATA >3030,>3030,>3030,>3F00    ;
     BE64 3030 
     BE66 3030 
     BE68 3F00 
0168 BE6A 6377     P0_185 DATA >6377,>7F7F,>6B63,>6300    ;
     BE6C 7F7F 
     BE6E 6B63 
     BE70 6300 
0169 BE72 6373     P0_186 DATA >6373,>7B7F,>6F67,>6300    ;
     BE74 7B7F 
     BE76 6F67 
     BE78 6300 
0170 BE7A 3E63     P0_187 DATA >3E63,>6363,>6363,>3E00    ;
     BE7C 6363 
     BE7E 6363 
     BE80 3E00 
0171 BE82 7E63     P0_188 DATA >7E63,>6363,>7E60,>6000    ;
     BE84 6363 
     BE86 7E60 
     BE88 6000 
0172 BE8A 3E63     P0_189 DATA >3E63,>6363,>6F66,>3D00    ;
     BE8C 6363 
     BE8E 6F66 
     BE90 3D00 
0173 BE92 7E63     P0_190 DATA >7E63,>6367,>7C6E,>6700    ;
     BE94 6367 
     BE96 7C6E 
     BE98 6700 
0174 BE9A 3C66     P0_191 DATA >3C66,>603E,>0363,>3E00    ;
     BE9C 603E 
     BE9E 0363 
     BEA0 3E00 
0175 BEA2 3F0C     P0_192 DATA >3F0C,>0C0C,>0C0C,>0C00    ;
     BEA4 0C0C 
     BEA6 0C0C 
     BEA8 0C00 
0176 BEAA 6363     P0_193 DATA >6363,>6363,>6363,>3E00    ;
     BEAC 6363 
     BEAE 6363 
     BEB0 3E00 
0177 BEB2 6363     P0_194 DATA >6363,>6377,>3E1C,>0800    ;
     BEB4 6377 
     BEB6 3E1C 
     BEB8 0800 
0178 BEBA 6363     P0_195 DATA >6363,>6B7F,>7F36,>2200    ;
     BEBC 6B7F 
     BEBE 7F36 
     BEC0 2200 
0179 BEC2 6377     P0_196 DATA >6377,>3E1C,>3E77,>6300    ;
     BEC4 3E1C 
     BEC6 3E77 
     BEC8 6300 
0180 BECA 3333     P0_197 DATA >3333,>121E,>0C0C,>0C00    ;
     BECC 121E 
     BECE 0C0C 
     BED0 0C00 
0181 BED2 7F07     P0_198 DATA >7F07,>0E1C,>3870,>7F00    ;
     BED4 0E1C 
     BED6 3870 
     BED8 7F00 
0182 BEDA 0000     P0_199 DATA >0000,>0000,>0000,>0000    ;
     BEDC 0000 
     BEDE 0000 
     BEE0 0000 
0183 BEE2 8080     P0_200 DATA >8080,>8080,>8080,>8080    ;
     BEE4 8080 
     BEE6 8080 
     BEE8 8080 
0184 BEEA 0101     P0_201 DATA >0101,>0101,>0101,>0101    ;
     BEEC 0101 
     BEEE 0101 
     BEF0 0101 
0185 BEF2 FF00     P0_202 DATA >FF00,>0000,>0000,>0000    ;
     BEF4 0000 
     BEF6 0000 
     BEF8 0000 
0186 BEFA 0000     P0_203 DATA >0000,>0000,>0000,>00FF    ;
     BEFC 0000 
     BEFE 0000 
     BF00 00FF 
0187 BF02 FF80     P0_204 DATA >FF80,>8080,>8080,>8080    ;
     BF04 8080 
     BF06 8080 
     BF08 8080 
0188 BF0A FF01     P0_205 DATA >FF01,>0101,>0101,>0101    ;
     BF0C 0101 
     BF0E 0101 
     BF10 0101 
0189 BF12 8080     P0_206 DATA >8080,>8080,>8080,>80FF    ;
     BF14 8080 
     BF16 8080 
     BF18 80FF 
0190 BF1A 0101     P0_207 DATA >0101,>0101,>0101,>01FF    ;
     BF1C 0101 
     BF1E 0101 
     BF20 01FF 
0191 BF22 0000     P0_208 DATA >0000,>0705,>0704,>0400    ;
     BF24 0705 
     BF26 0704 
     BF28 0400 
0192 BF2A 0000     P0_209 DATA >0000,>2525,>A5A5,>9900    ;
     BF2C 2525 
     BF2E A5A5 
     BF30 9900 
0193 BF32 0000     P0_210 DATA >0000,>C744,>E624,>E700    ;
     BF34 C744 
     BF36 E624 
     BF38 E700 
0194 BF3A 0000     P0_211 DATA >0000,>4B6A,>5A4A,>4B00    ;
     BF3C 4B6A 
     BF3E 5A4A 
     BF40 4B00 
0195 BF42 0000     P0_212 DATA >0000,>8040,>4040,>8000    ;
     BF44 8040 
     BF46 4040 
     BF48 8000 
0196 BF4A 0000     P0_213 DATA >0000,>0000,>0000,>0000    ;
     BF4C 0000 
     BF4E 0000 
     BF50 0000 
0197 BF52 0000     P0_214 DATA >0000,>0000,>0000,>0000    ;
     BF54 0000 
     BF56 0000 
     BF58 0000 
0198 BF5A 0000     P0_215 DATA >0000,>0000,>0000,>0000    ;
     BF5C 0000 
     BF5E 0000 
     BF60 0000 
0199 BF62 0000     P0_216 DATA >0000,>0000,>0000,>0000    ;
     BF64 0000 
     BF66 0000 
     BF68 0000 
0200 BF6A 0000     P0_217 DATA >0000,>0000,>0000,>0000    ;
     BF6C 0000 
     BF6E 0000 
     BF70 0000 
0201 BF72 0000     P0_218 DATA >0000,>0000,>0000,>0000    ;
     BF74 0000 
     BF76 0000 
     BF78 0000 
0202 BF7A 0000     P0_219 DATA >0000,>0000,>0000,>0000    ;
     BF7C 0000 
     BF7E 0000 
     BF80 0000 
0203 BF82 0000     P0_220 DATA >0000,>0000,>0000,>0000    ;
     BF84 0000 
     BF86 0000 
     BF88 0000 
0204 BF8A 0000     P0_221 DATA >0000,>0000,>0000,>0000    ;
     BF8C 0000 
     BF8E 0000 
     BF90 0000 
0205 BF92 0000     P0_222 DATA >0000,>0000,>0000,>0000    ;
     BF94 0000 
     BF96 0000 
     BF98 0000 
0206 BF9A 0000     P0_223 DATA >0000,>0000,>0000,>0000    ;
     BF9C 0000 
     BF9E 0000 
     BFA0 0000 
0207 BFA2 0000     P0_224 DATA >0000,>0000,>0000,>0000    ;
     BFA4 0000 
     BFA6 0000 
     BFA8 0000 
0208 BFAA 0000     P0_225 DATA >0000,>0000,>0000,>0000    ;
     BFAC 0000 
     BFAE 0000 
     BFB0 0000 
0209 BFB2 0000     P0_226 DATA >0000,>0000,>0000,>0000    ;
     BFB4 0000 
     BFB6 0000 
     BFB8 0000 
0210 BFBA 0000     P0_227 DATA >0000,>0000,>0000,>0000    ;
     BFBC 0000 
     BFBE 0000 
     BFC0 0000 
0211 BFC2 6363     P0_228 DATA >6363,>637F,>6363,>6300    ;
     BFC4 637F 
     BFC6 6363 
     BFC8 6300 
0212 BFCA 0000     P0_229 DATA >0000,>0000,>0000,>0000    ;
     BFCC 0000 
     BFCE 0000 
     BFD0 0000 
0213 BFD2 0000     P0_230 DATA >0000,>0000,>0000,>0000    ;
     BFD4 0000 
     BFD6 0000 
     BFD8 0000 
0214 BFDA 0000     P0_231 DATA >0000,>0000,>0000,>0000    ;
     BFDC 0000 
     BFDE 0000 
     BFE0 0000 
0215 BFE2 6363     P0_232 DATA >6363,>6363,>6363,>3E00    ;
     BFE4 6363 
     BFE6 6363 
     BFE8 3E00 
0216 BFEA 7E63     P0_233 DATA >7E63,>6363,>7E60,>6000    ;
     BFEC 6363 
     BFEE 7E60 
     BFF0 6000 
0217 BFF2 3F0C     P0_234 DATA >3F0C,>0C0C,>0C0C,>0C00    ;
     BFF4 0C0C 
     BFF6 0C0C 
     BFF8 0C00 
0218 BFFA 0101     P0_235 DATA >0101,>06CC,>5C3C,>0C04    ;
     BFFC 06CC 
     BFFE 5C3C 
     C000 0C04 
0219 C002 EA8A     P0_236 DATA >EA8A,>8AEA,>8A8A,>8E00    ;
     C004 8AEA 
     C006 8A8A 
     C008 8E00 
0220 C00A E888     P0_237 DATA >E888,>88E8,>8888,>EE00    ;
     C00C 88E8 
     C00E 8888 
     C010 EE00 
0221 C012 FFEB     P0_238 DATA >FFEB,>E3EB,>FD70,>FFFF    ;
     C014 E3EB 
     C016 FD70 
     C018 FFFF 
0222 C01A C0F0     P0_239 DATA >C0F0,>FCFF,>FFFC,>F0C0    ;
     C01C FCFF 
     C01E FFFC 
     C020 F0C0 
0223 C022 1C26     P0_240 DATA >1C26,>6363,>6332,>1C00    ;
     C024 6363 
     C026 6332 
     C028 1C00 
0224 C02A 0C1C     P0_241 DATA >0C1C,>0C0C,>0C0C,>3F00    ;
     C02C 0C0C 
     C02E 0C0C 
     C030 3F00 
0225 C032 3E63     P0_242 DATA >3E63,>071E,>3C70,>7F00    ;
     C034 071E 
     C036 3C70 
     C038 7F00 
0226 C03A 3F06     P0_243 DATA >3F06,>0C1E,>0363,>3E00    ;
     C03C 0C1E 
     C03E 0363 
     C040 3E00 
0227 C042 1E36     P0_244 DATA >1E36,>667F,>0606,>0600    ;
     C044 667F 
     C046 0606 
     C048 0600 
0228 C04A 7E60     P0_245 DATA >7E60,>7E03,>0363,>3E00    ;
     C04C 7E03 
     C04E 0363 
     C050 3E00 
0229 C052 1E30     P0_246 DATA >1E30,>607E,>6363,>3E00    ;
     C054 607E 
     C056 6363 
     C058 3E00 
0230 C05A 7F63     P0_247 DATA >7F63,>060C,>1818,>1800    ;
     C05C 060C 
     C05E 1818 
     C060 1800 
0231 C062 3C62     P0_248 DATA >3C62,>723C,>4F43,>3E00    ;
     C064 723C 
     C066 4F43 
     C068 3E00 
0232 C06A 3E63     P0_249 DATA >3E63,>633F,>0306,>3C00    ;
     C06C 633F 
     C06E 0306 
     C070 3C00 
0233 C072 0000     P0_250 DATA >0000,>0000,>0000,>0000    ;
     C074 0000 
     C076 0000 
     C078 0000 
0234 C07A 0000     P0_251 DATA >0000,>0000,>0000,>0000    ;
     C07C 0000 
     C07E 0000 
     C080 0000 
0235 C082 0000     P0_252 DATA >0000,>0000,>0000,>0000    ;
     C084 0000 
     C086 0000 
     C088 0000 
0236 C08A 0000     P0_253 DATA >0000,>0000,>0000,>0000    ;
     C08C 0000 
     C08E 0000 
     C090 0000 
0237 C092 0000     P0_254 DATA >0000,>0000,>0000,>0000    ;
     C094 0000 
     C096 0000 
     C098 0000 
0238 C09A 0000     P0_255 DATA >0000,>0000,>0000,>0000    ;
     C09C 0000 
     C09E 0000 
     C0A0 0000 
0239               ****************************************
0240               * Character Patterns Plane 1
0241               ****************************************
0242 C0A2 0000     P1_140 DATA >0000,>0000,>0000,>0000    ;
     C0A4 0000 
     C0A6 0000 
     C0A8 0000 
0243 C0AA 1818     P1_141 DATA >1818,>1818,>0018,>1800    ;
     C0AC 1818 
     C0AE 0018 
     C0B0 1800 
0244 C0B2 1414     P1_142 DATA >1414,>0000,>0000,>0000    ;
     C0B4 0000 
     C0B6 0000 
     C0B8 0000 
0245 C0BA 2436     P1_143 DATA >2436,>3600,>0000,>0000    ;
     C0BC 3600 
     C0BE 0000 
     C0C0 0000 
0246 C0C2 3636     P1_144 DATA >3636,>1200,>0000,>0000    ;
     C0C4 1200 
     C0C6 0000 
     C0C8 0000 
0247 C0CA 1818     P1_145 DATA >1818,>1818,>1800,>1800    ;
     C0CC 1818 
     C0CE 1800 
     C0D0 1800 
0248 C0D2 3333     P1_146 DATA >3333,>3333,>3300,>3300    ;
     C0D4 3333 
     C0D6 3300 
     C0D8 3300 
0249 C0DA 1818     P1_147 DATA >1818,>0800,>0000,>0000    ;
     C0DC 0800 
     C0DE 0000 
     C0E0 0000 
0250 C0E2 0C18     P1_148 DATA >0C18,>3020,>3018,>0C00    ;
     C0E4 3020 
     C0E6 3018 
     C0E8 0C00 
0251 C0EA 3018     P1_149 DATA >3018,>0C04,>0C18,>3000    ;
     C0EC 0C04 
     C0EE 0C18 
     C0F0 3000 
0252 C0F2 3C18     P1_150 DATA >3C18,>1818,>1818,>3C00    ;
     C0F4 1818 
     C0F6 1818 
     C0F8 3C00 
0253 C0FA FF66     P1_151 DATA >FF66,>6666,>6666,>FF00    ;
     C0FC 6666 
     C0FE 6666 
     C100 FF00 
0254 C102 0000     P1_152 DATA >0000,>0000,>0030,>3010    ;
     C104 0000 
     C106 0030 
     C108 3010 
0255 C10A 0000     P1_153 DATA >0000,>007E,>0000,>0000    ;
     C10C 007E 
     C10E 0000 
     C110 0000 
0256 C112 0000     P1_154 DATA >0000,>0000,>0030,>3000    ;
     C114 0000 
     C116 0030 
     C118 3000 
0257 C11A 3333     P1_155 DATA >3333,>3333,>0033,>3300    ;
     C11C 3333 
     C11E 0033 
     C120 3300 
0258 C122 0000     P1_156 DATA >0000,>0000,>0000,>0000    ;
     C124 0000 
     C126 0000 
     C128 0000 
0259 C12A 0000     P1_157 DATA >0000,>0000,>0000,>0000    ;
     C12C 0000 
     C12E 0000 
     C130 0000 
0260 C132 0000     P1_158 DATA >0000,>0000,>0000,>0000    ;
     C134 0000 
     C136 0000 
     C138 0000 
0261 C13A 0000     P1_159 DATA >0000,>0000,>0000,>0000    ;
     C13C 0000 
     C13E 0000 
     C140 0000 
0262 C142 0000     P1_160 DATA >0000,>0000,>0000,>0000    ;
     C144 0000 
     C146 0000 
     C148 0000 
0263 C14A 0000     P1_161 DATA >0000,>0000,>0000,>0000    ;
     C14C 0000 
     C14E 0000 
     C150 0000 
0264 C152 0000     P1_162 DATA >0000,>0000,>0000,>0000    ;
     C154 0000 
     C156 0000 
     C158 0000 
0265 C15A 0000     P1_163 DATA >0000,>0000,>0000,>0000    ;
     C15C 0000 
     C15E 0000 
     C160 0000 
0266 C162 0000     P1_164 DATA >0000,>0000,>0000,>0000    ;
     C164 0000 
     C166 0000 
     C168 0000 
0267 C16A 0000     P1_165 DATA >0000,>0000,>0000,>0000    ;
     C16C 0000 
     C16E 0000 
     C170 0000 
0268 C172 0000     P1_166 DATA >0000,>1000,>1000,>0000    ;
     C174 1000 
     C176 1000 
     C178 0000 
0269 C17A 0000     P1_167 DATA >0000,>007E,>0000,>0000    ;
     C17C 007E 
     C17E 0000 
     C180 0000 
0270 C182 0F33     P1_168 DATA >0F33,>4989,>4931,>0F00    ;
     C184 4989 
     C186 4931 
     C188 0F00 
0271 C18A 0000     P1_169 DATA >0000,>7E00,>7E00,>0000    ;
     C18C 7E00 
     C18E 7E00 
     C190 0000 
0272 C192 F08C     P1_170 DATA >F08C,>3221,>320C,>F000    ;
     C194 3221 
     C196 320C 
     C198 F000 
0273 C19A 0708     P1_171 DATA >0708,>1312,>1213,>0807    ;
     C19C 1312 
     C19E 1213 
     C1A0 0807 
0274 C1A2 C020     P1_172 DATA >C020,>9010,>1090,>20C0    ;
     C1A4 9010 
     C1A6 1090 
     C1A8 20C0 
0275 C1AA 0000     P1_173 DATA >0000,>0000,>0000,>0000    ;
     C1AC 0000 
     C1AE 0000 
     C1B0 0000 
0276 C1B2 0000     P1_174 DATA >0000,>0000,>0000,>0000    ;
     C1B4 0000 
     C1B6 0000 
     C1B8 0000 
0277 C1BA 0000     P1_175 DATA >0000,>0000,>0000,>0000    ;
     C1BC 0000 
     C1BE 0000 
     C1C0 0000 
0278 C1C2 0000     P1_176 DATA >0000,>0000,>0000,>0000    ;
     C1C4 0000 
     C1C6 0000 
     C1C8 0000 
0279 C1CA 0000     P1_177 DATA >0000,>0000,>0000,>0000    ;
     C1CC 0000 
     C1CE 0000 
     C1D0 0000 
0280 C1D2 0000     P1_178 DATA >0000,>0000,>0000,>0000    ;
     C1D4 0000 
     C1D6 0000 
     C1D8 0000 
0281 C1DA 0000     P1_179 DATA >0000,>0000,>0000,>0000    ;
     C1DC 0000 
     C1DE 0000 
     C1E0 0000 
0282 C1E2 0000     P1_180 DATA >0000,>0000,>0000,>0000    ;
     C1E4 0000 
     C1E6 0000 
     C1E8 0000 
0283 C1EA 0000     P1_181 DATA >0000,>0000,>0000,>0000    ;
     C1EC 0000 
     C1EE 0000 
     C1F0 0000 
0284 C1F2 0000     P1_182 DATA >0000,>0000,>0000,>0000    ;
     C1F4 0000 
     C1F6 0000 
     C1F8 0000 
0285 C1FA 0000     P1_183 DATA >0000,>0000,>0000,>0000    ;
     C1FC 0000 
     C1FE 0000 
     C200 0000 
0286 C202 0000     P1_184 DATA >0000,>0000,>0000,>0000    ;
     C204 0000 
     C206 0000 
     C208 0000 
0287 C20A 0000     P1_185 DATA >0000,>0000,>0000,>0000    ;
     C20C 0000 
     C20E 0000 
     C210 0000 
0288 C212 0000     P1_186 DATA >0000,>0000,>0000,>0000    ;
     C214 0000 
     C216 0000 
     C218 0000 
0289 C21A 0000     P1_187 DATA >0000,>0000,>0000,>0000    ;
     C21C 0000 
     C21E 0000 
     C220 0000 
0290 C222 0000     P1_188 DATA >0000,>0000,>0000,>0000    ;
     C224 0000 
     C226 0000 
     C228 0000 
0291 C22A 0000     P1_189 DATA >0000,>0000,>0000,>0000    ;
     C22C 0000 
     C22E 0000 
     C230 0000 
0292 C232 0000     P1_190 DATA >0000,>0000,>0000,>0000    ;
     C234 0000 
     C236 0000 
     C238 0000 
0293 C23A 0000     P1_191 DATA >0000,>0000,>0000,>0000    ;
     C23C 0000 
     C23E 0000 
     C240 0000 
0294 C242 0000     P1_192 DATA >0000,>0000,>0000,>0000    ;
     C244 0000 
     C246 0000 
     C248 0000 
0295 C24A 0000     P1_193 DATA >0000,>0000,>0000,>0000    ;
     C24C 0000 
     C24E 0000 
     C250 0000 
0296 C252 0000     P1_194 DATA >0000,>0000,>0000,>0000    ;
     C254 0000 
     C256 0000 
     C258 0000 
0297 C25A 0000     P1_195 DATA >0000,>0000,>0000,>0000    ;
     C25C 0000 
     C25E 0000 
     C260 0000 
0298 C262 0000     P1_196 DATA >0000,>0000,>0000,>0000    ;
     C264 0000 
     C266 0000 
     C268 0000 
0299 C26A 0000     P1_197 DATA >0000,>0000,>0000,>0000    ;
     C26C 0000 
     C26E 0000 
     C270 0000 
0300 C272 0000     P1_198 DATA >0000,>0000,>0000,>0000    ;
     C274 0000 
     C276 0000 
     C278 0000 
0301 C27A 0000     P1_199 DATA >0000,>0000,>0000,>0000    ;
     C27C 0000 
     C27E 0000 
     C280 0000 
0302 C282 8080     P1_200 DATA >8080,>8080,>8080,>8080    ;
     C284 8080 
     C286 8080 
     C288 8080 
0303 C28A 0101     P1_201 DATA >0101,>0101,>0101,>0101    ;
     C28C 0101 
     C28E 0101 
     C290 0101 
0304 C292 FF00     P1_202 DATA >FF00,>0000,>0000,>0000    ;
     C294 0000 
     C296 0000 
     C298 0000 
0305 C29A 0000     P1_203 DATA >0000,>0000,>0000,>00FF    ;
     C29C 0000 
     C29E 0000 
     C2A0 00FF 
0306 C2A2 FF80     P1_204 DATA >FF80,>8080,>8080,>8080    ;
     C2A4 8080 
     C2A6 8080 
     C2A8 8080 
0307 C2AA FF01     P1_205 DATA >FF01,>0101,>0101,>0101    ;
     C2AC 0101 
     C2AE 0101 
     C2B0 0101 
0308 C2B2 8080     P1_206 DATA >8080,>8080,>8080,>80FF    ;
     C2B4 8080 
     C2B6 8080 
     C2B8 80FF 
0309 C2BA 0101     P1_207 DATA >0101,>0101,>0101,>01FF    ;
     C2BC 0101 
     C2BE 0101 
     C2C0 01FF 
0310 C2C2 0000     P1_208 DATA >0000,>0705,>0704,>0400    ;
     C2C4 0705 
     C2C6 0704 
     C2C8 0400 
0311 C2CA 0000     P1_209 DATA >0000,>2525,>A5A5,>9900    ;
     C2CC 2525 
     C2CE A5A5 
     C2D0 9900 
0312 C2D2 0000     P1_210 DATA >0000,>C744,>E624,>E700    ;
     C2D4 C744 
     C2D6 E624 
     C2D8 E700 
0313 C2DA 0000     P1_211 DATA >0000,>4B6A,>5A4A,>4B00    ;
     C2DC 4B6A 
     C2DE 5A4A 
     C2E0 4B00 
0314 C2E2 0000     P1_212 DATA >0000,>8040,>4040,>8000    ;
     C2E4 8040 
     C2E6 4040 
     C2E8 8000 
0315 C2EA 0000     P1_213 DATA >0000,>0000,>0000,>0000    ;
     C2EC 0000 
     C2EE 0000 
     C2F0 0000 
0316 C2F2 0000     P1_214 DATA >0000,>0000,>0000,>0000    ;
     C2F4 0000 
     C2F6 0000 
     C2F8 0000 
0317 C2FA 0000     P1_215 DATA >0000,>0000,>0000,>0000    ;
     C2FC 0000 
     C2FE 0000 
     C300 0000 
0318 C302 0000     P1_216 DATA >0000,>0000,>0000,>0000    ;
     C304 0000 
     C306 0000 
     C308 0000 
0319 C30A 0000     P1_217 DATA >0000,>0000,>0000,>0000    ;
     C30C 0000 
     C30E 0000 
     C310 0000 
0320 C312 0000     P1_218 DATA >0000,>0000,>0000,>0000    ;
     C314 0000 
     C316 0000 
     C318 0000 
0321 C31A 0000     P1_219 DATA >0000,>0000,>0000,>0000    ;
     C31C 0000 
     C31E 0000 
     C320 0000 
0322 C322 0000     P1_220 DATA >0000,>0000,>0000,>0000    ;
     C324 0000 
     C326 0000 
     C328 0000 
0323 C32A 0000     P1_221 DATA >0000,>0000,>0000,>0000    ;
     C32C 0000 
     C32E 0000 
     C330 0000 
0324 C332 0000     P1_222 DATA >0000,>0000,>0000,>0000    ;
     C334 0000 
     C336 0000 
     C338 0000 
0325 C33A 0000     P1_223 DATA >0000,>0000,>0000,>0000    ;
     C33C 0000 
     C33E 0000 
     C340 0000 
0326 C342 0000     P1_224 DATA >0000,>0000,>0000,>0000    ;
     C344 0000 
     C346 0000 
     C348 0000 
0327 C34A 0000     P1_225 DATA >0000,>0000,>0000,>0000    ;
     C34C 0000 
     C34E 0000 
     C350 0000 
0328 C352 0000     P1_226 DATA >0000,>0000,>0000,>0000    ;
     C354 0000 
     C356 0000 
     C358 0000 
0329 C35A 0000     P1_227 DATA >0000,>0000,>0000,>0000    ;
     C35C 0000 
     C35E 0000 
     C360 0000 
0330 C362 9C9C     P1_228 DATA >9C9C,>9C80,>9C9C,>9CFF    ;
     C364 9C80 
     C366 9C9C 
     C368 9CFF 
0331 C36A FFFF     P1_229 DATA >FFFF,>FFFF,>0000,>FFFF    ;
     C36C FFFF 
     C36E 0000 
     C370 FFFF 
0332 C372 0000     P1_230 DATA >0000,>FFFF,>0000,>FFFF    ;
     C374 FFFF 
     C376 0000 
     C378 FFFF 
0333 C37A CFCF     P1_231 DATA >CFCF,>CFCF,>CFCF,>C0FF    ;
     C37C CFCF 
     C37E CFCF 
     C380 C0FF 
0334 C382 FFFF     P1_232 DATA >FFFF,>FFFF,>FFFF,>FFFF    ;
     C384 FFFF 
     C386 FFFF 
     C388 FFFF 
0335 C38A FFFF     P1_233 DATA >FFFF,>FFFF,>FFFF,>FFFF    ;
     C38C FFFF 
     C38E FFFF 
     C390 FFFF 
0336 C392 FFFF     P1_234 DATA >FFFF,>FFFF,>FFFF,>FFFF    ;
     C394 FFFF 
     C396 FFFF 
     C398 FFFF 
0337 C39A FFFD     P1_235 DATA >FFFD,>FF3F,>BBD3,>F3FB    ;
     C39C FF3F 
     C39E BBD3 
     C3A0 F3FB 
0338 C3A2 FFFF     P1_236 DATA >FFFF,>FFFF,>FFFF,>FFFF    ;
     C3A4 FFFF 
     C3A6 FFFF 
     C3A8 FFFF 
0339 C3AA FFFF     P1_237 DATA >FFFF,>FFFF,>FFFF,>FFFF    ;
     C3AC FFFF 
     C3AE FFFF 
     C3B0 FFFF 
0340 C3B2 FFFF     P1_238 DATA >FFFF,>FFF7,>C34F,>3FFF    ;
     C3B4 FFF7 
     C3B6 C34F 
     C3B8 3FFF 
0341 C3BA BFAF     P1_239 DATA >BFAF,>ABAA,>AAAB,>AFBF    ;
     C3BC ABAA 
     C3BE AAAB 
     C3C0 AFBF 
0342 C3C2 FFFF     P1_240 DATA >FFFF,>FFFF,>FFFF,>FFFF    ;
     C3C4 FFFF 
     C3C6 FFFF 
     C3C8 FFFF 
0343 C3CA FFFF     P1_241 DATA >FFFF,>FFFF,>FFFF,>FFFF    ;
     C3CC FFFF 
     C3CE FFFF 
     C3D0 FFFF 
0344 C3D2 FFFF     P1_242 DATA >FFFF,>FFFF,>FFFF,>FFFF    ;
     C3D4 FFFF 
     C3D6 FFFF 
     C3D8 FFFF 
0345 C3DA FFFF     P1_243 DATA >FFFF,>FFFF,>FFFF,>FFFF    ;
     C3DC FFFF 
     C3DE FFFF 
     C3E0 FFFF 
0346 C3E2 FFFF     P1_244 DATA >FFFF,>FFFF,>FFFF,>FFFF    ;
     C3E4 FFFF 
     C3E6 FFFF 
     C3E8 FFFF 
0347 C3EA FFFF     P1_245 DATA >FFFF,>FFFF,>FFFF,>FFFF    ;
     C3EC FFFF 
     C3EE FFFF 
     C3F0 FFFF 
0348 C3F2 FFFF     P1_246 DATA >FFFF,>FFFF,>FFFF,>FFFF    ;
     C3F4 FFFF 
     C3F6 FFFF 
     C3F8 FFFF 
0349 C3FA FFFF     P1_247 DATA >FFFF,>FFFF,>FFFF,>FFFF    ;
     C3FC FFFF 
     C3FE FFFF 
     C400 FFFF 
0350 C402 FFFF     P1_248 DATA >FFFF,>FFFF,>FFFF,>FFFF    ;
     C404 FFFF 
     C406 FFFF 
     C408 FFFF 
0351 C40A FFFF     P1_249 DATA >FFFF,>FFFF,>FFFF,>FFFF    ;
     C40C FFFF 
     C40E FFFF 
     C410 FFFF 
0352 C412 FFFF     P1_250 DATA >FFFF,>FFFF,>FFFF,>FFFF    ;
     C414 FFFF 
     C416 FFFF 
     C418 FFFF 
0353 C41A FFFF     P1_251 DATA >FFFF,>FFFF,>FFFC,>F0C0    ;
     C41C FFFF 
     C41E FFFC 
     C420 F0C0 
0354 C422 FFFC     P1_252 DATA >FFFC,>F0C0,>0000,>0000    ;
     C424 F0C0 
     C426 0000 
     C428 0000 
0355 C42A 030F     P1_253 DATA >030F,>3FFF,>FFFF,>FFFF    ;
     C42C 3FFF 
     C42E FFFF 
     C430 FFFF 
0356 C432 0000     P1_254 DATA >0000,>0000,>030F,>3FFF    ;
     C434 0000 
     C436 030F 
     C438 3FFF 
0357 C43A 0000     P1_255 DATA >0000,>0000,>0000,>0000    ;
     C43C 0000 
     C43E 0000 
     C440 0000 
0358               ****************************************
0359               * Character Patterns Plane 2
0360               ****************************************
0361 C442 0000     P2_140 DATA >0000,>0000,>0000,>0000    ;
     C444 0000 
     C446 0000 
     C448 0000 
0362 C44A 1818     P2_141 DATA >1818,>1818,>0018,>1800    ;
     C44C 1818 
     C44E 0018 
     C450 1800 
0363 C452 1414     P2_142 DATA >1414,>0000,>0000,>0000    ;
     C454 0000 
     C456 0000 
     C458 0000 
0364 C45A 2436     P2_143 DATA >2436,>3600,>0000,>0000    ;
     C45C 3600 
     C45E 0000 
     C460 0000 
0365 C462 3636     P2_144 DATA >3636,>1200,>0000,>0000    ;
     C464 1200 
     C466 0000 
     C468 0000 
0366 C46A 1818     P2_145 DATA >1818,>1818,>1800,>1800    ;
     C46C 1818 
     C46E 1800 
     C470 1800 
0367 C472 3333     P2_146 DATA >3333,>3333,>3300,>3300    ;
     C474 3333 
     C476 3300 
     C478 3300 
0368 C47A 1818     P2_147 DATA >1818,>0800,>0000,>0000    ;
     C47C 0800 
     C47E 0000 
     C480 0000 
0369 C482 0C18     P2_148 DATA >0C18,>3020,>3018,>0C00    ;
     C484 3020 
     C486 3018 
     C488 0C00 
0370 C48A 3018     P2_149 DATA >3018,>0C04,>0C18,>3000    ;
     C48C 0C04 
     C48E 0C18 
     C490 3000 
0371 C492 3C18     P2_150 DATA >3C18,>1818,>1818,>3C00    ;
     C494 1818 
     C496 1818 
     C498 3C00 
0372 C49A FF66     P2_151 DATA >FF66,>6666,>6666,>FF00    ;
     C49C 6666 
     C49E 6666 
     C4A0 FF00 
0373 C4A2 0000     P2_152 DATA >0000,>0000,>0030,>3010    ;
     C4A4 0000 
     C4A6 0030 
     C4A8 3010 
0374 C4AA 0000     P2_153 DATA >0000,>007E,>0000,>0000    ;
     C4AC 007E 
     C4AE 0000 
     C4B0 0000 
0375 C4B2 0000     P2_154 DATA >0000,>0000,>0030,>3000    ;
     C4B4 0000 
     C4B6 0030 
     C4B8 3000 
0376 C4BA 3333     P2_155 DATA >3333,>3333,>0033,>3300    ;
     C4BC 3333 
     C4BE 0033 
     C4C0 3300 
0377 C4C2 1C26     P2_156 DATA >1C26,>6363,>6332,>1C00    ;
     C4C4 6363 
     C4C6 6332 
     C4C8 1C00 
0378 C4CA 0C1C     P2_157 DATA >0C1C,>0C0C,>0C0C,>3F00    ;
     C4CC 0C0C 
     C4CE 0C0C 
     C4D0 3F00 
0379 C4D2 3E63     P2_158 DATA >3E63,>071E,>3C70,>7F00    ;
     C4D4 071E 
     C4D6 3C70 
     C4D8 7F00 
0380 C4DA 3F06     P2_159 DATA >3F06,>0C1E,>0363,>3E00    ;
     C4DC 0C1E 
     C4DE 0363 
     C4E0 3E00 
0381 C4E2 0E1E     P2_160 DATA >0E1E,>3666,>7F06,>0600    ;
     C4E4 3666 
     C4E6 7F06 
     C4E8 0600 
0382 C4EA 7E60     P2_161 DATA >7E60,>7E03,>0363,>3E00    ;
     C4EC 7E03 
     C4EE 0363 
     C4F0 3E00 
0383 C4F2 1E30     P2_162 DATA >1E30,>607E,>6363,>3E00    ;
     C4F4 607E 
     C4F6 6363 
     C4F8 3E00 
0384 C4FA 7F63     P2_163 DATA >7F63,>060C,>1818,>1800    ;
     C4FC 060C 
     C4FE 1818 
     C500 1800 
0385 C502 3C62     P2_164 DATA >3C62,>723C,>4F43,>3E00    ;
     C504 723C 
     C506 4F43 
     C508 3E00 
0386 C50A 3E63     P2_165 DATA >3E63,>633F,>0306,>3C00    ;
     C50C 633F 
     C50E 0306 
     C510 3C00 
0387 C512 0000     P2_166 DATA >0000,>1000,>1000,>0000    ;
     C514 1000 
     C516 1000 
     C518 0000 
0388 C51A 0000     P2_167 DATA >0000,>007E,>0000,>0000    ;
     C51C 007E 
     C51E 0000 
     C520 0000 
0389 C522 0F33     P2_168 DATA >0F33,>4989,>4931,>0F00    ;
     C524 4989 
     C526 4931 
     C528 0F00 
0390 C52A 0000     P2_169 DATA >0000,>7E00,>7E00,>0000    ;
     C52C 7E00 
     C52E 7E00 
     C530 0000 
0391 C532 F08C     P2_170 DATA >F08C,>3221,>320C,>F000    ;
     C534 3221 
     C536 320C 
     C538 F000 
0392 C53A 0708     P2_171 DATA >0708,>1312,>1213,>0807    ;
     C53C 1312 
     C53E 1213 
     C540 0807 
0393 C542 C020     P2_172 DATA >C020,>9010,>1090,>20C0    ;
     C544 9010 
     C546 1090 
     C548 20C0 
0394 C54A 0000     P2_173 DATA >0000,>0000,>0000,>0000    ;
     C54C 0000 
     C54E 0000 
     C550 0000 
0395 C552 0000     P2_174 DATA >0000,>0000,>0000,>0000    ;
     C554 0000 
     C556 0000 
     C558 0000 
0396 C55A 0000     P2_175 DATA >0000,>0000,>0000,>0000    ;
     C55C 0000 
     C55E 0000 
     C560 0000 
0397 C562 0000     P2_176 DATA >0000,>0000,>0000,>0000    ;
     C564 0000 
     C566 0000 
     C568 0000 
0398 C56A 0000     P2_177 DATA >0000,>0000,>0000,>0000    ;
     C56C 0000 
     C56E 0000 
     C570 0000 
0399 C572 0000     P2_178 DATA >0000,>0000,>0000,>0000    ;
     C574 0000 
     C576 0000 
     C578 0000 
0400 C57A 0000     P2_179 DATA >0000,>0000,>0000,>0000    ;
     C57C 0000 
     C57E 0000 
     C580 0000 
0401 C582 0000     P2_180 DATA >0000,>0000,>0000,>0000    ;
     C584 0000 
     C586 0000 
     C588 0000 
0402 C58A 0000     P2_181 DATA >0000,>0000,>0000,>0000    ;
     C58C 0000 
     C58E 0000 
     C590 0000 
0403 C592 0000     P2_182 DATA >0000,>0000,>0000,>0000    ;
     C594 0000 
     C596 0000 
     C598 0000 
0404 C59A 0000     P2_183 DATA >0000,>0000,>0000,>0000    ;
     C59C 0000 
     C59E 0000 
     C5A0 0000 
0405 C5A2 0000     P2_184 DATA >0000,>0000,>0000,>0000    ;
     C5A4 0000 
     C5A6 0000 
     C5A8 0000 
0406 C5AA 0000     P2_185 DATA >0000,>0000,>0000,>0000    ;
     C5AC 0000 
     C5AE 0000 
     C5B0 0000 
0407 C5B2 0000     P2_186 DATA >0000,>0000,>0000,>0000    ;
     C5B4 0000 
     C5B6 0000 
     C5B8 0000 
0408 C5BA 0000     P2_187 DATA >0000,>0000,>0000,>0000    ;
     C5BC 0000 
     C5BE 0000 
     C5C0 0000 
0409 C5C2 0000     P2_188 DATA >0000,>0000,>0000,>0000    ;
     C5C4 0000 
     C5C6 0000 
     C5C8 0000 
0410 C5CA 0000     P2_189 DATA >0000,>0000,>0000,>0000    ;
     C5CC 0000 
     C5CE 0000 
     C5D0 0000 
0411 C5D2 0000     P2_190 DATA >0000,>0000,>0000,>0000    ;
     C5D4 0000 
     C5D6 0000 
     C5D8 0000 
0412 C5DA 0000     P2_191 DATA >0000,>0000,>0000,>0000    ;
     C5DC 0000 
     C5DE 0000 
     C5E0 0000 
0413 C5E2 0000     P2_192 DATA >0000,>0000,>0000,>0000    ;
     C5E4 0000 
     C5E6 0000 
     C5E8 0000 
0414 C5EA 0000     P2_193 DATA >0000,>0000,>0000,>0000    ;
     C5EC 0000 
     C5EE 0000 
     C5F0 0000 
0415 C5F2 0000     P2_194 DATA >0000,>0000,>0000,>0000    ;
     C5F4 0000 
     C5F6 0000 
     C5F8 0000 
0416 C5FA 0000     P2_195 DATA >0000,>0000,>0000,>0000    ;
     C5FC 0000 
     C5FE 0000 
     C600 0000 
0417 C602 0000     P2_196 DATA >0000,>0000,>0000,>0000    ;
     C604 0000 
     C606 0000 
     C608 0000 
0418 C60A 0000     P2_197 DATA >0000,>0000,>0000,>0000    ;
     C60C 0000 
     C60E 0000 
     C610 0000 
0419 C612 0000     P2_198 DATA >0000,>0000,>0000,>0000    ;
     C614 0000 
     C616 0000 
     C618 0000 
0420 C61A 0000     P2_199 DATA >0000,>0000,>0000,>0000    ;
     C61C 0000 
     C61E 0000 
     C620 0000 
0421 C622 8080     P2_200 DATA >8080,>8080,>8080,>8080    ;
     C624 8080 
     C626 8080 
     C628 8080 
0422 C62A 0101     P2_201 DATA >0101,>0101,>0101,>0101    ;
     C62C 0101 
     C62E 0101 
     C630 0101 
0423 C632 FF00     P2_202 DATA >FF00,>0000,>0000,>0000    ;
     C634 0000 
     C636 0000 
     C638 0000 
0424 C63A 0000     P2_203 DATA >0000,>0000,>0000,>00FF    ;
     C63C 0000 
     C63E 0000 
     C640 00FF 
0425 C642 FF80     P2_204 DATA >FF80,>8080,>8080,>8080    ;
     C644 8080 
     C646 8080 
     C648 8080 
0426 C64A FF01     P2_205 DATA >FF01,>0101,>0101,>0101    ;
     C64C 0101 
     C64E 0101 
     C650 0101 
0427 C652 8080     P2_206 DATA >8080,>8080,>8080,>80FF    ;
     C654 8080 
     C656 8080 
     C658 80FF 
0428 C65A 0101     P2_207 DATA >0101,>0101,>0101,>01FF    ;
     C65C 0101 
     C65E 0101 
     C660 01FF 
0429 C662 0000     P2_208 DATA >0000,>0705,>0704,>0400    ;
     C664 0705 
     C666 0704 
     C668 0400 
0430 C66A 0000     P2_209 DATA >0000,>2525,>A5A5,>9900    ;
     C66C 2525 
     C66E A5A5 
     C670 9900 
0431 C672 0000     P2_210 DATA >0000,>C744,>E624,>E700    ;
     C674 C744 
     C676 E624 
     C678 E700 
0432 C67A 0000     P2_211 DATA >0000,>4B6A,>5A4A,>4B00    ;
     C67C 4B6A 
     C67E 5A4A 
     C680 4B00 
0433 C682 0000     P2_212 DATA >0000,>8040,>4040,>8000    ;
     C684 8040 
     C686 4040 
     C688 8000 
0434 C68A F0F0     P2_213 DATA >F0F0,>F0F0,>0000,>0000    ;
     C68C F0F0 
     C68E 0000 
     C690 0000 
0435 C692 0F0F     P2_214 DATA >0F0F,>0F0F,>0000,>0000    ;
     C694 0F0F 
     C696 0000 
     C698 0000 
0436 C69A FFFF     P2_215 DATA >FFFF,>FFFF,>0000,>0000    ;
     C69C FFFF 
     C69E 0000 
     C6A0 0000 
0437 C6A2 0000     P2_216 DATA >0000,>0000,>F0F0,>F0F0    ;
     C6A4 0000 
     C6A6 F0F0 
     C6A8 F0F0 
0438 C6AA F0F0     P2_217 DATA >F0F0,>F0F0,>F0F0,>F0F0    ;
     C6AC F0F0 
     C6AE F0F0 
     C6B0 F0F0 
0439 C6B2 0F0F     P2_218 DATA >0F0F,>0F0F,>F0F0,>F0F0    ;
     C6B4 0F0F 
     C6B6 F0F0 
     C6B8 F0F0 
0440 C6BA FFFF     P2_219 DATA >FFFF,>FFFF,>F0F0,>F0F0    ;
     C6BC FFFF 
     C6BE F0F0 
     C6C0 F0F0 
0441 C6C2 0000     P2_220 DATA >0000,>0000,>0F0F,>0F0F    ;
     C6C4 0000 
     C6C6 0F0F 
     C6C8 0F0F 
0442 C6CA F0F0     P2_221 DATA >F0F0,>F0F0,>0F0F,>0F0F    ;
     C6CC F0F0 
     C6CE 0F0F 
     C6D0 0F0F 
0443 C6D2 0F0F     P2_222 DATA >0F0F,>0F0F,>0F0F,>0F0F    ;
     C6D4 0F0F 
     C6D6 0F0F 
     C6D8 0F0F 
0444 C6DA FFFF     P2_223 DATA >FFFF,>FFFF,>0F0F,>0F0F    ;
     C6DC FFFF 
     C6DE 0F0F 
     C6E0 0F0F 
0445 C6E2 0000     P2_224 DATA >0000,>0000,>FFFF,>FFFF    ;
     C6E4 0000 
     C6E6 FFFF 
     C6E8 FFFF 
0446 C6EA F0F0     P2_225 DATA >F0F0,>F0F0,>FFFF,>FFFF    ;
     C6EC F0F0 
     C6EE FFFF 
     C6F0 FFFF 
0447 C6F2 0F0F     P2_226 DATA >0F0F,>0F0F,>FFFF,>FFFF    ;
     C6F4 0F0F 
     C6F6 FFFF 
     C6F8 FFFF 
0448 C6FA FFFF     P2_227 DATA >FFFF,>FFFF,>FFFF,>FFFF    ;
     C6FC FFFF 
     C6FE FFFF 
     C700 FFFF 
0449 C702 FFFF     P2_228 DATA >FFFF,>FFFF,>FFFF,>FFFF    ;
     C704 FFFF 
     C706 FFFF 
     C708 FFFF 
0450 C70A FFFF     P2_229 DATA >FFFF,>FFFF,>FFFF,>FFFF    ;
     C70C FFFF 
     C70E FFFF 
     C710 FFFF 
0451 C712 FFFF     P2_230 DATA >FFFF,>FFFF,>FFFF,>FFFF    ;
     C714 FFFF 
     C716 FFFF 
     C718 FFFF 
0452 C71A CFCF     P2_231 DATA >CFCF,>CFCF,>CFCF,>C0FF    ;
     C71C CFCF 
     C71E CFCF 
     C720 C0FF 
0453 C722 FFFF     P2_232 DATA >FFFF,>FFFF,>FFFF,>FFFF    ;
     C724 FFFF 
     C726 FFFF 
     C728 FFFF 
0454 C72A FFFF     P2_233 DATA >FFFF,>FFFF,>FFFF,>FFFF    ;
     C72C FFFF 
     C72E FFFF 
     C730 FFFF 
0455 C732 FFFF     P2_234 DATA >FFFF,>FFFF,>FFFF,>FFFF    ;
     C734 FFFF 
     C736 FFFF 
     C738 FFFF 
0456 C73A FEDE     P2_235 DATA >FEDE,>C903,>83E3,>F3FB    ;
     C73C C903 
     C73E 83E3 
     C740 F3FB 
0457 C742 FFFF     P2_236 DATA >FFFF,>FFFF,>FFFF,>FFFF    ;
     C744 FFFF 
     C746 FFFF 
     C748 FFFF 
0458 C74A FFFF     P2_237 DATA >FFFF,>FFFF,>FFFF,>FFFF    ;
     C74C FFFF 
     C74E FFFF 
     C750 FFFF 
0459 C752 0010     P2_238 DATA >0010,>1010,>02CF,>0000    ;
     C754 1010 
     C756 02CF 
     C758 0000 
0460 C75A 7F5F     P2_239 DATA >7F5F,>5755,>5557,>5F7F    ;
     C75C 5755 
     C75E 5557 
     C760 5F7F 
0461 C762 FFFF     P2_240 DATA >FFFF,>FFFF,>FFFF,>FFFF    ;
     C764 FFFF 
     C766 FFFF 
     C768 FFFF 
0462 C76A FFFF     P2_241 DATA >FFFF,>FFFF,>FFFF,>FFFF    ;
     C76C FFFF 
     C76E FFFF 
     C770 FFFF 
0463 C772 FFFF     P2_242 DATA >FFFF,>FFFF,>FFFF,>FFFF    ;
     C774 FFFF 
     C776 FFFF 
     C778 FFFF 
0464 C77A FFFF     P2_243 DATA >FFFF,>FFFF,>FFFF,>FFFF    ;
     C77C FFFF 
     C77E FFFF 
     C780 FFFF 
0465 C782 FFFF     P2_244 DATA >FFFF,>FFFF,>FFFF,>FFFF    ;
     C784 FFFF 
     C786 FFFF 
     C788 FFFF 
0466 C78A FFFF     P2_245 DATA >FFFF,>FFFF,>FFFF,>FFFF    ;
     C78C FFFF 
     C78E FFFF 
     C790 FFFF 
0467 C792 FFFF     P2_246 DATA >FFFF,>FFFF,>FFFF,>FFFF    ;
     C794 FFFF 
     C796 FFFF 
     C798 FFFF 
0468 C79A FFFF     P2_247 DATA >FFFF,>FFFF,>FFFF,>FFFF    ;
     C79C FFFF 
     C79E FFFF 
     C7A0 FFFF 
0469 C7A2 FFFF     P2_248 DATA >FFFF,>FFFF,>FFFF,>FFFF    ;
     C7A4 FFFF 
     C7A6 FFFF 
     C7A8 FFFF 
0470 C7AA FFFF     P2_249 DATA >FFFF,>FFFF,>FFFF,>FFFF    ;
     C7AC FFFF 
     C7AE FFFF 
     C7B0 FFFF 
0471 C7B2 FFFF     P2_250 DATA >FFFF,>FFFF,>FFFF,>FFFF    ;
     C7B4 FFFF 
     C7B6 FFFF 
     C7B8 FFFF 
0472 C7BA FFFF     P2_251 DATA >FFFF,>FFFF,>FFFC,>F0C0    ;
     C7BC FFFF 
     C7BE FFFC 
     C7C0 F0C0 
0473 C7C2 FFFC     P2_252 DATA >FFFC,>F0C0,>0000,>0000    ;
     C7C4 F0C0 
     C7C6 0000 
     C7C8 0000 
0474 C7CA 030F     P2_253 DATA >030F,>3FFF,>FFFF,>FFFF    ;
     C7CC 3FFF 
     C7CE FFFF 
     C7D0 FFFF 
0475 C7D2 0000     P2_254 DATA >0000,>0000,>030F,>3FFF    ;
     C7D4 0000 
     C7D6 030F 
     C7D8 3FFF 
0476 C7DA 0000     P2_255 DATA >0000,>0000,>0000,>0000    ;
     C7DC 0000 
     C7DE 0000 
     C7E0 0000 
0477               ****************************************
0478               * Map Data
0479               ****************************************
0480 C7E2 0001     MCOUNT DATA 1                          ;
0481               * == Map #0 ==
0482 C7E4 0003     MC0    DATA 3                          ;
0483 C7E6 0020     MS0    DATA >0020,>001E,>03C0          ; Width, Height, Size
     C7E8 001E 
     C7EA 03C0 
0484               * -- Map Row 0 --
0485 C7EC EAF0     MD0    DATA >EAF0,>E9FA,>F0F0,>F0F0    ;
     C7EE E9FA 
     C7F0 F0F0 
     C7F2 F0F0 
0486 C7F4 F0F0            DATA >F0F0,>FAFA,>FAFA,>FAFA    ;
     C7F6 FAFA 
     C7F8 FAFA 
     C7FA FAFA 
0487 C7FC FAFA            DATA >FAFA,>FAFA,>FBFC,>FFFF    ;
     C7FE FAFA 
     C800 FBFC 
     C802 FFFF 
0488 C804 FFFF            DATA >FFFF,>FFFF,>FFFF,>FAFA    ;
     C806 FFFF 
     C808 FFFF 
     C80A FAFA 
0489               * -- Map Row 1 --
0490 C80C FAFA            DATA >FAFA,>FAFA,>FAFA,>FAFA    ;
     C80E FAFA 
     C810 FAFA 
     C812 FAFA 
0491 C814 FAFA            DATA >FAFA,>FAFA,>FAFA,>FAFA    ;
     C816 FAFA 
     C818 FAFA 
     C81A FAFA 
0492 C81C FAFA            DATA >FAFA,>FBFC,>FFFF,>FFFF    ;
     C81E FBFC 
     C820 FFFF 
     C822 FFFF 
0493 C824 FFFF            DATA >FFFF,>FFFF,>FFFF,>FAFA    ;
     C826 FFFF 
     C828 FFFF 
     C82A FAFA 
0494               * -- Map Row 2 --
0495 C82C F1E8            DATA >F1E8,>E9FA,>F0F0,>F0F0    ;
     C82E E9FA 
     C830 F0F0 
     C832 F0F0 
0496 C834 F0F0            DATA >F0F0,>FAFA,>FAFA,>FAFA    ;
     C836 FAFA 
     C838 FAFA 
     C83A FAFA 
0497 C83C FBFC            DATA >FBFC,>FFFF,>FFFF,>FFFF    ;
     C83E FFFF 
     C840 FFFF 
     C842 FFFF 
0498 C844 FFFF            DATA >FFFF,>FFFF,>FFFF,>FAFA    ;
     C846 FFFF 
     C848 FFFF 
     C84A FAFA 
0499               * -- Map Row 3 --
0500 C84C FAFA            DATA >FAFA,>FAFA,>FAFA,>FAFA    ;
     C84E FAFA 
     C850 FAFA 
     C852 FAFA 
0501 C854 FAFA            DATA >FAFA,>FAFA,>FAFA,>FBFC    ;
     C856 FAFA 
     C858 FAFA 
     C85A FBFC 
0502 C85C FFFF            DATA >FFFF,>FFFF,>FFFF,>FFFF    ;
     C85E FFFF 
     C860 FFFF 
     C862 FFFF 
0503 C864 FFFF            DATA >FFFF,>FFFF,>FFFF,>FAFA    ;
     C866 FFFF 
     C868 FFFF 
     C86A FAFA 
0504               * -- Map Row 4 --
0505 C86C FAFA            DATA >FAFA,>FAFA,>FAFA,>FAFA    ;
     C86E FAFA 
     C870 FAFA 
     C872 FAFA 
0506 C874 FAFA            DATA >FAFA,>FAFA,>FBFC,>FFFF    ;
     C876 FAFA 
     C878 FBFC 
     C87A FFFF 
0507 C87C FFFF            DATA >FFFF,>FFFF,>FFFF,>FFFF    ;
     C87E FFFF 
     C880 FFFF 
     C882 FFFF 
0508 C884 FFFF            DATA >FFFF,>FFFF,>FFFF,>FAFA    ;
     C886 FFFF 
     C888 FFFF 
     C88A FAFA 
0509               * -- Map Row 5 --
0510 C88C FAFA            DATA >FAFA,>FAFA,>FAFA,>FAFA    ;
     C88E FAFA 
     C890 FAFA 
     C892 FAFA 
0511 C894 FAFA            DATA >FAFA,>FBFC,>FFFF,>FFFF    ;
     C896 FBFC 
     C898 FFFF 
     C89A FFFF 
0512 C89C FFFF            DATA >FFFF,>FFFF,>FFFF,>FFFF    ;
     C89E FFFF 
     C8A0 FFFF 
     C8A2 FFFF 
0513 C8A4 FFFF            DATA >FFFF,>FFFF,>FFFF,>FAFA    ;
     C8A6 FFFF 
     C8A8 FFFF 
     C8AA FAFA 
0514               * -- Map Row 6 --
0515 C8AC FAFA            DATA >FAFA,>FAFA,>FAFA,>FAFA    ;
     C8AE FAFA 
     C8B0 FAFA 
     C8B2 FAFA 
0516 C8B4 FBFC            DATA >FBFC,>FFFF,>FFFF,>FFFF    ;
     C8B6 FFFF 
     C8B8 FFFF 
     C8BA FFFF 
0517 C8BC FFFF            DATA >FFFF,>FFFF,>FFFF,>FFFF    ;
     C8BE FFFF 
     C8C0 FFFF 
     C8C2 FFFF 
0518 C8C4 FFFF            DATA >FFFF,>FFFF,>FFFF,>FAFA    ;
     C8C6 FFFF 
     C8C8 FFFF 
     C8CA FAFA 
0519               * -- Map Row 7 --
0520 C8CC FAFA            DATA >FAFA,>FAFA,>FAFA,>FBFC    ;
     C8CE FAFA 
     C8D0 FAFA 
     C8D2 FBFC 
0521 C8D4 FFFF            DATA >FFFF,>FFFF,>FFFF,>FFFF    ;
     C8D6 FFFF 
     C8D8 FFFF 
     C8DA FFFF 
0522 C8DC FFFF            DATA >FFFF,>FFFF,>FFFF,>FFFF    ;
     C8DE FFFF 
     C8E0 FFFF 
     C8E2 FFFF 
0523 C8E4 FFFF            DATA >FFFF,>FFFF,>FFFF,>FAFA    ;
     C8E6 FFFF 
     C8E8 FFFF 
     C8EA FAFA 
0524               * -- Map Row 8 --
0525 C8EC FAFA            DATA >FAFA,>FAFA,>FBFC,>FFFF    ;
     C8EE FAFA 
     C8F0 FBFC 
     C8F2 FFFF 
0526 C8F4 FFFF            DATA >FFFF,>FFFF,>FFFF,>FFFF    ;
     C8F6 FFFF 
     C8F8 FFFF 
     C8FA FFFF 
0527 C8FC FFFF            DATA >FFFF,>FFFF,>FFFF,>FFFF    ;
     C8FE FFFF 
     C900 FFFF 
     C902 FFFF 
0528 C904 FFFF            DATA >FFFF,>FFFF,>FFFF,>FAFA    ;
     C906 FFFF 
     C908 FFFF 
     C90A FAFA 
0529               * -- Map Row 9 --
0530 C90C FAFA            DATA >FAFA,>FBFC,>FFFF,>FFFF    ;
     C90E FBFC 
     C910 FFFF 
     C912 FFFF 
0531 C914 FFFF            DATA >FFFF,>FFFF,>FFFF,>FFFF    ;
     C916 FFFF 
     C918 FFFF 
     C91A FFFF 
0532 C91C FFFF            DATA >FFFF,>FFFF,>FFFF,>FFFF    ;
     C91E FFFF 
     C920 FFFF 
     C922 FFFF 
0533 C924 FFFF            DATA >FFFF,>FFFF,>FFFF,>FAFA    ;
     C926 FFFF 
     C928 FFFF 
     C92A FAFA 
0534               * -- Map Row 10 --
0535 C92C FAFA            DATA >FAFA,>FFFF,>FFFF,>FFFF    ;
     C92E FFFF 
     C930 FFFF 
     C932 FFFF 
0536 C934 FFFF            DATA >FFFF,>FFFF,>FFFF,>FFFF    ;
     C936 FFFF 
     C938 FFFF 
     C93A FFFF 
0537 C93C FFFF            DATA >FFFF,>FFFF,>FFFF,>FFFF    ;
     C93E FFFF 
     C940 FFFF 
     C942 FFFF 
0538 C944 FFFF            DATA >FFFF,>FFFF,>FFFF,>FAFA    ;
     C946 FFFF 
     C948 FFFF 
     C94A FAFA 
0539               * -- Map Row 11 --
0540 C94C FAFA            DATA >FAFA,>FFFF,>FFFF,>FFFF    ;
     C94E FFFF 
     C950 FFFF 
     C952 FFFF 
0541 C954 FFFF            DATA >FFFF,>FFFF,>FFFF,>FFFF    ;
     C956 FFFF 
     C958 FFFF 
     C95A FFFF 
0542 C95C FFFF            DATA >FFFF,>FFFF,>FFFF,>FFFF    ;
     C95E FFFF 
     C960 FFFF 
     C962 FFFF 
0543 C964 FFFF            DATA >FFFF,>FFFF,>FFFF,>FAFA    ;
     C966 FFFF 
     C968 FFFF 
     C96A FAFA 
0544               * -- Map Row 12 --
0545 C96C FAFA            DATA >FAFA,>FFFF,>FFFF,>FFFF    ;
     C96E FFFF 
     C970 FFFF 
     C972 FFFF 
0546 C974 FFFF            DATA >FFFF,>FFFF,>FFFF,>FFFF    ;
     C976 FFFF 
     C978 FFFF 
     C97A FFFF 
0547 C97C FFFF            DATA >FFFF,>FFFF,>FFFF,>FFFF    ;
     C97E FFFF 
     C980 FFFF 
     C982 FFFF 
0548 C984 FFFF            DATA >FFFF,>FFFF,>FFFF,>FAFA    ;
     C986 FFFF 
     C988 FFFF 
     C98A FAFA 
0549               * -- Map Row 13 --
0550 C98C FAFA            DATA >FAFA,>FFFF,>FFFF,>FFFF    ;
     C98E FFFF 
     C990 FFFF 
     C992 FFFF 
0551 C994 FFFF            DATA >FFFF,>FFFF,>FFFF,>FFFF    ;
     C996 FFFF 
     C998 FFFF 
     C99A FFFF 
0552 C99C FFFF            DATA >FFFF,>FFFF,>FFFF,>FFFF    ;
     C99E FFFF 
     C9A0 FFFF 
     C9A2 FFFF 
0553 C9A4 FFFF            DATA >FFFF,>FFFF,>FFFF,>FAFA    ;
     C9A6 FFFF 
     C9A8 FFFF 
     C9AA FAFA 
0554               * -- Map Row 14 --
0555 C9AC FAFA            DATA >FAFA,>FFFF,>FFFF,>FFFF    ;
     C9AE FFFF 
     C9B0 FFFF 
     C9B2 FFFF 
0556 C9B4 FFFF            DATA >FFFF,>FFFF,>FFFF,>FFFF    ;
     C9B6 FFFF 
     C9B8 FFFF 
     C9BA FFFF 
0557 C9BC FFFF            DATA >FFFF,>FFFF,>FFFF,>FFFF    ;
     C9BE FFFF 
     C9C0 FFFF 
     C9C2 FFFF 
0558 C9C4 FFFF            DATA >FFFF,>FFFF,>FFFF,>FAFA    ;
     C9C6 FFFF 
     C9C8 FFFF 
     C9CA FAFA 
0559               * -- Map Row 15 --
0560 C9CC FAFA            DATA >FAFA,>FFFF,>FFFF,>FFFF    ;
     C9CE FFFF 
     C9D0 FFFF 
     C9D2 FFFF 
0561 C9D4 FFFF            DATA >FFFF,>FFFF,>FFFF,>FFFF    ;
     C9D6 FFFF 
     C9D8 FFFF 
     C9DA FFFF 
0562 C9DC FFFF            DATA >FFFF,>FFFF,>FFFF,>FFFF    ;
     C9DE FFFF 
     C9E0 FFFF 
     C9E2 FFFF 
0563 C9E4 FFFF            DATA >FFFF,>FFFF,>FFFF,>FAFA    ;
     C9E6 FFFF 
     C9E8 FFFF 
     C9EA FAFA 
0564               * -- Map Row 16 --
0565 C9EC FAFA            DATA >FAFA,>FFFF,>FFFF,>FFFF    ;
     C9EE FFFF 
     C9F0 FFFF 
     C9F2 FFFF 
0566 C9F4 FFFF            DATA >FFFF,>FFFF,>FFFF,>FFFF    ;
     C9F6 FFFF 
     C9F8 FFFF 
     C9FA FFFF 
0567 C9FC FFFF            DATA >FFFF,>FFFF,>FFFF,>FFFF    ;
     C9FE FFFF 
     CA00 FFFF 
     CA02 FFFF 
0568 CA04 FFFF            DATA >FFFF,>FFFF,>FFFF,>FAFA    ;
     CA06 FFFF 
     CA08 FFFF 
     CA0A FAFA 
0569               * -- Map Row 17 --
0570 CA0C FAFA            DATA >FAFA,>FFFF,>FFFF,>FFFF    ;
     CA0E FFFF 
     CA10 FFFF 
     CA12 FFFF 
0571 CA14 FFFF            DATA >FFFF,>FFFF,>FFFF,>FFFF    ;
     CA16 FFFF 
     CA18 FFFF 
     CA1A FFFF 
0572 CA1C FFFF            DATA >FFFF,>FFFF,>FFFF,>FFFF    ;
     CA1E FFFF 
     CA20 FFFF 
     CA22 FFFF 
0573 CA24 FFFF            DATA >FFFF,>FFFF,>FFFF,>FAFA    ;
     CA26 FFFF 
     CA28 FFFF 
     CA2A FAFA 
0574               * -- Map Row 18 --
0575 CA2C FAFA            DATA >FAFA,>FFFF,>FFFF,>FFFF    ;
     CA2E FFFF 
     CA30 FFFF 
     CA32 FFFF 
0576 CA34 FFFF            DATA >FFFF,>FFFF,>FFFF,>FFFF    ;
     CA36 FFFF 
     CA38 FFFF 
     CA3A FFFF 
0577 CA3C FFFF            DATA >FFFF,>FFFF,>FFFF,>FFFF    ;
     CA3E FFFF 
     CA40 FFFF 
     CA42 FFFF 
0578 CA44 FFFF            DATA >FFFF,>FFFF,>FFFF,>FAFA    ;
     CA46 FFFF 
     CA48 FFFF 
     CA4A FAFA 
0579               * -- Map Row 19 --
0580 CA4C FAFA            DATA >FAFA,>FFFF,>FFFF,>FFFF    ;
     CA4E FFFF 
     CA50 FFFF 
     CA52 FFFF 
0581 CA54 FFFF            DATA >FFFF,>FFFF,>FFFF,>FFFF    ;
     CA56 FFFF 
     CA58 FFFF 
     CA5A FFFF 
0582 CA5C FFFF            DATA >FFFF,>FFFF,>FFFF,>FFFF    ;
     CA5E FFFF 
     CA60 FFFF 
     CA62 FFFF 
0583 CA64 FFFF            DATA >FFFF,>FFFF,>FFFF,>FAFA    ;
     CA66 FFFF 
     CA68 FFFF 
     CA6A FAFA 
0584               * -- Map Row 20 --
0585 CA6C FAFA            DATA >FAFA,>FFFF,>FFFF,>FFFF    ;
     CA6E FFFF 
     CA70 FFFF 
     CA72 FFFF 
0586 CA74 FFFF            DATA >FFFF,>FFFF,>FFFF,>FFFF    ;
     CA76 FFFF 
     CA78 FFFF 
     CA7A FFFF 
0587 CA7C FFFF            DATA >FFFF,>FFFF,>FFFF,>FFFF    ;
     CA7E FFFF 
     CA80 FFFF 
     CA82 FFFF 
0588 CA84 FFFF            DATA >FFFF,>FFFF,>FFFF,>FAFA    ;
     CA86 FFFF 
     CA88 FFFF 
     CA8A FAFA 
0589               * -- Map Row 21 --
0590 CA8C FAFA            DATA >FAFA,>FFFF,>FFFF,>FFFF    ;
     CA8E FFFF 
     CA90 FFFF 
     CA92 FFFF 
0591 CA94 FFFF            DATA >FFFF,>FFFF,>FFFF,>FFFF    ;
     CA96 FFFF 
     CA98 FFFF 
     CA9A FFFF 
0592 CA9C FFFF            DATA >FFFF,>FFFF,>FFFF,>FFFF    ;
     CA9E FFFF 
     CAA0 FFFF 
     CAA2 FFFF 
0593 CAA4 FFFF            DATA >FFFF,>FFFF,>FEFD,>FAFA    ;
     CAA6 FFFF 
     CAA8 FEFD 
     CAAA FAFA 
0594               * -- Map Row 22 --
0595 CAAC FAFA            DATA >FAFA,>FFFF,>FFFF,>FFFF    ;
     CAAE FFFF 
     CAB0 FFFF 
     CAB2 FFFF 
0596 CAB4 FFFF            DATA >FFFF,>FFFF,>FFFF,>FFFF    ;
     CAB6 FFFF 
     CAB8 FFFF 
     CABA FFFF 
0597 CABC FFFF            DATA >FFFF,>FFFF,>FFFF,>FFFF    ;
     CABE FFFF 
     CAC0 FFFF 
     CAC2 FFFF 
0598 CAC4 FFFF            DATA >FFFF,>FEFD,>FAFA,>FAFA    ;
     CAC6 FEFD 
     CAC8 FAFA 
     CACA FAFA 
0599               * -- Map Row 23 --
0600 CACC FAFA            DATA >FAFA,>FFFF,>FFFF,>FFFF    ;
     CACE FFFF 
     CAD0 FFFF 
     CAD2 FFFF 
0601 CAD4 FFFF            DATA >FFFF,>FFFF,>FFFF,>FFFF    ;
     CAD6 FFFF 
     CAD8 FFFF 
     CADA FFFF 
0602 CADC FFFF            DATA >FFFF,>FFFF,>FFFF,>FFFF    ;
     CADE FFFF 
     CAE0 FFFF 
     CAE2 FFFF 
0603 CAE4 FEFD            DATA >FEFD,>FAFA,>FAFA,>FAFA    ;
     CAE6 FAFA 
     CAE8 FAFA 
     CAEA FAFA 
0604               * -- Map Row 24 --
0605 CAEC FAFA            DATA >FAFA,>FFFF,>FFFF,>FFFF    ;
     CAEE FFFF 
     CAF0 FFFF 
     CAF2 FFFF 
0606 CAF4 FFFF            DATA >FFFF,>FFFF,>FFFF,>FFFF    ;
     CAF6 FFFF 
     CAF8 FFFF 
     CAFA FFFF 
0607 CAFC FFFF            DATA >FFFF,>FFFF,>FFFF,>FEFD    ;
     CAFE FFFF 
     CB00 FFFF 
     CB02 FEFD 
0608 CB04 FAFA            DATA >FAFA,>FAFA,>FAFA,>FAFA    ;
     CB06 FAFA 
     CB08 FAFA 
     CB0A FAFA 
0609               * -- Map Row 25 --
0610 CB0C FAFA            DATA >FAFA,>FFFF,>FFFF,>FFFF    ;
     CB0E FFFF 
     CB10 FFFF 
     CB12 FFFF 
0611 CB14 FFFF            DATA >FFFF,>FFFF,>FFFF,>FFFF    ;
     CB16 FFFF 
     CB18 FFFF 
     CB1A FFFF 
0612 CB1C FFFF            DATA >FFFF,>FFFF,>FEFD,>FAFA    ;
     CB1E FFFF 
     CB20 FEFD 
     CB22 FAFA 
0613 CB24 FAFA            DATA >FAFA,>FAFA,>FAFA,>FAFA    ;
     CB26 FAFA 
     CB28 FAFA 
     CB2A FAFA 
0614               * -- Map Row 26 --
0615 CB2C FAFA            DATA >FAFA,>FFFF,>FFFF,>FFFF    ;
     CB2E FFFF 
     CB30 FFFF 
     CB32 FFFF 
0616 CB34 FFFF            DATA >FFFF,>FFFF,>FFFF,>FFFF    ;
     CB36 FFFF 
     CB38 FFFF 
     CB3A FFFF 
0617 CB3C FFFF            DATA >FFFF,>FEFD,>FAFA,>FAFA    ;
     CB3E FEFD 
     CB40 FAFA 
     CB42 FAFA 
0618 CB44 FAFA            DATA >FAFA,>FAFA,>FAFA,>FAFA    ;
     CB46 FAFA 
     CB48 FAFA 
     CB4A FAFA 
0619               * -- Map Row 27 --
0620 CB4C FAFA            DATA >FAFA,>FFFF,>FFFF,>FFFF    ;
     CB4E FFFF 
     CB50 FFFF 
     CB52 FFFF 
0621 CB54 FFFF            DATA >FFFF,>FFFF,>FFFF,>FFFF    ;
     CB56 FFFF 
     CB58 FFFF 
     CB5A FFFF 
0622 CB5C FEFD            DATA >FEFD,>FAFA,>FAFA,>FAFA    ;
     CB5E FAFA 
     CB60 FAFA 
     CB62 FAFA 
0623 CB64 FAFA            DATA >FAFA,>FAFA,>FAFA,>FAFA    ;
     CB66 FAFA 
     CB68 FAFA 
     CB6A FAFA 
0624               * -- Map Row 28 --
0625 CB6C FAFA            DATA >FAFA,>FFFF,>FFFF,>FFFF    ;
     CB6E FFFF 
     CB70 FFFF 
     CB72 FFFF 
0626 CB74 FFFF            DATA >FFFF,>FFFF,>FFFF,>FEFD    ;
     CB76 FFFF 
     CB78 FFFF 
     CB7A FEFD 
0627 CB7C FAFA            DATA >FAFA,>FAFA,>FAFA,>FAFA    ;
     CB7E FAFA 
     CB80 FAFA 
     CB82 FAFA 
0628 CB84 FAFA            DATA >FAFA,>FAFA,>FAFA,>FAFA    ;
     CB86 FAFA 
     CB88 FAFA 
     CB8A FAFA 
0629               * -- Map Row 29 --
0630 CB8C FAFA            DATA >FAFA,>FFFF,>FFFF,>FFFF    ;
     CB8E FFFF 
     CB90 FFFF 
     CB92 FFFF 
0631 CB94 FFFF            DATA >FFFF,>FFFF,>FEFD,>FAFA    ;
     CB96 FFFF 
     CB98 FEFD 
     CB9A FAFA 
0632 CB9C FAFA            DATA >FAFA,>FAFA,>FAFA,>FAFA    ;
     CB9E FAFA 
     CBA0 FAFA 
     CBA2 FAFA 
0633 CBA4 FAFA            DATA >FAFA,>FAFA,>FAFA,>FAFA    ;
     CBA6 FAFA 
     CBA8 FAFA 
     CBAA FAFA 
**** **** ****     > zqx-one.a99
1970                      copy "title-zqx-one.a99"
**** **** ****     > title-zqx-one.a99
0001               title:
0002               *      Z
0003 CBAC 030E            byte 3,14,215
     CBAE D704 
0004 CBB0 0ED7            byte 4,14,215
0005 CBB2 050E            byte 5,14,215
     CBB4 D706 
0006 CBB6 0ED7            byte 6,14,215
0007 CBB8 070E            byte 7,14,227
     CBBA E308 
0008 CBBC 0ED9            byte 8,14,217
0009 CBBE 070F            byte 7,15,219
     CBC0 DB06 
0010 CBC2 0FE0            byte 6,15,224
0011 CBC4 0610            byte 6,16,213
     CBC6 D505 
0012 CBC8 10E2            byte 5,16,226
0013 CBCA 0511            byte 5,17,213
     CBCC D504 
0014 CBCE 11DB            byte 4,17,219
0015 CBD0 0311            byte 3,17,220
     CBD2 DC02 
0016 CBD4 12E2            byte 2,18,226
0017 CBD6 0312            byte 3,18,227
     CBD8 E304 
0018 CBDA 12E0            byte 4,18,224
0019 CBDC 0512            byte 5,18,224
     CBDE E006 
0020 CBE0 12E0            byte 6,18,224
0021 CBE2 0613            byte 6,19,215
     CBE4 D707 
0022 CBE6 12E0            byte 7,18,224
0023 CBE8 0713            byte 7,19,223
     CBEA DF08 
0024 CBEC 12D8            byte 8,18,216
0025 CBEE 0813            byte 8,19,227
     CBF0 E309 
0026 CBF2 13E3            byte 9,19,227
0027 CBF4 0A13            byte 10,19,227
     CBF6 E30B 
0028 CBF8 13E3            byte 11,19,227
0029 CBFA 0C13            byte 12,19,227
     CBFC E30D 
0030 CBFE 13E3            byte 13,19,227
0031 CC00 0E13            byte 14,19,227
     CC02 E30F 
0032 CC04 13E3            byte 15,19,227
0033 CC06 1013            byte 16,19,227
     CC08 E311 
0034 CC0A 13E3            byte 17,19,227
0035 CC0C 1213            byte 18,19,227
     CC0E E313 
0036 CC10 13E3            byte 19,19,227
0037 CC12 1413            byte 20,19,227
     CC14 E315 
0038 CC16 13E3            byte 21,19,227
0039 CC18 1613            byte 22,19,227
     CC1A E317 
0040 CC1C 13E3            byte 23,19,227
0041 CC1E 1813            byte 24,19,227
     CC20 E319 
0042 CC22 13E3            byte 25,19,227
0043 CC24 1A13            byte 26,19,227
     CC26 E31B 
0044 CC28 13E3            byte 27,19,227
0045 CC2A 1C13            byte 28,19,219
     CC2C DB0C 
0046               *      Q
0047 CC2E 0ED9            byte 12,14,217
0048 CC30 0B0E            byte 11,14,223
     CC32 DF0A 
0049 CC34 0ED7            byte 10,14,215
0050 CC36 090E            byte 9,14,222
     CC38 DE09 
0051 CC3A 0FDE            byte 9,15,222
0052 CC3C 0910            byte 9,16,222
     CC3E DE09 
0053 CC40 11DE            byte 9,17,222
0054 CC42 0912            byte 9,18,214
     CC44 D60A 
0055 CC46 12D7            byte 10,18,215
0056 CC48 0B12            byte 11,18,213
     CC4A D50C 
0057 CC4C 12D5            byte 12,18,213
0058 CC4E 0B11            byte 11,17,221
     CC50 DD0C 
0059 CC52 11D5            byte 12,17,213
0060 CC54 0B10            byte 11,16,222
     CC56 DE0C 
0061 CC58 10D9            byte 12,16,217
0062 CC5A 0B0F            byte 11,15,222
     CC5C DE0C 
0063 CC5E 0FD9            byte 12,15,217
0064               *      X
0065 CC60 0D0E            byte 13,14,223
     CC62 DF0E 
0066 CC64 0ED9            byte 14,14,217
0067 CC66 0E0F            byte 14,15,227
     CC68 E30E 
0068 CC6A 10E2            byte 14,16,226
0069 CC6C 0E11            byte 14,17,217
     CC6E D90D 
0070 CC70 11DC            byte 13,17,220
0071 CC72 0E12            byte 14,18,213
     CC74 D50D 
0072 CC76 12D7            byte 13,18,215
0073 CC78 110E            byte 17,14,213
     CC7A D510 
0074 CC7C 0EE3            byte 16,14,227
0075 CC7E 100F            byte 16,15,217
     CC80 D90F 
0076 CC82 0FDE            byte 15,15,222
0077 CC84 0F10            byte 15,16,223
     CC86 DF10 
0078 CC88 10D8            byte 16,16,216
0079 CC8A 0F11            byte 15,17,214
     CC8C D610 
0080 CC8E 11E1            byte 16,17,225
0081 CC90 1012            byte 16,18,215
     CC92 D711 
0082 CC94 12D5            byte 17,18,213
0083               *      Dash
0084 CC96 1110            byte 17,16,215
     CC98 D712 
0085 CC9A 10D7            byte 18,16,215
0086               *      O
0087 CC9C 150E            byte 21,14,227
     CC9E E314 
0088 CCA0 0ED7            byte 20,14,215
0089 CCA2 130E            byte 19,14,222
     CCA4 DE13 
0090 CCA6 0FDE            byte 19,15,222
0091 CCA8 1310            byte 19,16,222
     CCAA DE13 
0092 CCAC 11DE            byte 19,17,222
0093 CCAE 1312            byte 19,18,214
     CCB0 D614 
0094 CCB2 12D7            byte 20,18,215
0095 CCB4 1512            byte 21,18,215
     CCB6 D715 
0096 CCB8 11E3            byte 21,17,227
0097 CCBA 1510            byte 21,16,227
     CCBC E315 
0098 CCBE 0FE3            byte 21,15,227
0099               *      N
0100 CCC0 1612            byte 22,18,214
     CCC2 D616 
0101 CCC4 11DE            byte 22,17,222
0102 CCC6 1610            byte 22,16,222
     CCC8 DE16 
0103 CCCA 0FDE            byte 22,15,222
0104 CCCC 160E            byte 22,14,222
     CCCE DE17 
0105 CCD0 0ED9            byte 23,14,217
0106 CCD2 170F            byte 23,15,223
     CCD4 DF17 
0107 CCD6 10D6            byte 23,16,214
0108 CCD8 1810            byte 24,16,217
     CCDA D918 
0109 CCDC 11DF            byte 24,17,223
0110 CCDE 1812            byte 24,18,214
     CCE0 D619 
0111 CCE2 12D5            byte 25,18,213
0112 CCE4 1911            byte 25,17,217
     CCE6 D919 
0113 CCE8 10D9            byte 25,16,217
0114 CCEA 190F            byte 25,15,217
     CCEC D919 
0115 CCEE 0ED9            byte 25,14,217
0116               *      E
0117 CCF0 1C0E            byte 28,14,227
     CCF2 E31B 
0118 CCF4 0ED7            byte 27,14,215
0119 CCF6 1A0E            byte 26,14,219
     CCF8 DB1A 
0120 CCFA 0FD9            byte 26,15,217
0121 CCFC 1A10            byte 26,16,219
     CCFE DB1B 
0122 CD00 10D5            byte 27,16,213
0123 CD02 1A11            byte 26,17,217
     CD04 D91A 
0124 CD06 12D7            byte 26,18,215
0125 CD08 1B12            byte 27,18,215
     CD0A D71C 
0126 CD0C 12D7            byte 28,18,215
0127 CD0E 1C11            byte 28,17,224
     CD10 E0FF 
0128               
0129 CD12 FFFF            byte -1,-1,-1
0130                      even
**** **** ****     > zqx-one.a99
1971                      copy "sprite-types.a99"
**** **** ****     > sprite-types.a99
0001               sprite_type_index:
0002                      equ  0
0003               sprite_type_handler:
0004                      equ  2
0005               sprite_type_hit_handler:
0006                      equ  4
0007               sprite_type_lethal:
0008                      equ  6
0009               sprite_type_size:
0010                      equ  8
0011               
0012               sprite_type_index_plane:
0013                      equ  0
0014               sprite_type_index_shadow:
0015                      equ  1
0016               sprite_type_index_silo:
0017                      equ  2
0018               sprite_type_index_radar:
0019                      equ  3
0020               sprite_type_index_blue_gun:
0021                      equ  4
0022               sprite_type_index_green_gun:
0023                      equ  5
0024               sprite_type_index_green_gun_2:
0025                      equ  6
0026               sprite_type_index_blue_plane:
0027                      equ  7
0028               sprite_type_index_green_rocket_1:
0029                      equ  8
0030               sprite_type_index_green_rocket_2:
0031                      equ  9
0032               sprite_type_index_rocket_launch_1:
0033                      equ  10
0034               sprite_type_index_rocket_launch_2:
0035                      equ  11
0036               sprite_type_index_shield:
0037                      equ  12
0038               sprite_type_index_wall_left:
0039                      equ  13
0040               sprite_type_index_wall_right:
0041                      equ  14
0042               sprite_type_index_explosion_1:
0043                      equ  15
0044               sprite_type_index_explosion_2:
0045                      equ  16
0046               sprite_type_index_small_explosion:
0047                      equ  17
0048               sprite_type_index_hit_1:
0049                      equ  18
0050               sprite_type_index_hit_2:
0051                      equ  19
0052               sprite_type_index_debris:
0053                      equ  20
0054               sprite_type_index_debris_500:
0055                      equ  21
0056               sprite_type_index_green_bullet:
0057                      equ  22
0058               sprite_type_index_red_bullet:
0059                      equ  23
0060               sprite_type_index_plane_up:
0061                      equ  24
0062               sprite_type_index_plane_down:
0063                      equ  25
0064               sprite_type_index_plane_m:
0065                      equ  26
0066               sprite_type_index_plane_s:
0067                      equ  27
0068               sprite_type_index_plane_xs:
0069                      equ  28
0070               sprite_type_index_plane_up_m:
0071                      equ  29
0072               sprite_type_index_plane_up_s:
0073                      equ  30
0074               sprite_type_index_plane_up_xs:
0075                      equ  31
0076               sprite_type_index_plane_down_m:
0077                      equ  32
0078               sprite_type_index_plane_down_s:
0079                      equ  33
0080               sprite_type_index_plane_down_xs:
0081                      equ  34
0082               sprite_type_index_blue_plane_up_l:
0083                      equ  35
0084               sprite_type_index_blue_plane_up_m:
0085                      equ  36
0086               sprite_type_index_blue_plane_up_s:
0087                      equ  37
0088               sprite_type_index_blue_plane_up_xs:
0089                      equ  38
0090               sprite_type_index_blue_plane_down_l:
0091                      equ  39
0092               sprite_type_index_blue_plane_down_m:
0093                      equ  40
0094               sprite_type_index_blue_plane_down_s:
0095                      equ  41
0096               sprite_type_index_blue_plane_down_xs:
0097                      equ  42
0098               sprite_type_index_boss:
0099                      equ  43
0100               sprite_type_index_boss_rocket_launcher:
0101                      equ  44
0102               sprite_type_index_boss_shadow:
0103                      equ  45
0104               sprite_type_index_red_rocket_1:
0105                      equ  46
0106               sprite_type_index_red_rocket_2:
0107                      equ  47
0108               sprite_type_index_red_bullet_2:
0109                      equ  48
0110               sprite_type_index_satellite:
0111                      equ  49
0112               
0113               no_handler:
0114                      equ  0
0115               
0116               sprite_type_plane:
0117 CD14 0000            data sprite_type_index_plane
0118 CD16 35D8            data plane_handler
0119 CD18 0000            data no_handler                 ; Hit handler
0120 CD1A 0000            data 0                          ; Lethal
0121               sprite_type_shadow:
0122 CD1C 0001            data sprite_type_index_shadow
0123 CD1E 35FA            data shadow_handler
0124 CD20 0000            data no_handler                 ; Hit handler
0125 CD22 0000            data 0                          ; Lethal
0126               sprite_type_silo:
0127 CD24 0002            data sprite_type_index_silo
0128 CD26 0000            data no_handler
0129 CD28 3B04            data silo_hit_handler           ; Hit handler
0130 CD2A 0001            data 1                          ; Lethal
0131               sprite_type_radar:
0132 CD2C 0003            data sprite_type_index_radar
0133 CD2E 0000            data no_handler
0134 CD30 3B26            data explode_hit_handler        ; Hit handler
0135 CD32 0001            data 1                          ; Lethal
0136               sprite_type_blue_gun:
0137 CD34 0004            data sprite_type_index_blue_gun
0138 CD36 37A8            data blue_gun_handler
0139 CD38 3B26            data explode_hit_handler        ; Hit handler
0140 CD3A 0001            data 1                          ; Lethal
0141               sprite_type_green_gun:
0142 CD3C 0005            data sprite_type_index_green_gun
0143 CD3E 37F2            data green_gun_handler
0144 CD40 3B26            data explode_hit_handler        ; Hit handler
0145 CD42 0001            data 1                          ; Lethal
0146               sprite_type_green_gun_2:
0147 CD44 0006            data sprite_type_index_green_gun_2
0148 CD46 37F2            data green_gun_handler
0149 CD48 3B26            data explode_hit_handler        ; Hit handler
0150 CD4A 0001            data 1                          ; Lethal
0151               sprite_type_blue_plane:
0152 CD4C 0007            data sprite_type_index_blue_plane
0153 CD4E 0000            data no_handler
0154 CD50 3B26            data explode_hit_handler        ; Hit handler
0155 CD52 0001            data 1                          ; Lethal
0156               sprite_type_green_rocket_1:
0157 CD54 0008            data sprite_type_index_green_rocket_1
0158 CD56 36C2            data green_rocket_handler
0159 CD58 3B42            data small_explode_hit_handler   ; Hit handler
0160 CD5A 0001            data 1                          ; Lethal
0161               sprite_type_green_rocket_2:
0162 CD5C 0009            data sprite_type_index_green_rocket_2
0163 CD5E 36C2            data green_rocket_handler
0164 CD60 3B42            data small_explode_hit_handler  ; Hit handler
0165 CD62 0001            data 1                          ; Lethal
0166               sprite_type_rocket_launch_1:
0167 CD64 000A            data sprite_type_index_rocket_launch_1
0168 CD66 3662            data rocket_launch_handler
0169 CD68 0000            data no_handler                 ; Hit handler
0170 CD6A 0000            data 0                          ; Lethal
0171               sprite_type_rocket_launch_2:
0172 CD6C 000B            data sprite_type_index_rocket_launch_2
0173 CD6E 3662            data rocket_launch_handler
0174 CD70 0000            data no_handler                 ; Hit handler
0175 CD72 0000            data 0                          ; Lethal
0176               sprite_type_shield:
0177 CD74 000C            data sprite_type_index_shield
0178 CD76 3716            data shield_handler
0179 CD78 3B5E            data wall_hit_handler           ; Hit handler
0180 CD7A 0001            data 1                          ; Lethal
0181               sprite_type_wall_left:
0182 CD7C 000D            data sprite_type_index_wall_left
0183 CD7E 0000            data no_handler
0184 CD80 3B5E            data wall_hit_handler           ; Hit handler
0185 CD82 0001            data 1                          ; Lethal
0186               sprite_type_wall_right:
0187 CD84 000E            data sprite_type_index_wall_right
0188 CD86 0000            data no_handler
0189 CD88 3B5E            data wall_hit_handler           ; Hit handler
0190 CD8A 0001            data 1                          ; Lethal
0191               sprite_type_explosion_1:
0192 CD8C 000F            data sprite_type_index_explosion_1
0193 CD8E 3740            data explosion_handler
0194 CD90 0000            data no_handler                 ; Hit handler
0195 CD92 0000            data 0                          ; Lethal
0196               sprite_type_explosion_2:
0197 CD94 0010            data sprite_type_index_explosion_2
0198 CD96 3740            data explosion_handler
0199 CD98 0000            data no_handler                 ; Hit handler
0200 CD9A 0000            data 0                          ; Lethal
0201               sprite_type_small_explosion:
0202 CD9C 0011            data sprite_type_index_small_explosion
0203 CD9E 36F4            data small_explosion_handler
0204 CDA0 0000            data no_handler                 ; Hit handler
0205 CDA2 0000            data 0                          ; Lethal
0206               sprite_type_hit_1:
0207 CDA4 0012            data sprite_type_index_hit_1
0208 CDA6 3AE0            data hit_handler
0209 CDA8 0000            data no_handler                 ; Hit handler
0210 CDAA 0000            data 0                          ; Lethal
0211               sprite_type_hit_2:
0212 CDAC 0013            data sprite_type_index_hit_2
0213 CDAE 3AE0            data hit_handler
0214 CDB0 0000            data no_handler                 ; Hit handler
0215 CDB2 0000            data 0                          ; Lethal
0216               sprite_type_debris:
0217 CDB4 0014            data sprite_type_index_debris
0218 CDB6 3794            data debris_handler
0219 CDB8 0000            data no_handler                 ; Hit handler
0220 CDBA 0000            data 0                          ; Lethal
0221               sprite_type_debris_500:
0222 CDBC 0015            data sprite_type_index_debris_500
0223 CDBE 3794            data debris_handler
0224 CDC0 0000            data no_handler                 ; Hit handler
0225 CDC2 0000            data 0                          ; Lethal
0226               sprite_type_green_bullet:
0227 CDC4 0016            data sprite_type_index_green_bullet
0228 CDC6 363E            data green_bullet_handler
0229 CDC8 0000            data no_handler                 ; Hit handler
0230 CDCA 0000            data 0                          ; Lethal
0231               sprite_type_red_bullet:
0232 CDCC 0017            data sprite_type_index_red_bullet
0233 CDCE 37EC            data red_bullet_handler
0234 CDD0 0000            data no_handler                 ; Hit handler
0235 CDD2 0001            data 1                          ; Lethal
0236               sprite_type_plane_up:
0237 CDD4 0018            data sprite_type_index_plane_up
0238 CDD6 35D8            data plane_handler
0239 CDD8 0000            data no_handler                 ; Hit handler
0240 CDDA 0000            data 0                          ; Lethal
0241               sprite_type_plane_down:
0242 CDDC 0019            data sprite_type_index_plane_down
0243 CDDE 35D8            data plane_handler
0244 CDE0 0000            data no_handler                 ; Hit handler
0245 CDE2 0000            data 0                          ; Lethal
0246               sprite_type_plane_m:
0247 CDE4 001A            data sprite_type_index_plane_m
0248 CDE6 35D8            data plane_handler
0249 CDE8 0000            data no_handler                 ; Hit handler
0250 CDEA 0000            data 0                          ; Lethal
0251               sprite_type_plane_s:
0252 CDEC 001B            data sprite_type_index_plane_s
0253 CDEE 35D8            data plane_handler
0254 CDF0 0000            data no_handler                 ; Hit handler
0255 CDF2 0000            data 0                          ; Lethal
0256               sprite_type_plane_xs:
0257 CDF4 001C            data sprite_type_index_plane_xs
0258 CDF6 35D8            data plane_handler
0259 CDF8 0000            data no_handler                 ; Hit handler
0260 CDFA 0000            data 0                          ; Lethal
0261               sprite_type_plane_up_m:
0262 CDFC 001D            data sprite_type_index_plane_up_m
0263 CDFE 35D8            data plane_handler
0264 CE00 0000            data no_handler                 ; Hit handler
0265 CE02 0000            data 0                          ; Lethal
0266               sprite_type_plane_up_s:
0267 CE04 001E            data sprite_type_index_plane_up_s
0268 CE06 35D8            data plane_handler
0269 CE08 0000            data no_handler                 ; Hit handler
0270 CE0A 0000            data 0                          ; Lethal
0271               sprite_type_plane_up_xs:
0272 CE0C 001F            data sprite_type_index_plane_up_xs
0273 CE0E 35D8            data plane_handler
0274 CE10 0000            data no_handler                 ; Hit handler
0275 CE12 0000            data 0                          ; Lethal
0276               sprite_type_plane_down_m:
0277 CE14 0020            data sprite_type_index_plane_down_m
0278 CE16 35D8            data plane_handler
0279 CE18 0000            data no_handler                 ; Hit handler
0280 CE1A 0000            data 0                          ; Lethal
0281               sprite_type_plane_down_s:
0282 CE1C 0021            data sprite_type_index_plane_down_s
0283 CE1E 35D8            data plane_handler
0284 CE20 0000            data no_handler                 ; Hit handler
0285 CE22 0000            data 0                          ; Lethal
0286               sprite_type_plane_down_xs:
0287 CE24 0022            data sprite_type_index_plane_down_xs
0288 CE26 35D8            data plane_handler
0289 CE28 0000            data no_handler                 ; Hit handler
0290 CE2A 0000            data 0                          ; Lethal
0291               sprite_type_blue_plane_up_l:
0292 CE2C 0023            data sprite_type_index_blue_plane_up_l
0293 CE2E 385A            data blue_plane_handler
0294 CE30 3B42            data small_explode_hit_handler  ; Hit handler
0295 CE32 0001            data 1                          ; Lethal
0296               sprite_type_blue_plane_up_m:
0297 CE34 0024            data sprite_type_index_blue_plane_up_m
0298 CE36 385A            data blue_plane_handler
0299 CE38 3B42            data small_explode_hit_handler  ; Hit handler
0300 CE3A 0001            data 1                          ; Lethal
0301               sprite_type_blue_plane_up_s:
0302 CE3C 0025            data sprite_type_index_blue_plane_up_s
0303 CE3E 385A            data blue_plane_handler
0304 CE40 3B42            data small_explode_hit_handler  ; Hit handler
0305 CE42 0001            data 1                          ; Lethal
0306               sprite_type_blue_plane_up_xs:
0307 CE44 0026            data sprite_type_index_blue_plane_up_xs
0308 CE46 385A            data blue_plane_handler
0309 CE48 3B42            data small_explode_hit_handler  ; Hit handler
0310 CE4A 0001            data 1                          ; Lethal
0311               sprite_type_blue_plane_down_l:
0312 CE4C 0027            data sprite_type_index_blue_plane_down_l
0313 CE4E 385A            data blue_plane_handler
0314 CE50 3B42            data small_explode_hit_handler  ; Hit handler
0315 CE52 0001            data 1                          ; Lethal
0316               sprite_type_blue_plane_down_m:
0317 CE54 0028            data sprite_type_index_blue_plane_down_m
0318 CE56 385A            data blue_plane_handler
0319 CE58 3B42            data small_explode_hit_handler  ; Hit handler
0320 CE5A 0001            data 1                          ; Lethal
0321               sprite_type_blue_plane_down_s:
0322 CE5C 0029            data sprite_type_index_blue_plane_down_s
0323 CE5E 385A            data blue_plane_handler
0324 CE60 3B42            data small_explode_hit_handler  ; Hit handler
0325 CE62 0001            data 1                          ; Lethal
0326               sprite_type_blue_plane_down_xs:
0327 CE64 002A            data sprite_type_index_blue_plane_down_xs
0328 CE66 385A            data blue_plane_handler
0329 CE68 3B42            data small_explode_hit_handler  ; Hit handler
0330 CE6A 0001            data 1                          ; Lethal
0331               sprite_type_boss:
0332 CE6C 002B            data sprite_type_index_boss
0333 CE6E 38D6            data boss_handler
0334 CE70 3B76            data boss_hit_handler           ; Hit handler
0335 CE72 0001            data 1                          ; Lethal
0336               sprite_type_boss_rocket_launcher:
0337 CE74 002C            data sprite_type_index_boss_rocket_launcher
0338 CE76 3960            data boss_rocket_launcher_handler
0339 CE78 3B76            data boss_hit_handler           ; Hit handler
0340 CE7A 0001            data 1                          ; Lethal
0341               sprite_type_boss_shadow:
0342 CE7C 002D            data sprite_type_index_boss_shadow
0343 CE7E 394E            data boss_shadow_handler
0344 CE80 0000            data no_handler                 ; Hit handler
0345 CE82 0000            data 0                          ; Lethal
0346               sprite_type_red_rocket_1:
0347 CE84 002E            data sprite_type_index_red_rocket_1
0348 CE86 3984            data red_rocket_handler
0349 CE88 0000            data no_handler                 ; Hit handler
0350 CE8A 0001            data 1                          ; Lethal
0351               sprite_type_red_rocket_2:
0352 CE8C 002F            data sprite_type_index_red_rocket_2
0353 CE8E 3984            data red_rocket_handler
0354 CE90 3B84            data red_rocket_hit_handler     ; Hit handler
0355 CE92 0001            data 1                          ; Lethal
0356               sprite_type_red_bullet_2:
0357 CE94 0030            data sprite_type_index_red_bullet_2
0358 CE96 3852            data red_bullet_2_handler
0359 CE98 0000            data no_handler                 ; Hit handler
0360 CE9A 0001            data 1                          ; Lethal
0361               sprite_type_player_explosion_center:
0362 CE9C 0011            data sprite_type_index_small_explosion
0363 CE9E 3A20            data player_explosion_center_handler
0364 CEA0 0000            data no_handler                 ; Hit handler
0365 CEA2 0000            data 0                          ; Lethal
0366               sprite_type_player_explosion:
0367 CEA4 0011            data sprite_type_index_small_explosion
0368 CEA6 3A70            data player_explosion_handler
0369 CEA8 0000            data no_handler                 ; Hit handler
0370 CEAA 0000            data 0                          ; Lethal
0371               sprite_type_satellite:
0372 CEAC 0031            data sprite_type_index_satellite
0373 CEAE 3ADA            data satellite_handler
0374 CEB0 3B42            data small_explode_hit_handler  ; Hit handler
0375 CEB2 0001            data 1                          ; Lethal
**** **** ****     > zqx-one.a99
1972                      copy "sprite-defs.a99"
**** **** ****     > sprite-defs.a99
0001               sprite_def_scroll_x:
0002                      equ  0
0003               sprite_def_x:
0004                      equ  2
0005               sprite_def_y:
0006                      equ  4
0007               sprite_def_z:
0008                      equ  6
0009               sprite_def_type:
0010                      equ  8
0011               sprite_def_size:
0012                      equ  10
0013               
0014               plane_def:
0015 CEB4 0000            data 0,player_start_x,isometric_center_y,64,sprite_type_plane
     CEB6 FFC0 
     CEB8 0080 
     CEBA 0040 
     CEBC CD14 
0016               shadow_def:
0017 CEBE 0000            data 0,player_start_x,isometric_center_y,0,sprite_type_shadow
     CEC0 FFC0 
     CEC2 0080 
     CEC4 0000 
     CEC6 CD1C 
0018               
0019               * sprite_def_scroll_x = sprite_def_x + sprite_def_y - 240 + (sprite_type_rocket_launch_1 ? 48 : 0)
0020               
0021               sprite_defs_0:
0022 CEC8 ....            bss  sub_level_0_sprites*sprite_def_size    ; Initialized dynamically
0023               *      End of list
0024 CF68 7FFF            data >7fff,0,0,0
     CF6A 0000 
     CF6C 0000 
     CF6E 0000 
0025               
0026               sprite_defs_1:
0027 CF70 003C            data 60,228,72,56,sprite_type_wall_left
     CF72 00E4 
     CF74 0048 
     CF76 0038 
     CF78 CD7C 
0028 CF7A 009C            data 156,228,168,56,sprite_type_wall_right
     CF7C 00E4 
     CF7E 00A8 
     CF80 0038 
     CF82 CD84 
0029 CF84 00FC            data 252,418,74,0,sprite_type_blue_gun
     CF86 01A2 
     CF88 004A 
     CF8A 0000 
     CF8C CD34 
0030 CF8E 0110            data 272,354,110,0,sprite_type_rocket_launch_1
     CF90 0162 
     CF92 006E 
     CF94 0000 
     CF96 CD64 
0031 CF98 0120            data 288,356,172,0,sprite_type_radar
     CF9A 0164 
     CF9C 00AC 
     CF9E 0000 
     CFA0 CD2C 
0032 CFA2 0143            data 323,388,175,0,sprite_type_green_gun
     CFA4 0184 
     CFA6 00AF 
     CFA8 0000 
     CFAA CD3C 
0033 CFAC 0166            data 358,472,78,0,sprite_type_rocket_launch_1
     CFAE 01D8 
     CFB0 004E 
     CFB2 0000 
     CFB4 CD64 
0034 CFB6 0170            data 368,528,80,0,sprite_type_silo
     CFB8 0210 
     CFBA 0050 
     CFBC 0000 
     CFBE CD24 
0035 CFC0 0180            data 384,504,120,0,sprite_type_silo
     CFC2 01F8 
     CFC4 0078 
     CFC6 0000 
     CFC8 CD24 
0036 CFCA 01D2            data 466,490,168,0,sprite_type_rocket_launch_1
     CFCC 01EA 
     CFCE 00A8 
     CFD0 0000 
     CFD2 CD64 
0037 CFD4 01DC            data 476,548,168,0,sprite_type_silo
     CFD6 0224 
     CFD8 00A8 
     CFDA 0000 
     CFDC CD24 
0038 CFDE 01DC            data 476,596,120,8,sprite_type_wall_right
     CFE0 0254 
     CFE2 0078 
     CFE4 0008 
     CFE6 CD84 
0039 CFE8 01F4            data 500,596,144,8,sprite_type_wall_right
     CFEA 0254 
     CFEC 0090 
     CFEE 0008 
     CFF0 CD84 
0040 CFF2 020C            data 524,640,124,0,sprite_type_green_gun
     CFF4 0280 
     CFF6 007C 
     CFF8 0000 
     CFFA CD3C 
0041 CFFC 020C            data 524,596,168,8,sprite_type_wall_right
     CFFE 0254 
     D000 00A8 
     D002 0008 
     D004 CD84 
0042 D006 021E            data 542,664,70,0,sprite_type_rocket_launch_1
     D008 0298 
     D00A 0046 
     D00C 0000 
     D00E CD64 
0043 D010 024C            data 588,748,80,0,sprite_type_silo
     D012 02EC 
     D014 0050 
     D016 0000 
     D018 CD24 
0044 D01A 0260            data 608,658,142,0,sprite_type_rocket_launch_1
     D01C 0292 
     D01E 008E 
     D020 0000 
     D022 CD64 
0045 D024 0276            data 630,698,172,0,sprite_type_silo
     D026 02BA 
     D028 00AC 
     D02A 0000 
     D02C CD24 
0046 D02E 0297            data 663,728,175,0,sprite_type_green_gun
     D030 02D8 
     D032 00AF 
     D034 0000 
     D036 CD3C 
0047 D038 02A2            data 674,810,104,0,sprite_type_silo
     D03A 032A 
     D03C 0068 
     D03E 0000 
     D040 CD24 
0048 D042 02AE            data 686,777,101,0,sprite_type_rocket_launch_1
     D044 0309 
     D046 0065 
     D048 0000 
     D04A CD64 
0049 D04C 02E0            data 736,844,132,0,sprite_type_blue_gun
     D04E 034C 
     D050 0084 
     D052 0000 
     D054 CD34 
0050 D056 0300            data 768,934,74,0,sprite_type_silo
     D058 03A6 
     D05A 004A 
     D05C 0000 
     D05E CD24 
0051 D060 0306            data 774,844,170,0,sprite_type_blue_gun
     D062 034C 
     D064 00AA 
     D066 0000 
     D068 CD34 
0052 D06A 0313            data 787,905,74,0,sprite_type_rocket_launch_1
     D06C 0389 
     D06E 004A 
     D070 0000 
     D072 CD64 
0053 D074 033C            data 828,996,72,8,sprite_type_wall_right
     D076 03E4 
     D078 0048 
     D07A 0008 
     D07C CD84 
0054 D07E 0352            data 850,873,169,0,sprite_type_rocket_launch_1
     D080 0369 
     D082 00A9 
     D084 0000 
     D086 CD64 
0055 D088 0354            data 852,996,96,8,sprite_type_wall_right
     D08A 03E4 
     D08C 0060 
     D08E 0008 
     D090 CD84 
0056 D092 036C            data 876,996,120,8,sprite_type_wall_left
     D094 03E4 
     D096 0078 
     D098 0008 
     D09A CD7C 
0057 D09C 0398            data 920,1008,152,0,sprite_type_blue_gun
     D09E 03F0 
     D0A0 0098 
     D0A2 0000 
     D0A4 CD34 
0058 D0A6 03B6            data 950,1056,86,0,sprite_type_rocket_launch_1
     D0A8 0420 
     D0AA 0056 
     D0AC 0000 
     D0AE CD64 
0059 D0B0 03E3            data 995,1168,67,0,sprite_type_blue_gun
     D0B2 0490 
     D0B4 0043 
     D0B6 0000 
     D0B8 CD34 
0060 D0BA 03F0            data 1008,1026,174,0,sprite_type_rocket_launch_1
     D0BC 0402 
     D0BE 00AE 
     D0C0 0000 
     D0C2 CD64 
0061 D0C4 0432            data 1074,1220,94,0,sprite_type_blue_plane
     D0C6 04C4 
     D0C8 005E 
     D0CA 0000 
     D0CC CD4C 
0062 D0CE 0437            data 1079,1172,147,0,sprite_type_blue_plane
     D0D0 0494 
     D0D2 0093 
     D0D4 0000 
     D0D6 CD4C 
0063 D0D8 044C            data 1100,1140,152,0,sprite_type_rocket_launch_1
     D0DA 0474 
     D0DC 0098 
     D0DE 0000 
     D0E0 CD64 
0064 D0E2 0474            data 1140,1308,72,8,sprite_type_shield
     D0E4 051C 
     D0E6 0048 
     D0E8 0008 
     D0EA CD74 
0065 D0EC 0476            data 1142,1212,122,0,sprite_type_rocket_launch_1
     D0EE 04BC 
     D0F0 007A 
     D0F2 0000 
     D0F4 CD64 
0066 D0F6 0478            data 1144,1228,156,0,sprite_type_silo
     D0F8 04CC 
     D0FA 009C 
     D0FC 0000 
     D0FE CD24 
0067 D100 04A0            data 1184,1296,128,0,sprite_type_silo
     D102 0510 
     D104 0080 
     D106 0000 
     D108 CD24 
0068 D10A 04C4            data 1220,1290,170,0,sprite_type_blue_gun
     D10C 050A 
     D10E 00AA 
     D110 0000 
     D112 CD34 
0069 D114 04CE            data 1230,1410,60,0,sprite_type_green_gun_2
     D116 0582 
     D118 003C 
     D11A 0000 
     D11C CD44 
0070 D11E 04D8            data 1240,1380,100,0,sprite_type_radar
     D120 0564 
     D122 0064 
     D124 0000 
     D126 CD2C 
0071 D128 0528            data 1320,1442,70,0,sprite_type_rocket_launch_1
     D12A 05A2 
     D12C 0046 
     D12E 0000 
     D130 CD64 
0072 D132 0536            data 1334,1514,60,0,sprite_type_green_gun_2
     D134 05EA 
     D136 003C 
     D138 0000 
     D13A CD44 
0073 D13C 0540            data 1344,1458,126,0,sprite_type_silo
     D13E 05B2 
     D140 007E 
     D142 0000 
     D144 CD24 
0074 D146 054A            data 1354,1394,152,0,sprite_type_rocket_launch_1
     D148 0572 
     D14A 0098 
     D14C 0000 
     D14E CD64 
0075 D150 0578            data 1400,1550,90,0,sprite_type_blue_plane
     D152 060E 
     D154 005A 
     D156 0000 
     D158 CD4C 
0076 D15A 0588            data 1416,1514,94,0,sprite_type_rocket_launch_1
     D15C 05EA 
     D15E 005E 
     D160 0000 
     D162 CD64 
0077 D164 05AA            data 1450,1620,70,0,sprite_type_blue_plane
     D166 0654 
     D168 0046 
     D16A 0000 
     D16C CD4C 
0078 D16E 05C2            data 1474,1515,151,0,sprite_type_rocket_launch_1
     D170 05EB 
     D172 0097 
     D174 0000 
     D176 CD64 
0079 D178 05CE            data 1486,1634,92,0,sprite_type_blue_plane
     D17A 0662 
     D17C 005C 
     D17E 0000 
     D180 CD4C 
0080 D182 05D2            data 1490,1558,172,0,sprite_type_blue_gun
     D184 0616 
     D186 00AC 
     D188 0000 
     D18A CD34 
0081 D18C 0612            data 1554,1646,148,0,sprite_type_silo
     D18E 066E 
     D190 0094 
     D192 0000 
     D194 CD24 
0082 D196 063C            data 1596,1764,72,56,sprite_type_wall_left
     D198 06E4 
     D19A 0048 
     D19C 0038 
     D19E CD7C 
0083 D1A0 0654            data 1620,1722,90,0,sprite_type_rocket_launch_1
     D1A2 06BA 
     D1A4 005A 
     D1A6 0000 
     D1A8 CD64 
0084 D1AA 065C            data 1628,1732,136,0,sprite_type_silo
     D1AC 06C4 
     D1AE 0088 
     D1B0 0000 
     D1B2 CD24 
0085 D1B4 0670            data 1648,1698,142,0,sprite_type_rocket_launch_1
     D1B6 06A2 
     D1B8 008E 
     D1BA 0000 
     D1BC CD64 
0086 D1BE 0678            data 1656,1732,164,0,sprite_type_radar
     D1C0 06C4 
     D1C2 00A4 
     D1C4 0000 
     D1C6 CD2C 
0087 D1C8 069C            data 1692,1764,168,56,sprite_type_wall_right
     D1CA 06E4 
     D1CC 00A8 
     D1CE 0038 
     D1D0 CD84 
0088               *      End of list
0089 D1D2 7FFF            data >7fff,0,0,0
     D1D4 0000 
     D1D6 0000 
     D1D8 0000 
0090               
0091               boss_scroll_x:
0092                      equ  map_2_width*8-1
0093               boss_start_x:
0094                      equ  2400
0095               
0096               sprite_defs_2:
0097 D1DA 003C            data 60,228,72,56,sprite_type_wall_left
     D1DC 00E4 
     D1DE 0048 
     D1E0 0038 
     D1E2 CD7C 
0098 D1E4 009C            data 156,228,168,56,sprite_type_wall_right
     D1E6 00E4 
     D1E8 00A8 
     D1EA 0038 
     D1EC CD84 
0099 D1EE 00CE            data 206,336,110,0,sprite_type_silo
     D1F0 0150 
     D1F2 006E 
     D1F4 0000 
     D1F6 CD24 
0100 D1F8 0109            data 265,427,78,0,sprite_type_blue_gun
     D1FA 01AB 
     D1FC 004E 
     D1FE 0000 
     D200 CD34 
0101 D202 0122            data 290,370,160,0,sprite_type_green_gun
     D204 0172 
     D206 00A0 
     D208 0000 
     D20A CD3C 
0102 D20C 0134            data 308,420,128,0,sprite_type_silo
     D20E 01A4 
     D210 0080 
     D212 0000 
     D214 CD24 
0103 D216 013A            data 314,482,72,40,sprite_type_shield
     D218 01E2 
     D21A 0048 
     D21C 0028 
     D21E CD74 
0104 D220 013A            data 314,482,72,56,sprite_type_shield
     D222 01E2 
     D224 0048 
     D226 0038 
     D228 CD74 
0105 D22A 013C            data 316,484,72,24,sprite_type_wall_left
     D22C 01E4 
     D22E 0048 
     D230 0018 
     D232 CD7C 
0106 D234 0154            data 340,420,160,0,sprite_type_radar
     D236 01A4 
     D238 00A0 
     D23A 0000 
     D23C CD2C 
0107 D23E 01F0            data 496,622,114,0,sprite_type_silo
     D240 026E 
     D242 0072 
     D244 0000 
     D246 CD24 
0108 D248 0216            data 534,660,114,0,sprite_type_silo
     D24A 0294 
     D24C 0072 
     D24E 0000 
     D250 CD24 
0109 D252 0224            data 548,704,84,0,sprite_type_blue_gun
     D254 02C0 
     D256 0054 
     D258 0000 
     D25A CD34 
0110 D25C 023A            data 570,696,114,0,sprite_type_silo
     D25E 02B8 
     D260 0072 
     D262 0000 
     D264 CD24 
0111 D266 024A            data 586,754,72,56,sprite_type_shield
     D268 02F2 
     D26A 0048 
     D26C 0038 
     D26E CD74 
0112 D270 024C            data 588,756,72,40,sprite_type_wall_left
     D272 02F4 
     D274 0048 
     D276 0028 
     D278 CD7C 
0113 D27A 025C            data 604,704,140,0,sprite_type_blue_gun
     D27C 02C0 
     D27E 008C 
     D280 0000 
     D282 CD34 
0114 D284 02D0            data 720,868,92,0,sprite_type_silo
     D286 0364 
     D288 005C 
     D28A 0000 
     D28C CD24 
0115 D28E 02F0            data 752,872,120,0,sprite_type_silo
     D290 0368 
     D292 0078 
     D294 0000 
     D296 CD24 
0116 D298 0318            data 792,888,144,0,sprite_type_silo
     D29A 0378 
     D29C 0090 
     D29E 0000 
     D2A0 CD24 
0117 D2A2 0332            data 818,986,72,24,sprite_type_shield
     D2A4 03DA 
     D2A6 0048 
     D2A8 0018 
     D2AA CD74 
0118 D2AC 0332            data 818,986,72,40,sprite_type_shield
     D2AE 03DA 
     D2B0 0048 
     D2B2 0028 
     D2B4 CD74 
0119 D2B6 0332            data 818,986,72,56,sprite_type_shield
     D2B8 03DA 
     D2BA 0048 
     D2BC 0038 
     D2BE CD74 
0120 D2C0 0334            data 820,988,72,8,sprite_type_wall_left
     D2C2 03DC 
     D2C4 0048 
     D2C6 0008 
     D2C8 CD7C 
0121 D2CA 0346            data 838,918,160,0,sprite_type_green_gun
     D2CC 0396 
     D2CE 00A0 
     D2D0 0000 
     D2D2 CD3C 
0122 D2D4 0386            data 902,1064,78,0,sprite_type_green_gun_2
     D2D6 0428 
     D2D8 004E 
     D2DA 0000 
     D2DC CD44 
0123 D2DE 03C4            data 964,1122,82,0,sprite_type_silo
     D2E0 0462 
     D2E2 0052 
     D2E4 0000 
     D2E6 CD24 
0124 D2E8 03F7            data 1015,1087,168,0,sprite_type_green_gun
     D2EA 043F 
     D2EC 00A8 
     D2EE 0000 
     D2F0 CD3C 
0125 D2F2 040C            data 1036,1169,107,0,sprite_type_silo
     D2F4 0491 
     D2F6 006B 
     D2F8 0000 
     D2FA CD24 
0126 D2FC 0430            data 1072,1144,168,0,sprite_type_radar
     D2FE 0478 
     D300 00A8 
     D302 0000 
     D304 CD2C 
0127 D306 043A            data 1082,1250,72,40,sprite_type_shield
     D308 04E2 
     D30A 0048 
     D30C 0028 
     D30E CD74 
0128 D310 043A            data 1082,1250,72,56,sprite_type_shield
     D312 04E2 
     D314 0048 
     D316 0038 
     D318 CD74 
0129 D31A 043C            data 1084,1252,72,24,sprite_type_wall_left
     D31C 04E4 
     D31E 0048 
     D320 0018 
     D322 CD7C 
0130 D324 0445            data 1093,1204,129,0,sprite_type_blue_gun
     D326 04B4 
     D328 0081 
     D32A 0000 
     D32C CD34 
0131 D32E 0499            data 1177,1335,82,0,sprite_type_silo
     D330 0537 
     D332 0052 
     D334 0000 
     D336 CD24 
0132 D338 0520            data 1312,1473,79,0,sprite_type_blue_gun
     D33A 05C1 
     D33C 004F 
     D33E 0000 
     D340 CD34 
0133 D342 0520            data 1312,1428,124,0,sprite_type_silo
     D344 0594 
     D346 007C 
     D348 0000 
     D34A CD24 
0134 D34C 0538            data 1336,1467,109,0,sprite_type_silo
     D34E 05BB 
     D350 006D 
     D352 0000 
     D354 CD24 
0135 D356 0538            data 1336,1467,139,0,sprite_type_silo
     D358 05BB 
     D35A 008B 
     D35C 0000 
     D35E CD24 
0136 D360 054A            data 1354,1522,72,56,sprite_type_shield
     D362 05F2 
     D364 0048 
     D366 0038 
     D368 CD74 
0137 D36A 054C            data 1356,1524,72,40,sprite_type_wall_left
     D36C 05F4 
     D36E 0048 
     D370 0028 
     D372 CD7C 
0138 D374 05A4            data 1444,1606,78,0,sprite_type_green_gun_2
     D376 0646 
     D378 004E 
     D37A 0000 
     D37C CD44 
0139 D37E 0611            data 1553,1701,92,0,sprite_type_silo
     D380 06A5 
     D382 005C 
     D384 0000 
     D386 CD24 
0140 D388 0618            data 1560,1682,118,0,sprite_type_blue_gun
     D38A 0692 
     D38C 0076 
     D38E 0000 
     D390 CD34 
0141 D392 0632            data 1586,1754,72,24,sprite_type_shield
     D394 06DA 
     D396 0048 
     D398 0018 
     D39A CD74 
0142 D39C 0632            data 1586,1754,72,40,sprite_type_shield
     D39E 06DA 
     D3A0 0048 
     D3A2 0028 
     D3A4 CD74 
0143 D3A6 0632            data 1586,1754,72,56,sprite_type_shield
     D3A8 06DA 
     D3AA 0048 
     D3AC 0038 
     D3AE CD74 
0144 D3B0 0634            data 1588,1756,72,8,sprite_type_wall_left
     D3B2 06DC 
     D3B4 0048 
     D3B6 0008 
     D3B8 CD7C 
0145 D3BA 064A            data 1610,1700,150,0,sprite_type_radar
     D3BC 06A4 
     D3BE 0096 
     D3C0 0000 
     D3C2 CD2C 
0146 D3C4 06A9            data 1705,1847,98,0,sprite_type_silo
     D3C6 0737 
     D3C8 0062 
     D3CA 0000 
     D3CC CD24 
0147 D3CE 06C9            data 1737,1879,98,0,sprite_type_silo
     D3D0 0757 
     D3D2 0062 
     D3D4 0000 
     D3D6 CD24 
0148 D3D8 06EB            data 1771,1935,76,0,sprite_type_green_gun_2
     D3DA 078F 
     D3DC 004C 
     D3DE 0000 
     D3E0 CD44 
0149 D3E2 0715            data 1813,1964,89,0,sprite_type_silo
     D3E4 07AC 
     D3E6 0059 
     D3E8 0000 
     D3EA CD24 
0150 D3EC 0738            data 1848,2018,72,40,sprite_type_shield
     D3EE 07E2 
     D3F0 0048 
     D3F2 0028 
     D3F4 CD74 
0151 D3F6 0738            data 1848,2018,72,56,sprite_type_shield
     D3F8 07E2 
     D3FA 0048 
     D3FC 0038 
     D3FE CD74 
0152 D400 073A            data 1850,2020,72,24,sprite_type_wall_left
     D402 07E4 
     D404 0048 
     D406 0018 
     D408 CD7C 
0153 D40A 074E            data 1870,1960,150,0,sprite_type_blue_gun
     D40C 07A8 
     D40E 0096 
     D410 0000 
     D412 CD34 
0154 D414 0794            data 1940,2096,84,0,sprite_type_silo
     D416 0830 
     D418 0054 
     D41A 0000 
     D41C CD24 
0155 D41E 07B1            data 1969,2101,108,0,sprite_type_silo
     D420 0835 
     D422 006C 
     D424 0000 
     D426 CD24 
0156 D428 07D4            data 2004,2160,84,0,sprite_type_silo
     D42A 0870 
     D42C 0054 
     D42E 0000 
     D430 CD24 
0157 D432 08FF            data boss_scroll_x,boss_start_x,128,8,sprite_type_boss
     D434 0960 
     D436 0080 
     D438 0008 
     D43A CE6C 
0158 D43C 08FF            data boss_scroll_x,boss_start_x,128,0,sprite_type_boss_shadow
     D43E 0960 
     D440 0080 
     D442 0000 
     D444 CE7C 
0159 D446 08FF            data boss_scroll_x,boss_start_x,150,42,sprite_type_boss_rocket_launcher
     D448 0960 
     D44A 0096 
     D44C 002A 
     D44E CE74 
0160 D450 08FF            data boss_scroll_x,boss_start_x-4,146,38,sprite_type_red_rocket_1
     D452 095C 
     D454 0092 
     D456 0026 
     D458 CE84 
0161               *      End of list
0162 D45A 7FFF            data >7fff,0,0,0
     D45C 0000 
     D45E 0000 
     D460 0000 
0163               
**** **** ****     > zqx-one.a99
1973                      copy "sprites.a99"
**** **** ****     > sprites.a99
0001               sprite_type:
0002                      equ  0
0003               sprite_y:
0004                      equ  2
0005               sprite_x:
0006                      equ  4
0007               sprite_z:
0008                      equ  6
0009               sprite_counter:
0010                      equ  8
0011               sprite_size:
0012                      equ  10
0013               
0014               sprites:
0015 D462 ....            bss  sprite_size*max_sprites
0016               
**** **** ****     > zqx-one.a99
1974                      copy "palettes.a99"
**** **** ****     > palettes.a99
0001               sprite_palettes:
0002                      equ  $
0003 D516 00D0     PAL2   DATA >00D0,>0DD0,>0D0F,>0D90    ;
     D518 0DD0 
     D51A 0D0F 
     D51C 0D90 
0004 D51E 00DF            DATA >00DF,>0D00,>0000,>0FFF    ;
     D520 0D00 
     D522 0000 
     D524 0FFF 
0005 D526 0CEF     PAL3   DATA >0CEF,>0000,>00D0,>09D0    ;
     D528 0000 
     D52A 00D0 
     D52C 09D0 
0006 D52E 0090            DATA >0090,>0D90,>0D00,>0000    ;
     D530 0D90 
     D532 0D00 
     D534 0000 
0007 D536 0CEF     PAL4   DATA >0CEF,>0B00,>0900,>0DDF    ;
     D538 0B00 
     D53A 0900 
     D53C 0DDF 
0008 D53E 0000            DATA >0000,>099A,>0D90,>0D40    ;
     D540 099A 
     D542 0D90 
     D544 0D40 
0009 D546 0CEF     PAL5   DATA >0CEF,>09BF,>069A,>0000    ;
     D548 09BF 
     D54A 069A 
     D54C 0000 
0010 D54E 066A            DATA >066A,>099A,>009F,>0DDF    ;
     D550 099A 
     D552 009F 
     D554 0DDF 
0011 D556 0CEF     PAL6   DATA >0CEF,>099A,>09BA,>0000    ;
     D558 099A 
     D55A 09BA 
     D55C 0000 
0012 D55E 049A            DATA >049A,>0DDF,>0244,>0000    ;
     D560 0DDF 
     D562 0244 
     D564 0000 
0013 D566 0CEF     PAL7   DATA >0CEF,>09D0,>0DD0,>00D0    ;
     D568 09D0 
     D56A 0DD0 
     D56C 00D0 
0014 D56E 069A            DATA >069A,>099A,>0090,>0D40    ;
     D570 099A 
     D572 0090 
     D574 0D40 
0015               
0016               char_palettes_0:
0017                      equ  $
0018 D576 0000     PAL00  DATA >0000,>0900,>009F,>000F    ;
     D578 0900 
     D57A 009F 
     D57C 000F 
0019 D57E 066F            DATA >066F,>000A,>040A,>0000    ;
     D580 000A 
     D582 040A 
     D584 0000 
0020 D586 0000     PAL01  DATA >0000,>0000,>0000,>0000    ;
     D588 0000 
     D58A 0000 
     D58C 0000 
0021 D58E 0000            DATA >0000,>0000,>0000,>0000    ;
     D590 0000 
     D592 0000 
     D594 0000 
0022               
0023               char_palettes_1:
0024                      equ  $
0025 D596 0000     PAL10  DATA >0000,>0DDF,>09BA,>099A    ;
     D598 0DDF 
     D59A 09BA 
     D59C 099A 
0026 D59E 0004            DATA >0004,>000A,>0DD0,>049A    ;
     D5A0 000A 
     D5A2 0DD0 
     D5A4 049A 
0027 D5A6 0000     PAL11  DATA >0000,>099A,>09BA,>0004    ;
     D5A8 099A 
     D5AA 09BA 
     D5AC 0004 
0028 D5AE 000A            DATA >000A,>0DD0,>049A,>009F    ;
     D5B0 0DD0 
     D5B2 049A 
     D5B4 009F 
0029               
0030               char_palettes_2:
0031                      equ  $
0032 D5B6 0000     PAL20  DATA >0000,>0DDF,>09BA,>099A    ;
     D5B8 0DDF 
     D5BA 09BA 
     D5BC 099A 
0033 D5BE 0004            DATA >0004,>000A,>049A,>009F    ;
     D5C0 000A 
     D5C2 049A 
     D5C4 009F 
0034 D5C6 0000     PAL21  DATA >0000,>0B0A,>000A,>049A    ;
     D5C8 0B0A 
     D5CA 000A 
     D5CC 049A 
0035 D5CE 000F            DATA >000F,>0000,>0000,>0000    ;
     D5D0 0000 
     D5D2 0000 
     D5D4 0000 
0036               
**** **** ****     > zqx-one.a99
1975                      copy "text.a99"
**** **** ****     > text.a99
0001               txt_zqx_one:
0002 D5D6 ....            text "ZQX-ONE"
0003                      byte 0
0004               txt_version:
0005 D5DE ....            text "VERSION 0.1"
0006                      byte 0
0007               txt_high_scores:
0008 D5EA ....            text "HIGH SCORES"
0009                      byte 0
0010               txt_press_fire_to_start:
0011 D5F6 ....            text "PRESS FIRE TO START"
0012                      byte 0
0013               txt_congratulations:
0014 D60A ....            text "CONGRATULATIONS /"
0015                      byte 0
0016               txt_you_get_bonus:
0017 D61C ....            text "YOU GET BONUS "
0018 D62A 0020            byte 0
0019               txt_200_pts:
0020 D62B ....            text " 200 PTS."
0021 D634 0031            byte 0
0022               txt_1000_pts:
0023 D635 ....            text "1000 PTS."
0024 D63E 0047            byte 0
0025               txt_good:
0026 D63F ....            text "GOOD /"
0027                      byte 0
0028               txt_very_good:
0029 D646 ....            text "VERY GOOD /"
0030                      byte 0
0031               txt_game_over:
0032 D652 ....            text "GAME  OVER"
0033 D65C 0000            byte 0
0034               
0035                      even
0036               
**** **** ****     > zqx-one.a99
1976               *      Scores are automatically multiplied by 10
1977               high_scores:
1978 D65E 037A            data 890
1979 D660 02E4            data 740
1980 D662 0294            data 660
1981 D664 01FE            data 510
1982 D666 01AE            data 430
1983 D668 0172            data 370
1984               upper_memory_max:
1985                      equ  $
1986               
1987               ***************************************************************
1988               
1989                      end

    A#1................. >03C0 :     
    A#2................. >01E0 :     
    A#3................. >00F0 :     
    A#4................. >0078 :     
    A#5................. >003C :     
    A#6................. >001E :     
    A1.................. >03F9 :     
    A2.................. >01FC :     
    A3.................. >00FE :     
    A4.................. >007F :     
    A5.................. >0040 :     
    A6.................. >0020 :     
    ADD_SCORE........... >2B90 :     
    ADD_SCORE_1......... >2BBC :     
    ALIGN_SPRITES....... >259C :     
    ALLOCATE_SPRITE..... >2564 :     
    ALLOCATE_SPRITE_1... >256A :     
    ALLOCATE_SPRITE_2... >257C :     
    ALLOCATE_SPRITE_3... >2586 :     
    ALLOCATE_SPRITE_4... >2596 :     
    B1.................. >038A :     
    B2.................. >01C5 :     
    B3.................. >00E2 :     
    B4.................. >0071 :     
    B5.................. >0039 :     
    B6.................. >001C :     
    BACKDROP_COLOR...... >0000 :     
    BLUE_GUN_HANDLER.... >37A8 :     
    BLUE_GUN_HANDLER_0.. >37DA :     
    BLUE_GUN_HANDLER_1.. >37E6 :     
    BLUE_PLANE_HANDLER.. >385A :     
    BLUE_PLANE_HANDLER_1 >3876 :     
    BLUE_PLANE_HANDLER_2 >387A :     
    BLUE_PLANE_HANDLER_3 >388A :     
    BLUE_PLANE_HANDLER_4 >388E :     
    BLUE_PLANE_HANDLER_5 >38C0 :     
    BLUE_PLANE_SPRITE_TYPES_DOWN >38CE :     
    BLUE_PLANE_SPRITE_TYPES_UP >38C6 :     
    BOSS_ACTIVE......... >8390 :     
    BOSS_BONUS.......... >8396 :     
    BOSS_BONUS_1000..... >0064 :     
    BOSS_BONUS_200...... >0014 :     
    BOSS_HANDLER........ >38D6 :     
    BOSS_HANDLER_1...... >3928 :     
    BOSS_HANDLER_2...... >393C :     
    BOSS_HANDLER_3...... >3948 :     
    BOSS_HANDLER_4...... >390C :     
    BOSS_HANDLER_5...... >38F8 :     
    BOSS_HANDLER_6...... >3912 :     
    BOSS_HANDLER_7...... >3922 :     
    BOSS_HIT_HANDLER.... >3B76 :     
    BOSS_ROCKET_HITS.... >8394 :     
    BOSS_ROCKET_LAUNCHER_HANDLER >3960 :     
    BOSS_SCROLL_X....... >08FF :     
    BOSS_SHADOW_HANDLER. >394E :     
    BOSS_SPRITE......... >8392 :     
    BOSS_START_X........ >0960 :     
    BOTTOM_SPRITES...... >4227 :     
    BULLET_COLLISIONS... >24B0 :     
    BULLET_COLLISIONS_1. >24BA :     
    BULLET_COLLISIONS_1A >24F0 :     
    BULLET_COLLISIONS_2. >24FA :     
    BULLET_COLLISIONS_3. >2506 :     
    BYTE_01............. >3AA8 :     
    BYTE_20............. >3AA9 :     
    C#1................. >0327 :     
    C#2................. >0194 :     
    C#3................. >00CA :     
    C#4................. >0065 :     
    C#5................. >0032 :     
    C#6................. >0019 :     
    C1.................. >0357 :     
    C2.................. >01AC :     
    C3.................. >00D6 :     
    C4.................. >006B :     
    C5.................. >0035 :     
    C6.................. >001B :     
    CHARS_TO_UPLOAD..... >8366 :     
    CHAR_DIFF_END....... >8364 :     
    CHAR_DIFF_PTR....... >8362 :     
    CHAR_FUEL........... >00EF :     
    CHAR_LIFE........... >00EB :     
    CHAR_MASK........... >00FA :     
    CHAR_PALETTES_0..... >D576 :     
    CHAR_PALETTES_1..... >D596 :     
    CHAR_PALETTES_2..... >D5B6 :     
    CHAR_PATTERNS_BANK_SELECT >836E :     
    CHAR_SPACE.......... >008C :     
    CHAR_SPACE_HIGH..... >00FF :     
    CHAR_ZERO........... >009C :     
    CHAR_ZERO_HIGH...... >00F0 :     
    CHECK_KEY........... >2BC2 :     
    CLEAR_FOR_INTRO..... >2D24 :     
    CLEAR_NAME_TABLE_AND_PATTERNS >28F4 :     
    CLEAR_TL2........... >2958 :     
    CLEAR_TL2_CENTER.... >2970 :     
    CLEAR_TL2_CENTER_1.. >297E :     
    CLEAR_TL2_CENTER_2.. >2986 :     
    CLEAR_VDP_RAM....... >288C :     
    CPU_WALLS_0......... >34D8 :     
    CPU_WALLS_1......... >34DA :     
    CPU_WALLS_2......... >34E4 :     
    CREATE_SPRITE....... >252E :     
    CREATE_SPRITES...... >250C :     
    CREATE_SPRITES_1.... >2512 :     
    CREATE_SPRITES_2.... >2524 :     
    CREATE_SPRITE_1..... >2538 :     
    CREATE_SPRITE_2..... >255E :     
    CURRENT_CHAR_ZERO... >8398 :     
    D#1................. >02CF :     
    D#2................. >0168 :     
    D#3................. >00B4 :     
    D#4................. >005A :     
    D#5................. >002D :     
    D#6................. >0016 :     
    D1.................. >02FA :     
    D10................. >2C2A :     
    D100................ >2C28 :     
    D1000............... >2C26 :     
    D10000.............. >2C24 :     
    D2.................. >017D :     
    D3.................. >00BE :     
    D4.................. >005F :     
    D5.................. >0030 :     
    D6.................. >0018 :     
    DEAD_LOOP........... >20DA :     
    DEAD_LOOP_1......... >20DC :     
    DEBRIS_HANDLER...... >3794 :     
    DEBRIS_HANDLER_1.... >37A6 :     
    DIFF_END_0.......... >A3FA :     
    DIFF_END_1.......... >AF58 :     
    DIFF_END_2.......... >BC8D :     
    DISPLAY_DECIMAL..... >2BFC :     
    DISPLAY_DECIMAL_1... >2C0A :     
    DISPLAY_DECIMAL_AT.. >2BE8 :     
    DISPLAY_FUEL........ >2642 :     
    DISPLAY_FUEL_1...... >2668 :     
    DISPLAY_FUEL_2...... >266E :     
    DISPLAY_FUEL_3...... >267C :     
    DISPLAY_FUEL_4...... >2682 :     
    DISPLAY_GAME_OVER... >2B6C :     
    DISPLAY_HEIGHT...... >25B0 :     
    DISPLAY_HEIGHT_1.... >25E4 :     
    DISPLAY_HEIGHT_2.... >25EA :     
    DISPLAY_HEIGHT_3.... >25F6 :     
    DISPLAY_HEIGHT_4.... >25FE :     
    DISPLAY_HEIGHT_5.... >2604 :     
    DISPLAY_HEIGHT_6.... >260C :     
    DISPLAY_HIGH_SCORE.. >2AB6 :     
    DISPLAY_HIGH_SCORES. >2E00 :     
    DISPLAY_HIGH_SCORES_1 >2E22 :     
    DISPLAY_INTRO....... >2CA4 :     
    DISPLAY_INTRO_1..... >2CA6 :     
    DISPLAY_INTRO_2..... >2D1A :     
    DISPLAY_INTRO_3..... >2D1E :     
    DISPLAY_LEVEL_COMPLETED >2AFC :     
    DISPLAY_LEVEL_COMPLETED_1 >2B3E :     
    DISPLAY_LEVEL_COMPLETED_2 >2B56 :     
    DISPLAY_LIVES....... >2ACE :     
    DISPLAY_LIVES_1..... >2AD8 :     
    DISPLAY_LIVES_2..... >2AE8 :     
    DISPLAY_LIVES_3..... >2AEC :     
    DISPLAY_SCORE....... >2688 :     
    DISPLAY_SCORE_1..... >26B8 :     
    DISPLAY_TEXT_AT..... >2C2C :     
    DISPLAY_TEXT_AT_1... >2C3A :     
    DISPLAY_TEXT_AT_2... >2C44 :     
    DISPLAY_TITLE....... >2DC0 :     
    DISPLAY_TITLE_1..... >2DCA :     
    DISPLAY_TITLE_2..... >2DF8 :     
    DISPLAY_TL2_GAME_LABELS >29E2 :     
    DISPLAY_TL2_GAME_LABELS_1 >29E8 :     
    DISPLAY_TL2_GAME_LABELS_2 >29F4 :     
    DISPLAY_TL2_GAME_LABELS_3 >29FC :     
    DISPLAY_TL2_MASK.... >28DC :     
    DRAW_COLUMN......... >2268 :     
    DRAW_COLUMN_0....... >22C6 :     
    DRAW_COLUMN_1....... >22CE :     
    DRAW_COLUMN_2....... >22EC :     
    DRAW_COLUMN_3....... >22F8 :     
    E1.................. >02A7 :     
    E2.................. >0153 :     
    E3.................. >00AA :     
    E4.................. >0055 :     
    E5.................. >002A :     
    E6.................. >0015 :     
    EXPLODE_HIT_HANDLER. >3B26 :     
    EXPLOSION_HANDLER... >3740 :     
    EXPLOSION_HANDLER_0. >376C :     
    EXPLOSION_HANDLER_1. >377A :     
    EXPLOSION_HANDLER_2. >3786 :     
    EXPLOSION_HANDLER_3. >378A :     
    EXTRA_LIFE_GIVEN.... >839C :     
    F#1................. >025D :     
    F#2................. >012E :     
    F#3................. >0097 :     
    F#4................. >004C :     
    F#5................. >0026 :     
    F#6................. >0013 :     
    F1.................. >0281 :     
    F2.................. >0140 :     
    F3.................. >00A0 :     
    F4.................. >0050 :     
    F5.................. >0028 :     
    F6.................. >0014 :     
    FIRE................ >23E2 :     
    FIRE_1.............. >241C :     
    FRAMES_TO_WAIT...... >839A :     
    FUEL................ >838A :     
    FUEL_MAX............ >03FF :     
    FUEL_UNIT........... >0040 :     
    G#1................. >021B :     
    G#2................. >010D :     
    G#3................. >0087 :     
    G#4................. >0043 :     
    G#5................. >0022 :     
    G#6................. >0011 :     
    G1.................. >023B :     
    G2.................. >011D :     
    G3.................. >008F :     
    G4.................. >0047 :     
    G5.................. >0024 :     
    G6.................. >0012 :     
    GAME_LOOP........... >2072 :     
    GAME_LOOP_1......... >2074 :     
    GAME_LOOP_2......... >20D4 :     
    GAME_OVER........... >2068 :     
    GENERATE_SALS....... >4064 :     
    GENERATE_SALS_1..... >407C :     
    GENERATE_SALS_2..... >40BC :     
    GENERATE_SALS_3..... >40EE :     
    GENERATE_SALS_4..... >40FC :     
    GENERATE_SALS_5..... >4116 :     
    GENERATE_SALS_6..... >411C :     
    GPU_PRG............. >4000 :     
    GPU_PRG_TMP......... >2800 :     
    GPU_PROGRAM......... >2EE6 :     
    GPU_PROGRAM_COPY.... >2EF2 :     
    GPU_PROGRAM_END..... >34FE :     
    GPU_PROGRAM_START... >2EFE :     
    GPU_RUN............. >2EC4 :     
    GPU_SPRITE_ADDR..... >0000 :     
    GPU_SPRITE_SIZE..... >000A :     
    GPU_SPRITE_TYPE_INDEX >0002 :     
    GPU_SPRITE_X........ >0004 :     
    GPU_SPRITE_Y........ >0006 :     
    GPU_SPRITE_Z........ >0008 :     
    GRAPHICS_MODE....... >283C :     
    GRAPHICS_MODE_1..... >2842 :     
    GRAPHICS_MODE_2..... >284C :     
    GREEN_BULLET_HANDLER >363E :     
    GREEN_BULLET_HANDLER_1 >3652 :     
    GREEN_BULLET_HANDLER_2 >365C :     
    GREEN_BULLET_HANDLER_3 >3660 :     
    GREEN_GUN_HANDLER... >37F2 :     
    GREEN_GUN_HANDLER_0. >3840 :     
    GREEN_GUN_HANDLER_1. >384C :     
    GREEN_GUN_HANDLER_2. >3834 :     
    GREEN_ROCKET_HANDLER >36C2 :     
    GREEN_ROCKET_HANDLER_1 >36DE :     
    GREEN_ROCKET_HANDLER_2 >36EA :     
    GREEN_ROCKET_HANDLER_3 >36EE :     
    GRMRA............... >9802 :     
    GRMRD............... >9800 :     
    GRMWA............... >9C02 :     
    GRMWD............... >9C00 :     
    HIGH_SCORE.......... >8386 :     
    HIGH_SCORES......... >D65E :     
    HIGH_SCORE_POSITIONS >2E6C :     
    HIT_HANDLER......... >3AE0 :     
    HIT_HANDLER_1....... >3AF4 :     
    HIT_HANDLER_2....... >3B02 :     
    HW_SPRITE_X_MAX..... >4220 :     
    HW_SPRITE_Y_MAX..... >4224 :     
    HW_SPRITE_Y_MIN..... >4222 :     
    INIT_GAME........... >2704 :     
    INIT_LEVEL.......... >2728 :     
    INIT_SPRITE_DEFS_0.. >2A34 :     
    INIT_SPRITE_DEFS_0_1 >2A42 :     
    INIT_SPRITE_DEFS_0_2 >2A64 :     
    INIT_SPRITE_DEFS_0_3 >2A70 :     
    INIT_SUB_LEVEL...... >278A :     
    INIT_SUB_LEVEL_1.... >27A4 :     
    INIT_TL2_PATTERNS... >299A :     
    INTRO............... >201A :     
    INTRO_FIRE_COUNTDOWN >2DBE :     
    INTRO_FIRE_SPEED.... >001E :     
    INTRO_LOOP.......... >2D3C :     
    INTRO_LOOP_1........ >2D42 :     
    INTRO_LOOP_2........ >2DA2 :     
    INTRO_LOOP_3........ >2DA4 :     
    INTRO_MOVE_PLAYER... >2DAA :     
    INTRO_MOVE_PLAYER_1. >2DBC :     
    ISOMETRIC_CENTER_Y.. >0080 :     
    ISOMETRIC_X0........ >0010 :     
    ISOMETRIC_Y0........ >0050 :     
    ISOMETRIC_Z0........ >0010 :     
    JOY_DN.............. >060C :     
    JOY_FI.............. >0606 :     
    JOY_LT.............. >0608 :     
    JOY_RT.............. >060A :     
    JOY_UP.............. >060E :     
    KEY_0............... >050C :     
    KEY_1............... >050E :     
    KEY_2............... >010E :     
    KEY_3............... >020E :     
    KEY_4............... >030E :     
    KEY_5............... >040E :     
    KEY_6............... >040C :     
    KEY_7............... >030C :     
    KEY_8............... >020C :     
    KEY_9............... >010C :     
    KEY_A............... >0510 :     
    KEY_B............... >0414 :     
    KEY_C............... >0214 :     
    KEY_CM.............. >0206 :     
    KEY_CT.............. >0012 :     
    KEY_D............... >0210 :     
    KEY_DN.............. >060C :     
    KEY_E............... >0212 :     
    KEY_EN.............. >000A :     
    KEY_F............... >0310 :     
    KEY_FI.............. >0606 :     
    KEY_FN.............. >000E :     
    KEY_FS.............. >0106 :     
    KEY_G............... >0410 :     
    KEY_H............... >0408 :     
    KEY_I............... >020A :     
    KEY_J............... >0308 :     
    KEY_K............... >0208 :     
    KEY_L............... >0108 :     
    KEY_LF.............. >0608 :     
    KEY_M............... >0306 :     
    KEY_N............... >0406 :     
    KEY_O............... >010A :     
    KEY_P............... >050A :     
    KEY_Q............... >0512 :     
    KEY_R............... >0312 :     
    KEY_RG.............. >060A :     
    KEY_S............... >0110 :     
    KEY_SH.............. >0010 :     
    KEY_SP.............. >0008 :     
    KEY_T............... >0412 :     
    KEY_U............... >030A :     
    KEY_UP.............. >060E :     
    KEY_V............... >0314 :     
    KEY_W............... >0112 :     
    KEY_X............... >0114 :     
    KEY_Y............... >040A :     
    KEY_Z............... >0514 :     
    LEVEL............... >837A :     
    LEVEL_0_000_ADD..... >A206 :     
    LEVEL_0_001_ADD..... >A210 :     
    LEVEL_0_002_ADD..... >A21A :     
    LEVEL_0_003_ADD..... >A21E :     
    LEVEL_0_004_ADD..... >A228 :     
    LEVEL_0_005_ADD..... >A232 :     
    LEVEL_0_006_ADD..... >A239 :     
    LEVEL_0_007_ADD..... >A23D :     
    LEVEL_0_008_ADD..... >A23E :     
    LEVEL_0_009_ADD..... >A242 :     
    LEVEL_0_010_ADD..... >A249 :     
    LEVEL_0_011_ADD..... >A24D :     
    LEVEL_0_012_ADD..... >A24E :     
    LEVEL_0_013_ADD..... >A24F :     
    LEVEL_0_014_ADD..... >A256 :     
    LEVEL_0_015_ADD..... >A26C :     
    LEVEL_0_016_ADD..... >A27F :     
    LEVEL_0_017_ADD..... >A286 :     
    LEVEL_0_018_ADD..... >A287 :     
    LEVEL_0_019_ADD..... >A28E :     
    LEVEL_0_020_ADD..... >A28F :     
    LEVEL_0_021_ADD..... >A290 :     
    LEVEL_0_022_ADD..... >A291 :     
    LEVEL_0_023_ADD..... >A292 :     
    LEVEL_0_024_ADD..... >A296 :     
    LEVEL_0_025_ADD..... >A297 :     
    LEVEL_0_026_ADD..... >A298 :     
    LEVEL_0_027_ADD..... >A299 :     
    LEVEL_0_028_ADD..... >A29D :     
    LEVEL_0_029_ADD..... >A29E :     
    LEVEL_0_030_ADD..... >A2A5 :     
    LEVEL_0_031_ADD..... >A2A6 :     
    LEVEL_0_032_ADD..... >A2A7 :     
    LEVEL_0_033_ADD..... >A2A8 :     
    LEVEL_0_034_ADD..... >A2A9 :     
    LEVEL_0_035_ADD..... >A2AA :     
    LEVEL_0_036_ADD..... >A2B1 :     
    LEVEL_0_037_ADD..... >A2B8 :     
    LEVEL_0_038_ADD..... >A2B9 :     
    LEVEL_0_039_ADD..... >A2BA :     
    LEVEL_0_040_ADD..... >A2BB :     
    LEVEL_0_041_ADD..... >A2BC :     
    LEVEL_0_042_ADD..... >A2BD :     
    LEVEL_0_043_ADD..... >A2BE :     
    LEVEL_0_044_ADD..... >A2BF :     
    LEVEL_0_045_ADD..... >A2C0 :     
    LEVEL_0_046_ADD..... >A2C7 :     
    LEVEL_0_047_ADD..... >A2DD :     
    LEVEL_0_048_ADD..... >A2F0 :     
    LEVEL_0_049_ADD..... >A2F7 :     
    LEVEL_0_050_ADD..... >A2F8 :     
    LEVEL_0_051_ADD..... >A2FF :     
    LEVEL_0_052_ADD..... >A300 :     
    LEVEL_0_053_ADD..... >A301 :     
    LEVEL_0_054_ADD..... >A302 :     
    LEVEL_0_055_ADD..... >A303 :     
    LEVEL_0_056_ADD..... >A307 :     
    LEVEL_0_057_ADD..... >A308 :     
    LEVEL_0_058_ADD..... >A309 :     
    LEVEL_0_059_ADD..... >A30A :     
    LEVEL_0_060_ADD..... >A30E :     
    LEVEL_0_061_ADD..... >A30F :     
    LEVEL_0_062_ADD..... >A316 :     
    LEVEL_0_063_ADD..... >A317 :     
    LEVEL_0_064_ADD..... >A318 :     
    LEVEL_0_065_ADD..... >A319 :     
    LEVEL_0_066_ADD..... >A31A :     
    LEVEL_0_067_ADD..... >A31B :     
    LEVEL_0_068_ADD..... >A322 :     
    LEVEL_0_069_ADD..... >A329 :     
    LEVEL_0_070_ADD..... >A32A :     
    LEVEL_0_071_ADD..... >A32B :     
    LEVEL_0_072_ADD..... >A32C :     
    LEVEL_0_073_ADD..... >A32D :     
    LEVEL_0_074_ADD..... >A32E :     
    LEVEL_0_075_ADD..... >A32F :     
    LEVEL_0_076_ADD..... >A330 :     
    LEVEL_0_077_ADD..... >A331 :     
    LEVEL_0_078_ADD..... >A338 :     
    LEVEL_0_079_ADD..... >A34E :     
    LEVEL_0_080_ADD..... >A361 :     
    LEVEL_0_081_ADD..... >A368 :     
    LEVEL_0_082_ADD..... >A369 :     
    LEVEL_0_083_ADD..... >A370 :     
    LEVEL_0_084_ADD..... >A371 :     
    LEVEL_0_085_ADD..... >A372 :     
    LEVEL_0_086_ADD..... >A373 :     
    LEVEL_0_087_ADD..... >A374 :     
    LEVEL_0_088_ADD..... >A378 :     
    LEVEL_0_089_ADD..... >A379 :     
    LEVEL_0_090_ADD..... >A37A :     
    LEVEL_0_091_ADD..... >A37B :     
    LEVEL_0_092_ADD..... >A37F :     
    LEVEL_0_093_ADD..... >A380 :     
    LEVEL_0_094_ADD..... >A387 :     
    LEVEL_0_095_ADD..... >A388 :     
    LEVEL_0_096_ADD..... >A389 :     
    LEVEL_0_097_ADD..... >A38A :     
    LEVEL_0_098_ADD..... >A38B :     
    LEVEL_0_099_ADD..... >A38C :     
    LEVEL_0_100_ADD..... >A393 :     
    LEVEL_0_101_ADD..... >A39A :     
    LEVEL_0_102_ADD..... >A39B :     
    LEVEL_0_103_ADD..... >A39C :     
    LEVEL_0_104_ADD..... >A39D :     
    LEVEL_0_105_ADD..... >A39E :     
    LEVEL_0_106_ADD..... >A39F :     
    LEVEL_0_107_ADD..... >A3A0 :     
    LEVEL_0_108_ADD..... >A3A1 :     
    LEVEL_0_109_ADD..... >A3A2 :     
    LEVEL_0_110_ADD..... >A3A9 :     
    LEVEL_0_111_ADD..... >A3BF :     
    LEVEL_0_112_ADD..... >A3D2 :     
    LEVEL_0_113_ADD..... >A3D9 :     
    LEVEL_0_114_ADD..... >A3DA :     
    LEVEL_0_115_ADD..... >A3E1 :     
    LEVEL_0_116_ADD..... >A3E2 :     
    LEVEL_0_117_ADD..... >A3E3 :     
    LEVEL_0_118_ADD..... >A3E4 :     
    LEVEL_0_119_ADD..... >A3E5 :     
    LEVEL_0_120_ADD..... >A3E9 :     
    LEVEL_0_121_ADD..... >A3EA :     
    LEVEL_0_122_ADD..... >A3EB :     
    LEVEL_0_123_ADD..... >A3EC :     
    LEVEL_0_124_ADD..... >A3F0 :     
    LEVEL_0_125_ADD..... >A3F1 :     
    LEVEL_0_126_ADD..... >A3F8 :     
    LEVEL_0_127_ADD..... >A3F9 :     
    LEVEL_1_000_ADD..... >A3FA :     
    LEVEL_1_001_ADD..... >A407 :     
    LEVEL_1_002_ADD..... >A423 :     
    LEVEL_1_003_ADD..... >A445 :     
    LEVEL_1_004_ADD..... >A461 :     
    LEVEL_1_005_ADD..... >A486 :     
    LEVEL_1_006_ADD..... >A4A8 :     
    LEVEL_1_007_ADD..... >A4C7 :     
    LEVEL_1_008_ADD..... >A4E9 :     
    LEVEL_1_009_ADD..... >A508 :     
    LEVEL_1_010_ADD..... >A52A :     
    LEVEL_1_011_ADD..... >A543 :     
    LEVEL_1_012_ADD..... >A55C :     
    LEVEL_1_013_ADD..... >A575 :     
    LEVEL_1_014_ADD..... >A588 :     
    LEVEL_1_015_ADD..... >A592 :     
    LEVEL_1_016_ADD..... >A5AB :     
    LEVEL_1_017_ADD..... >A5B8 :     
    LEVEL_1_018_ADD..... >A5C2 :     
    LEVEL_1_019_ADD..... >A5C9 :     
    LEVEL_1_020_ADD..... >A5D3 :     
    LEVEL_1_021_ADD..... >A5DD :     
    LEVEL_1_022_ADD..... >A5E7 :     
    LEVEL_1_023_ADD..... >A5EB :     
    LEVEL_1_024_ADD..... >A5EF :     
    LEVEL_1_025_ADD..... >A5F0 :     
    LEVEL_1_026_ADD..... >A600 :     
    LEVEL_1_027_ADD..... >A604 :     
    LEVEL_1_028_ADD..... >A60E :     
    LEVEL_1_029_ADD..... >A61E :     
    LEVEL_1_030_ADD..... >A628 :     
    LEVEL_1_031_ADD..... >A635 :     
    LEVEL_1_032_ADD..... >A639 :     
    LEVEL_1_033_ADD..... >A63A :     
    LEVEL_1_034_ADD..... >A63B :     
    LEVEL_1_035_ADD..... >A63C :     
    LEVEL_1_036_ADD..... >A63D :     
    LEVEL_1_037_ADD..... >A63E :     
    LEVEL_1_038_ADD..... >A63F :     
    LEVEL_1_039_ADD..... >A64C :     
    LEVEL_1_040_ADD..... >A665 :     
    LEVEL_1_041_ADD..... >A67E :     
    LEVEL_1_042_ADD..... >A694 :     
    LEVEL_1_043_ADD..... >A69E :     
    LEVEL_1_044_ADD..... >A6B1 :     
    LEVEL_1_045_ADD..... >A6BB :     
    LEVEL_1_046_ADD..... >A6C8 :     
    LEVEL_1_047_ADD..... >A6DE :     
    LEVEL_1_048_ADD..... >A6F7 :     
    LEVEL_1_049_ADD..... >A707 :     
    LEVEL_1_050_ADD..... >A71A :     
    LEVEL_1_051_ADD..... >A730 :     
    LEVEL_1_052_ADD..... >A746 :     
    LEVEL_1_053_ADD..... >A762 :     
    LEVEL_1_054_ADD..... >A772 :     
    LEVEL_1_055_ADD..... >A77F :     
    LEVEL_1_056_ADD..... >A78F :     
    LEVEL_1_057_ADD..... >A79F :     
    LEVEL_1_058_ADD..... >A7A6 :     
    LEVEL_1_059_ADD..... >A7B0 :     
    LEVEL_1_060_ADD..... >A7B4 :     
    LEVEL_1_061_ADD..... >A7C7 :     
    LEVEL_1_062_ADD..... >A7D1 :     
    LEVEL_1_063_ADD..... >A7D5 :     
    LEVEL_1_064_ADD..... >A7DC :     
    LEVEL_1_065_ADD..... >A7E0 :     
    LEVEL_1_066_ADD..... >A7E1 :     
    LEVEL_1_067_ADD..... >A7E5 :     
    LEVEL_1_068_ADD..... >A7F8 :     
    LEVEL_1_069_ADD..... >A7FC :     
    LEVEL_1_070_ADD..... >A809 :     
    LEVEL_1_071_ADD..... >A80D :     
    LEVEL_1_072_ADD..... >A820 :     
    LEVEL_1_073_ADD..... >A824 :     
    LEVEL_1_074_ADD..... >A82B :     
    LEVEL_1_075_ADD..... >A82C :     
    LEVEL_1_076_ADD..... >A830 :     
    LEVEL_1_077_ADD..... >A831 :     
    LEVEL_1_078_ADD..... >A83B :     
    LEVEL_1_079_ADD..... >A851 :     
    LEVEL_1_080_ADD..... >A85B :     
    LEVEL_1_081_ADD..... >A868 :     
    LEVEL_1_082_ADD..... >A875 :     
    LEVEL_1_083_ADD..... >A885 :     
    LEVEL_1_084_ADD..... >A88F :     
    LEVEL_1_085_ADD..... >A8A2 :     
    LEVEL_1_086_ADD..... >A8A9 :     
    LEVEL_1_087_ADD..... >A8B3 :     
    LEVEL_1_088_ADD..... >A8C6 :     
    LEVEL_1_089_ADD..... >A8D0 :     
    LEVEL_1_090_ADD..... >A8D7 :     
    LEVEL_1_091_ADD..... >A8D8 :     
    LEVEL_1_092_ADD..... >A8DC :     
    LEVEL_1_093_ADD..... >A8DD :     
    LEVEL_1_094_ADD..... >A8E1 :     
    LEVEL_1_095_ADD..... >A8E5 :     
    LEVEL_1_096_ADD..... >A8E6 :     
    LEVEL_1_097_ADD..... >A8EA :     
    LEVEL_1_098_ADD..... >A8F1 :     
    LEVEL_1_099_ADD..... >A8F5 :     
    LEVEL_1_100_ADD..... >A902 :     
    LEVEL_1_101_ADD..... >A906 :     
    LEVEL_1_102_ADD..... >A90A :     
    LEVEL_1_103_ADD..... >A90B :     
    LEVEL_1_104_ADD..... >A918 :     
    LEVEL_1_105_ADD..... >A925 :     
    LEVEL_1_106_ADD..... >A932 :     
    LEVEL_1_107_ADD..... >A936 :     
    LEVEL_1_108_ADD..... >A93A :     
    LEVEL_1_109_ADD..... >A93B :     
    LEVEL_1_110_ADD..... >A945 :     
    LEVEL_1_111_ADD..... >A946 :     
    LEVEL_1_112_ADD..... >A953 :     
    LEVEL_1_113_ADD..... >A95A :     
    LEVEL_1_114_ADD..... >A96D :     
    LEVEL_1_115_ADD..... >A983 :     
    LEVEL_1_116_ADD..... >A993 :     
    LEVEL_1_117_ADD..... >A9A6 :     
    LEVEL_1_118_ADD..... >A9BC :     
    LEVEL_1_119_ADD..... >A9DE :     
    LEVEL_1_120_ADD..... >A9FD :     
    LEVEL_1_121_ADD..... >AA16 :     
    LEVEL_1_122_ADD..... >AA20 :     
    LEVEL_1_123_ADD..... >AA2D :     
    LEVEL_1_124_ADD..... >AA43 :     
    LEVEL_1_125_ADD..... >AA5F :     
    LEVEL_1_126_ADD..... >AA78 :     
    LEVEL_1_127_ADD..... >AA85 :     
    LEVEL_1_128_ADD..... >AA95 :     
    LEVEL_1_129_ADD..... >AAA8 :     
    LEVEL_1_130_ADD..... >AACA :     
    LEVEL_1_131_ADD..... >AAEC :     
    LEVEL_1_132_ADD..... >AAFF :     
    LEVEL_1_133_ADD..... >AB0F :     
    LEVEL_1_134_ADD..... >AB25 :     
    LEVEL_1_135_ADD..... >AB29 :     
    LEVEL_1_136_ADD..... >AB42 :     
    LEVEL_1_137_ADD..... >AB58 :     
    LEVEL_1_138_ADD..... >AB6E :     
    LEVEL_1_139_ADD..... >AB78 :     
    LEVEL_1_140_ADD..... >AB85 :     
    LEVEL_1_141_ADD..... >AB8C :     
    LEVEL_1_142_ADD..... >AB9C :     
    LEVEL_1_143_ADD..... >ABA3 :     
    LEVEL_1_144_ADD..... >ABB0 :     
    LEVEL_1_145_ADD..... >ABC3 :     
    LEVEL_1_146_ADD..... >ABCA :     
    LEVEL_1_147_ADD..... >ABD4 :     
    LEVEL_1_148_ADD..... >ABE1 :     
    LEVEL_1_149_ADD..... >ABF1 :     
    LEVEL_1_150_ADD..... >AC07 :     
    LEVEL_1_151_ADD..... >AC23 :     
    LEVEL_1_152_ADD..... >AC36 :     
    LEVEL_1_153_ADD..... >AC3D :     
    LEVEL_1_154_ADD..... >AC50 :     
    LEVEL_1_155_ADD..... >AC5D :     
    LEVEL_1_156_ADD..... >AC6D :     
    LEVEL_1_157_ADD..... >AC83 :     
    LEVEL_1_158_ADD..... >AC8A :     
    LEVEL_1_159_ADD..... >AC97 :     
    LEVEL_1_160_ADD..... >ACA1 :     
    LEVEL_1_161_ADD..... >ACAE :     
    LEVEL_1_162_ADD..... >ACCA :     
    LEVEL_1_163_ADD..... >ACE0 :     
    LEVEL_1_164_ADD..... >ACE4 :     
    LEVEL_1_165_ADD..... >ACE8 :     
    LEVEL_1_166_ADD..... >ACF8 :     
    LEVEL_1_167_ADD..... >ACFC :     
    LEVEL_1_168_ADD..... >AD15 :     
    LEVEL_1_169_ADD..... >AD28 :     
    LEVEL_1_170_ADD..... >AD2C :     
    LEVEL_1_171_ADD..... >AD30 :     
    LEVEL_1_172_ADD..... >AD34 :     
    LEVEL_1_173_ADD..... >AD38 :     
    LEVEL_1_174_ADD..... >AD45 :     
    LEVEL_1_175_ADD..... >AD4C :     
    LEVEL_1_176_ADD..... >AD4D :     
    LEVEL_1_177_ADD..... >AD51 :     
    LEVEL_1_178_ADD..... >AD55 :     
    LEVEL_1_179_ADD..... >AD56 :     
    LEVEL_1_180_ADD..... >AD60 :     
    LEVEL_1_181_ADD..... >AD73 :     
    LEVEL_1_182_ADD..... >AD74 :     
    LEVEL_1_183_ADD..... >AD7E :     
    LEVEL_1_184_ADD..... >AD88 :     
    LEVEL_1_185_ADD..... >AD95 :     
    LEVEL_1_186_ADD..... >ADA2 :     
    LEVEL_1_187_ADD..... >ADA6 :     
    LEVEL_1_188_ADD..... >ADAA :     
    LEVEL_1_189_ADD..... >ADC0 :     
    LEVEL_1_190_ADD..... >ADD6 :     
    LEVEL_1_191_ADD..... >ADE6 :     
    LEVEL_1_192_ADD..... >ADF3 :     
    LEVEL_1_193_ADD..... >ADF7 :     
    LEVEL_1_194_ADD..... >ADFB :     
    LEVEL_1_195_ADD..... >ADFC :     
    LEVEL_1_196_ADD..... >ADFD :     
    LEVEL_1_197_ADD..... >AE10 :     
    LEVEL_1_198_ADD..... >AE26 :     
    LEVEL_1_199_ADD..... >AE3F :     
    LEVEL_1_200_ADD..... >AE55 :     
    LEVEL_1_201_ADD..... >AE65 :     
    LEVEL_1_202_ADD..... >AE7B :     
    LEVEL_1_203_ADD..... >AE85 :     
    LEVEL_1_204_ADD..... >AE92 :     
    LEVEL_1_205_ADD..... >AE99 :     
    LEVEL_1_206_ADD..... >AEA0 :     
    LEVEL_1_207_ADD..... >AEA4 :     
    LEVEL_1_208_ADD..... >AEAB :     
    LEVEL_1_209_ADD..... >AEB2 :     
    LEVEL_1_210_ADD..... >AEB9 :     
    LEVEL_1_211_ADD..... >AEC0 :     
    LEVEL_1_212_ADD..... >AEC4 :     
    LEVEL_1_213_ADD..... >AECB :     
    LEVEL_1_214_ADD..... >AECF :     
    LEVEL_1_215_ADD..... >AED3 :     
    LEVEL_1_216_ADD..... >AEE0 :     
    LEVEL_1_217_ADD..... >AEE7 :     
    LEVEL_1_218_ADD..... >AEF4 :     
    LEVEL_1_219_ADD..... >AEFE :     
    LEVEL_1_220_ADD..... >AF14 :     
    LEVEL_1_221_ADD..... >AF27 :     
    LEVEL_1_222_ADD..... >AF2E :     
    LEVEL_1_223_ADD..... >AF38 :     
    LEVEL_1_224_ADD..... >AF48 :     
    LEVEL_1_225_ADD..... >AF4F :     
    LEVEL_1_226_ADD..... >AF53 :     
    LEVEL_1_227_ADD..... >AF57 :     
    LEVEL_2_000_ADD..... >AF58 :     
    LEVEL_2_001_ADD..... >AF65 :     
    LEVEL_2_002_ADD..... >AF81 :     
    LEVEL_2_003_ADD..... >AFA6 :     
    LEVEL_2_004_ADD..... >AFC2 :     
    LEVEL_2_005_ADD..... >AFE7 :     
    LEVEL_2_006_ADD..... >B009 :     
    LEVEL_2_007_ADD..... >B028 :     
    LEVEL_2_008_ADD..... >B04A :     
    LEVEL_2_009_ADD..... >B069 :     
    LEVEL_2_010_ADD..... >B08B :     
    LEVEL_2_011_ADD..... >B0A4 :     
    LEVEL_2_012_ADD..... >B0BD :     
    LEVEL_2_013_ADD..... >B0D6 :     
    LEVEL_2_014_ADD..... >B0E9 :     
    LEVEL_2_015_ADD..... >B0F6 :     
    LEVEL_2_016_ADD..... >B10C :     
    LEVEL_2_017_ADD..... >B119 :     
    LEVEL_2_018_ADD..... >B123 :     
    LEVEL_2_019_ADD..... >B12A :     
    LEVEL_2_020_ADD..... >B134 :     
    LEVEL_2_021_ADD..... >B13E :     
    LEVEL_2_022_ADD..... >B148 :     
    LEVEL_2_023_ADD..... >B14C :     
    LEVEL_2_024_ADD..... >B150 :     
    LEVEL_2_025_ADD..... >B151 :     
    LEVEL_2_026_ADD..... >B161 :     
    LEVEL_2_027_ADD..... >B165 :     
    LEVEL_2_028_ADD..... >B16F :     
    LEVEL_2_029_ADD..... >B17F :     
    LEVEL_2_030_ADD..... >B189 :     
    LEVEL_2_031_ADD..... >B196 :     
    LEVEL_2_032_ADD..... >B19A :     
    LEVEL_2_033_ADD..... >B19E :     
    LEVEL_2_034_ADD..... >B19F :     
    LEVEL_2_035_ADD..... >B1AC :     
    LEVEL_2_036_ADD..... >B1B9 :     
    LEVEL_2_037_ADD..... >B1C9 :     
    LEVEL_2_038_ADD..... >B1D3 :     
    LEVEL_2_039_ADD..... >B1DD :     
    LEVEL_2_040_ADD..... >B1F0 :     
    LEVEL_2_041_ADD..... >B200 :     
    LEVEL_2_042_ADD..... >B210 :     
    LEVEL_2_043_ADD..... >B214 :     
    LEVEL_2_044_ADD..... >B221 :     
    LEVEL_2_045_ADD..... >B22E :     
    LEVEL_2_046_ADD..... >B23B :     
    LEVEL_2_047_ADD..... >B251 :     
    LEVEL_2_048_ADD..... >B264 :     
    LEVEL_2_049_ADD..... >B26E :     
    LEVEL_2_050_ADD..... >B27E :     
    LEVEL_2_051_ADD..... >B27F :     
    LEVEL_2_052_ADD..... >B283 :     
    LEVEL_2_053_ADD..... >B287 :     
    LEVEL_2_054_ADD..... >B288 :     
    LEVEL_2_055_ADD..... >B289 :     
    LEVEL_2_056_ADD..... >B296 :     
    LEVEL_2_057_ADD..... >B2A0 :     
    LEVEL_2_058_ADD..... >B2AD :     
    LEVEL_2_059_ADD..... >B2BA :     
    LEVEL_2_060_ADD..... >B2D6 :     
    LEVEL_2_061_ADD..... >B2F5 :     
    LEVEL_2_062_ADD..... >B30B :     
    LEVEL_2_063_ADD..... >B31B :     
    LEVEL_2_064_ADD..... >B31C :     
    LEVEL_2_065_ADD..... >B31D :     
    LEVEL_2_066_ADD..... >B324 :     
    LEVEL_2_067_ADD..... >B32B :     
    LEVEL_2_068_ADD..... >B332 :     
    LEVEL_2_069_ADD..... >B33F :     
    LEVEL_2_070_ADD..... >B346 :     
    LEVEL_2_071_ADD..... >B350 :     
    LEVEL_2_072_ADD..... >B35A :     
    LEVEL_2_073_ADD..... >B367 :     
    LEVEL_2_074_ADD..... >B37A :     
    LEVEL_2_075_ADD..... >B387 :     
    LEVEL_2_076_ADD..... >B394 :     
    LEVEL_2_077_ADD..... >B398 :     
    LEVEL_2_078_ADD..... >B39F :     
    LEVEL_2_079_ADD..... >B3A3 :     
    LEVEL_2_080_ADD..... >B3A7 :     
    LEVEL_2_081_ADD..... >B3B1 :     
    LEVEL_2_082_ADD..... >B3BB :     
    LEVEL_2_083_ADD..... >B3BC :     
    LEVEL_2_084_ADD..... >B3C0 :     
    LEVEL_2_085_ADD..... >B3C1 :     
    LEVEL_2_086_ADD..... >B3C2 :     
    LEVEL_2_087_ADD..... >B3C6 :     
    LEVEL_2_088_ADD..... >B3C7 :     
    LEVEL_2_089_ADD..... >B3CE :     
    LEVEL_2_090_ADD..... >B3E4 :     
    LEVEL_2_091_ADD..... >B3F4 :     
    LEVEL_2_092_ADD..... >B40A :     
    LEVEL_2_093_ADD..... >B417 :     
    LEVEL_2_094_ADD..... >B436 :     
    LEVEL_2_095_ADD..... >B45B :     
    LEVEL_2_096_ADD..... >B474 :     
    LEVEL_2_097_ADD..... >B48D :     
    LEVEL_2_098_ADD..... >B491 :     
    LEVEL_2_099_ADD..... >B492 :     
    LEVEL_2_100_ADD..... >B4A8 :     
    LEVEL_2_101_ADD..... >B4AF :     
    LEVEL_2_102_ADD..... >B4B9 :     
    LEVEL_2_103_ADD..... >B4C9 :     
    LEVEL_2_104_ADD..... >B4D9 :     
    LEVEL_2_105_ADD..... >B4E9 :     
    LEVEL_2_106_ADD..... >B4EA :     
    LEVEL_2_107_ADD..... >B4EB :     
    LEVEL_2_108_ADD..... >B4EC :     
    LEVEL_2_109_ADD..... >B4F0 :     
    LEVEL_2_110_ADD..... >B500 :     
    LEVEL_2_111_ADD..... >B510 :     
    LEVEL_2_112_ADD..... >B514 :     
    LEVEL_2_113_ADD..... >B51E :     
    LEVEL_2_114_ADD..... >B51F :     
    LEVEL_2_115_ADD..... >B520 :     
    LEVEL_2_116_ADD..... >B524 :     
    LEVEL_2_117_ADD..... >B525 :     
    LEVEL_2_118_ADD..... >B526 :     
    LEVEL_2_119_ADD..... >B53C :     
    LEVEL_2_120_ADD..... >B552 :     
    LEVEL_2_121_ADD..... >B55C :     
    LEVEL_2_122_ADD..... >B575 :     
    LEVEL_2_123_ADD..... >B585 :     
    LEVEL_2_124_ADD..... >B598 :     
    LEVEL_2_125_ADD..... >B5A8 :     
    LEVEL_2_126_ADD..... >B5C1 :     
    LEVEL_2_127_ADD..... >B5C2 :     
    LEVEL_2_128_ADD..... >B5C3 :     
    LEVEL_2_129_ADD..... >B5C4 :     
    LEVEL_2_130_ADD..... >B5C5 :     
    LEVEL_2_131_ADD..... >B5CF :     
    LEVEL_2_132_ADD..... >B5D6 :     
    LEVEL_2_133_ADD..... >B5E3 :     
    LEVEL_2_134_ADD..... >B5F0 :     
    LEVEL_2_135_ADD..... >B5FD :     
    LEVEL_2_136_ADD..... >B610 :     
    LEVEL_2_137_ADD..... >B620 :     
    LEVEL_2_138_ADD..... >B630 :     
    LEVEL_2_139_ADD..... >B631 :     
    LEVEL_2_140_ADD..... >B632 :     
    LEVEL_2_141_ADD..... >B633 :     
    LEVEL_2_142_ADD..... >B637 :     
    LEVEL_2_143_ADD..... >B647 :     
    LEVEL_2_144_ADD..... >B654 :     
    LEVEL_2_145_ADD..... >B65B :     
    LEVEL_2_146_ADD..... >B665 :     
    LEVEL_2_147_ADD..... >B666 :     
    LEVEL_2_148_ADD..... >B66A :     
    LEVEL_2_149_ADD..... >B66E :     
    LEVEL_2_150_ADD..... >B66F :     
    LEVEL_2_151_ADD..... >B670 :     
    LEVEL_2_152_ADD..... >B67D :     
    LEVEL_2_153_ADD..... >B687 :     
    LEVEL_2_154_ADD..... >B694 :     
    LEVEL_2_155_ADD..... >B6A1 :     
    LEVEL_2_156_ADD..... >B6BD :     
    LEVEL_2_157_ADD..... >B6DC :     
    LEVEL_2_158_ADD..... >B6F5 :     
    LEVEL_2_159_ADD..... >B705 :     
    LEVEL_2_160_ADD..... >B706 :     
    LEVEL_2_161_ADD..... >B707 :     
    LEVEL_2_162_ADD..... >B70E :     
    LEVEL_2_163_ADD..... >B715 :     
    LEVEL_2_164_ADD..... >B71C :     
    LEVEL_2_165_ADD..... >B729 :     
    LEVEL_2_166_ADD..... >B730 :     
    LEVEL_2_167_ADD..... >B73A :     
    LEVEL_2_168_ADD..... >B744 :     
    LEVEL_2_169_ADD..... >B751 :     
    LEVEL_2_170_ADD..... >B764 :     
    LEVEL_2_171_ADD..... >B771 :     
    LEVEL_2_172_ADD..... >B77E :     
    LEVEL_2_173_ADD..... >B782 :     
    LEVEL_2_174_ADD..... >B789 :     
    LEVEL_2_175_ADD..... >B78D :     
    LEVEL_2_176_ADD..... >B791 :     
    LEVEL_2_177_ADD..... >B79B :     
    LEVEL_2_178_ADD..... >B7A5 :     
    LEVEL_2_179_ADD..... >B7A6 :     
    LEVEL_2_180_ADD..... >B7AA :     
    LEVEL_2_181_ADD..... >B7AB :     
    LEVEL_2_182_ADD..... >B7AC :     
    LEVEL_2_183_ADD..... >B7B0 :     
    LEVEL_2_184_ADD..... >B7B1 :     
    LEVEL_2_185_ADD..... >B7B8 :     
    LEVEL_2_186_ADD..... >B7CE :     
    LEVEL_2_187_ADD..... >B7DE :     
    LEVEL_2_188_ADD..... >B7F4 :     
    LEVEL_2_189_ADD..... >B801 :     
    LEVEL_2_190_ADD..... >B820 :     
    LEVEL_2_191_ADD..... >B845 :     
    LEVEL_2_192_ADD..... >B85E :     
    LEVEL_2_193_ADD..... >B877 :     
    LEVEL_2_194_ADD..... >B87B :     
    LEVEL_2_195_ADD..... >B87C :     
    LEVEL_2_196_ADD..... >B892 :     
    LEVEL_2_197_ADD..... >B899 :     
    LEVEL_2_198_ADD..... >B8A3 :     
    LEVEL_2_199_ADD..... >B8B3 :     
    LEVEL_2_200_ADD..... >B8C3 :     
    LEVEL_2_201_ADD..... >B8D3 :     
    LEVEL_2_202_ADD..... >B8D4 :     
    LEVEL_2_203_ADD..... >B8D5 :     
    LEVEL_2_204_ADD..... >B8D6 :     
    LEVEL_2_205_ADD..... >B8DA :     
    LEVEL_2_206_ADD..... >B8EA :     
    LEVEL_2_207_ADD..... >B8FA :     
    LEVEL_2_208_ADD..... >B8FE :     
    LEVEL_2_209_ADD..... >B908 :     
    LEVEL_2_210_ADD..... >B909 :     
    LEVEL_2_211_ADD..... >B90A :     
    LEVEL_2_212_ADD..... >B90E :     
    LEVEL_2_213_ADD..... >B90F :     
    LEVEL_2_214_ADD..... >B910 :     
    LEVEL_2_215_ADD..... >B926 :     
    LEVEL_2_216_ADD..... >B93C :     
    LEVEL_2_217_ADD..... >B946 :     
    LEVEL_2_218_ADD..... >B95F :     
    LEVEL_2_219_ADD..... >B96F :     
    LEVEL_2_220_ADD..... >B982 :     
    LEVEL_2_221_ADD..... >B992 :     
    LEVEL_2_222_ADD..... >B9AB :     
    LEVEL_2_223_ADD..... >B9AC :     
    LEVEL_2_224_ADD..... >B9AD :     
    LEVEL_2_225_ADD..... >B9AE :     
    LEVEL_2_226_ADD..... >B9AF :     
    LEVEL_2_227_ADD..... >B9B9 :     
    LEVEL_2_228_ADD..... >B9C0 :     
    LEVEL_2_229_ADD..... >B9CD :     
    LEVEL_2_230_ADD..... >B9DA :     
    LEVEL_2_231_ADD..... >B9E7 :     
    LEVEL_2_232_ADD..... >B9FA :     
    LEVEL_2_233_ADD..... >BA0A :     
    LEVEL_2_234_ADD..... >BA1A :     
    LEVEL_2_235_ADD..... >BA1B :     
    LEVEL_2_236_ADD..... >BA1C :     
    LEVEL_2_237_ADD..... >BA1D :     
    LEVEL_2_238_ADD..... >BA21 :     
    LEVEL_2_239_ADD..... >BA31 :     
    LEVEL_2_240_ADD..... >BA3E :     
    LEVEL_2_241_ADD..... >BA45 :     
    LEVEL_2_242_ADD..... >BA4F :     
    LEVEL_2_243_ADD..... >BA50 :     
    LEVEL_2_244_ADD..... >BA54 :     
    LEVEL_2_245_ADD..... >BA58 :     
    LEVEL_2_246_ADD..... >BA59 :     
    LEVEL_2_247_ADD..... >BA5A :     
    LEVEL_2_248_ADD..... >BA67 :     
    LEVEL_2_249_ADD..... >BA74 :     
    LEVEL_2_250_ADD..... >BA7E :     
    LEVEL_2_251_ADD..... >BA8B :     
    LEVEL_2_252_ADD..... >BAA4 :     
    LEVEL_2_253_ADD..... >BAC3 :     
    LEVEL_2_254_ADD..... >BADC :     
    LEVEL_2_255_ADD..... >BAEC :     
    LEVEL_2_256_ADD..... >BAED :     
    LEVEL_2_257_ADD..... >BAF1 :     
    LEVEL_2_258_ADD..... >BAFB :     
    LEVEL_2_259_ADD..... >BB02 :     
    LEVEL_2_260_ADD..... >BB0C :     
    LEVEL_2_261_ADD..... >BB19 :     
    LEVEL_2_262_ADD..... >BB1D :     
    LEVEL_2_263_ADD..... >BB2D :     
    LEVEL_2_264_ADD..... >BB31 :     
    LEVEL_2_265_ADD..... >BB41 :     
    LEVEL_2_266_ADD..... >BB4E :     
    LEVEL_2_267_ADD..... >BB58 :     
    LEVEL_2_268_ADD..... >BB68 :     
    LEVEL_2_269_ADD..... >BB7B :     
    LEVEL_2_270_ADD..... >BB88 :     
    LEVEL_2_271_ADD..... >BB95 :     
    LEVEL_2_272_ADD..... >BB9F :     
    LEVEL_2_273_ADD..... >BBA9 :     
    LEVEL_2_274_ADD..... >BBB3 :     
    LEVEL_2_275_ADD..... >BBC0 :     
    LEVEL_2_276_ADD..... >BBCA :     
    LEVEL_2_277_ADD..... >BBE0 :     
    LEVEL_2_278_ADD..... >BBF6 :     
    LEVEL_2_279_ADD..... >BC06 :     
    LEVEL_2_280_ADD..... >BC16 :     
    LEVEL_2_281_ADD..... >BC26 :     
    LEVEL_2_282_ADD..... >BC3F :     
    LEVEL_2_283_ADD..... >BC5B :     
    LEVEL_2_284_ADD..... >BC71 :     
    LEVEL_2_285_ADD..... >BC7E :     
    LEVEL_2_286_ADD..... >BC85 :     
    LEVEL_2_287_ADD..... >BC8C :     
    LIVES............... >838E :     
    LOAD_PALETTES....... >2A12 :     
    LOAD_PALETTES_1..... >2A20 :     
    LOWER_MEMORY_MAX.... >3BC2 :     
    MAIN................ >2000 :     
    MAP................. >6000 :     
    MAP_0_BANK_SELECT... >600C :     
    MAP_0_WIDTH......... >0080 :     
    MAP_1_BANK_SELECT... >6008 :     
    MAP_1_WIDTH......... >00E4 :     
    MAP_2_BANK_SELECT... >600A :     
    MAP_2_WIDTH......... >0120 :     
    MAP_BANK_SELECT..... >836C :     
    MAP_HEIGHT.......... >001A :     
    MAP_WIDTH........... >8356 :     
    MAX_DISPLAYED_LIVES. >0008 :     
    MAX_SPRITES......... >0012 :     
    MAX_UPLOADED_CHARS_PER_FRAME >0004 :     
    MC0................. >C7E4 :     
    MCOUNT.............. >C7E2 :     
    MD0................. >C7EC :     
    MOVE_PLAYER......... >22FE :     
    MOVE_PLAYER_1....... >2320 :     
    MOVE_PLAYER_2....... >2336 :     
    MOVE_PLAYER_3....... >233A :     
    MOVE_PLAYER_4....... >234E :     
    MOVE_PLAYER_5....... >2360 :     
    MOVE_PLAYER_6....... >238E :     
    MOVE_PLAYER_7....... >23BA :     
    MOVE_SPRITES........ >2422 :     
    MOVE_SPRITES_1...... >2430 :     
    MOVE_SPRITES_2...... >2444 :     
    MOVE_SPRITES_3...... >2464 :     
    MOVE_SPRITES_4...... >246A :     
    MS0................. >C7E6 :     
    MUTE_SOUND.......... >A000 :     
    MUTE_SOUND_1........ >A008 :     
    MUTE_TABLE.......... >A022 :     
    NAME_TABLE_2........ >0C00 :     
    NAME_TABLE_BASE..... >0000 :     
    NAME_TABLE_P_0...... >0000 :     
    NAME_TABLE_P_1...... >0800 :     
    NOTE_FREQ........... >0002 :     
    NOTE_INSTR.......... >0000 :     
    NO_HANDLER.......... >0000 :     
    N_SPRITE_PATTERNS... >0040 :     
    N_SUB_LEVELS........ >0003 :     
    OLD_FUEL............ >838C :     
    OLD_HEIGHT.......... >8388 :     
    OLD_SCORE........... >8384 :     
    ONE_TIME_INIT....... >26EC :     
    P0.................. >00E0 :     
    P0_140.............. >BD02 :     
    P0_141.............. >BD0A :     
    P0_142.............. >BD12 :     
    P0_143.............. >BD1A :     
    P0_144.............. >BD22 :     
    P0_145.............. >BD2A :     
    P0_146.............. >BD32 :     
    P0_147.............. >BD3A :     
    P0_148.............. >BD42 :     
    P0_149.............. >BD4A :     
    P0_150.............. >BD52 :     
    P0_151.............. >BD5A :     
    P0_152.............. >BD62 :     
    P0_153.............. >BD6A :     
    P0_154.............. >BD72 :     
    P0_155.............. >BD7A :     
    P0_156.............. >BD82 :     
    P0_157.............. >BD8A :     
    P0_158.............. >BD92 :     
    P0_159.............. >BD9A :     
    P0_160.............. >BDA2 :     
    P0_161.............. >BDAA :     
    P0_162.............. >BDB2 :     
    P0_163.............. >BDBA :     
    P0_164.............. >BDC2 :     
    P0_165.............. >BDCA :     
    P0_166.............. >BDD2 :     
    P0_167.............. >BDDA :     
    P0_168.............. >BDE2 :     
    P0_169.............. >BDEA :     
    P0_170.............. >BDF2 :     
    P0_171.............. >BDFA :     
    P0_172.............. >BE02 :     
    P0_173.............. >BE0A :     
    P0_174.............. >BE12 :     
    P0_175.............. >BE1A :     
    P0_176.............. >BE22 :     
    P0_177.............. >BE2A :     
    P0_178.............. >BE32 :     
    P0_179.............. >BE3A :     
    P0_180.............. >BE42 :     
    P0_181.............. >BE4A :     
    P0_182.............. >BE52 :     
    P0_183.............. >BE5A :     
    P0_184.............. >BE62 :     
    P0_185.............. >BE6A :     
    P0_186.............. >BE72 :     
    P0_187.............. >BE7A :     
    P0_188.............. >BE82 :     
    P0_189.............. >BE8A :     
    P0_190.............. >BE92 :     
    P0_191.............. >BE9A :     
    P0_192.............. >BEA2 :     
    P0_193.............. >BEAA :     
    P0_194.............. >BEB2 :     
    P0_195.............. >BEBA :     
    P0_196.............. >BEC2 :     
    P0_197.............. >BECA :     
    P0_198.............. >BED2 :     
    P0_199.............. >BEDA :     
    P0_200.............. >BEE2 :     
    P0_201.............. >BEEA :     
    P0_202.............. >BEF2 :     
    P0_203.............. >BEFA :     
    P0_204.............. >BF02 :     
    P0_205.............. >BF0A :     
    P0_206.............. >BF12 :     
    P0_207.............. >BF1A :     
    P0_208.............. >BF22 :     
    P0_209.............. >BF2A :     
    P0_210.............. >BF32 :     
    P0_211.............. >BF3A :     
    P0_212.............. >BF42 :     
    P0_213.............. >BF4A :     
    P0_214.............. >BF52 :     
    P0_215.............. >BF5A :     
    P0_216.............. >BF62 :     
    P0_217.............. >BF6A :     
    P0_218.............. >BF72 :     
    P0_219.............. >BF7A :     
    P0_220.............. >BF82 :     
    P0_221.............. >BF8A :     
    P0_222.............. >BF92 :     
    P0_223.............. >BF9A :     
    P0_224.............. >BFA2 :     
    P0_225.............. >BFAA :     
    P0_226.............. >BFB2 :     
    P0_227.............. >BFBA :     
    P0_228.............. >BFC2 :     
    P0_229.............. >BFCA :     
    P0_230.............. >BFD2 :     
    P0_231.............. >BFDA :     
    P0_232.............. >BFE2 :     
    P0_233.............. >BFEA :     
    P0_234.............. >BFF2 :     
    P0_235.............. >BFFA :     
    P0_236.............. >C002 :     
    P0_237.............. >C00A :     
    P0_238.............. >C012 :     
    P0_239.............. >C01A :     
    P0_240.............. >C022 :     
    P0_241.............. >C02A :     
    P0_242.............. >C032 :     
    P0_243.............. >C03A :     
    P0_244.............. >C042 :     
    P0_245.............. >C04A :     
    P0_246.............. >C052 :     
    P0_247.............. >C05A :     
    P0_248.............. >C062 :     
    P0_249.............. >C06A :     
    P0_250.............. >C072 :     
    P0_251.............. >C07A :     
    P0_252.............. >C082 :     
    P0_253.............. >C08A :     
    P0_254.............. >C092 :     
    P0_255.............. >C09A :     
    P1.................. >00E1 :     
    P1_140.............. >C0A2 :     
    P1_141.............. >C0AA :     
    P1_142.............. >C0B2 :     
    P1_143.............. >C0BA :     
    P1_144.............. >C0C2 :     
    P1_145.............. >C0CA :     
    P1_146.............. >C0D2 :     
    P1_147.............. >C0DA :     
    P1_148.............. >C0E2 :     
    P1_149.............. >C0EA :     
    P1_150.............. >C0F2 :     
    P1_151.............. >C0FA :     
    P1_152.............. >C102 :     
    P1_153.............. >C10A :     
    P1_154.............. >C112 :     
    P1_155.............. >C11A :     
    P1_156.............. >C122 :     
    P1_157.............. >C12A :     
    P1_158.............. >C132 :     
    P1_159.............. >C13A :     
    P1_160.............. >C142 :     
    P1_161.............. >C14A :     
    P1_162.............. >C152 :     
    P1_163.............. >C15A :     
    P1_164.............. >C162 :     
    P1_165.............. >C16A :     
    P1_166.............. >C172 :     
    P1_167.............. >C17A :     
    P1_168.............. >C182 :     
    P1_169.............. >C18A :     
    P1_170.............. >C192 :     
    P1_171.............. >C19A :     
    P1_172.............. >C1A2 :     
    P1_173.............. >C1AA :     
    P1_174.............. >C1B2 :     
    P1_175.............. >C1BA :     
    P1_176.............. >C1C2 :     
    P1_177.............. >C1CA :     
    P1_178.............. >C1D2 :     
    P1_179.............. >C1DA :     
    P1_180.............. >C1E2 :     
    P1_181.............. >C1EA :     
    P1_182.............. >C1F2 :     
    P1_183.............. >C1FA :     
    P1_184.............. >C202 :     
    P1_185.............. >C20A :     
    P1_186.............. >C212 :     
    P1_187.............. >C21A :     
    P1_188.............. >C222 :     
    P1_189.............. >C22A :     
    P1_190.............. >C232 :     
    P1_191.............. >C23A :     
    P1_192.............. >C242 :     
    P1_193.............. >C24A :     
    P1_194.............. >C252 :     
    P1_195.............. >C25A :     
    P1_196.............. >C262 :     
    P1_197.............. >C26A :     
    P1_198.............. >C272 :     
    P1_199.............. >C27A :     
    P1_200.............. >C282 :     
    P1_201.............. >C28A :     
    P1_202.............. >C292 :     
    P1_203.............. >C29A :     
    P1_204.............. >C2A2 :     
    P1_205.............. >C2AA :     
    P1_206.............. >C2B2 :     
    P1_207.............. >C2BA :     
    P1_208.............. >C2C2 :     
    P1_209.............. >C2CA :     
    P1_210.............. >C2D2 :     
    P1_211.............. >C2DA :     
    P1_212.............. >C2E2 :     
    P1_213.............. >C2EA :     
    P1_214.............. >C2F2 :     
    P1_215.............. >C2FA :     
    P1_216.............. >C302 :     
    P1_217.............. >C30A :     
    P1_218.............. >C312 :     
    P1_219.............. >C31A :     
    P1_220.............. >C322 :     
    P1_221.............. >C32A :     
    P1_222.............. >C332 :     
    P1_223.............. >C33A :     
    P1_224.............. >C342 :     
    P1_225.............. >C34A :     
    P1_226.............. >C352 :     
    P1_227.............. >C35A :     
    P1_228.............. >C362 :     
    P1_229.............. >C36A :     
    P1_230.............. >C372 :     
    P1_231.............. >C37A :     
    P1_232.............. >C382 :     
    P1_233.............. >C38A :     
    P1_234.............. >C392 :     
    P1_235.............. >C39A :     
    P1_236.............. >C3A2 :     
    P1_237.............. >C3AA :     
    P1_238.............. >C3B2 :     
    P1_239.............. >C3BA :     
    P1_240.............. >C3C2 :     
    P1_241.............. >C3CA :     
    P1_242.............. >C3D2 :     
    P1_243.............. >C3DA :     
    P1_244.............. >C3E2 :     
    P1_245.............. >C3EA :     
    P1_246.............. >C3F2 :     
    P1_247.............. >C3FA :     
    P1_248.............. >C402 :     
    P1_249.............. >C40A :     
    P1_250.............. >C412 :     
    P1_251.............. >C41A :     
    P1_252.............. >C422 :     
    P1_253.............. >C42A :     
    P1_254.............. >C432 :     
    P1_255.............. >C43A :     
    P2.................. >00E2 :     
    P2_140.............. >C442 :     
    P2_141.............. >C44A :     
    P2_142.............. >C452 :     
    P2_143.............. >C45A :     
    P2_144.............. >C462 :     
    P2_145.............. >C46A :     
    P2_146.............. >C472 :     
    P2_147.............. >C47A :     
    P2_148.............. >C482 :     
    P2_149.............. >C48A :     
    P2_150.............. >C492 :     
    P2_151.............. >C49A :     
    P2_152.............. >C4A2 :     
    P2_153.............. >C4AA :     
    P2_154.............. >C4B2 :     
    P2_155.............. >C4BA :     
    P2_156.............. >C4C2 :     
    P2_157.............. >C4CA :     
    P2_158.............. >C4D2 :     
    P2_159.............. >C4DA :     
    P2_160.............. >C4E2 :     
    P2_161.............. >C4EA :     
    P2_162.............. >C4F2 :     
    P2_163.............. >C4FA :     
    P2_164.............. >C502 :     
    P2_165.............. >C50A :     
    P2_166.............. >C512 :     
    P2_167.............. >C51A :     
    P2_168.............. >C522 :     
    P2_169.............. >C52A :     
    P2_170.............. >C532 :     
    P2_171.............. >C53A :     
    P2_172.............. >C542 :     
    P2_173.............. >C54A :     
    P2_174.............. >C552 :     
    P2_175.............. >C55A :     
    P2_176.............. >C562 :     
    P2_177.............. >C56A :     
    P2_178.............. >C572 :     
    P2_179.............. >C57A :     
    P2_180.............. >C582 :     
    P2_181.............. >C58A :     
    P2_182.............. >C592 :     
    P2_183.............. >C59A :     
    P2_184.............. >C5A2 :     
    P2_185.............. >C5AA :     
    P2_186.............. >C5B2 :     
    P2_187.............. >C5BA :     
    P2_188.............. >C5C2 :     
    P2_189.............. >C5CA :     
    P2_190.............. >C5D2 :     
    P2_191.............. >C5DA :     
    P2_192.............. >C5E2 :     
    P2_193.............. >C5EA :     
    P2_194.............. >C5F2 :     
    P2_195.............. >C5FA :     
    P2_196.............. >C602 :     
    P2_197.............. >C60A :     
    P2_198.............. >C612 :     
    P2_199.............. >C61A :     
    P2_200.............. >C622 :     
    P2_201.............. >C62A :     
    P2_202.............. >C632 :     
    P2_203.............. >C63A :     
    P2_204.............. >C642 :     
    P2_205.............. >C64A :     
    P2_206.............. >C652 :     
    P2_207.............. >C65A :     
    P2_208.............. >C662 :     
    P2_209.............. >C66A :     
    P2_210.............. >C672 :     
    P2_211.............. >C67A :     
    P2_212.............. >C682 :     
    P2_213.............. >C68A :     
    P2_214.............. >C692 :     
    P2_215.............. >C69A :     
    P2_216.............. >C6A2 :     
    P2_217.............. >C6AA :     
    P2_218.............. >C6B2 :     
    P2_219.............. >C6BA :     
    P2_220.............. >C6C2 :     
    P2_221.............. >C6CA :     
    P2_222.............. >C6D2 :     
    P2_223.............. >C6DA :     
    P2_224.............. >C6E2 :     
    P2_225.............. >C6EA :     
    P2_226.............. >C6F2 :     
    P2_227.............. >C6FA :     
    P2_228.............. >C702 :     
    P2_229.............. >C70A :     
    P2_230.............. >C712 :     
    P2_231.............. >C71A :     
    P2_232.............. >C722 :     
    P2_233.............. >C72A :     
    P2_234.............. >C732 :     
    P2_235.............. >C73A :     
    P2_236.............. >C742 :     
    P2_237.............. >C74A :     
    P2_238.............. >C752 :     
    P2_239.............. >C75A :     
    P2_240.............. >C762 :     
    P2_241.............. >C76A :     
    P2_242.............. >C772 :     
    P2_243.............. >C77A :     
    P2_244.............. >C782 :     
    P2_245.............. >C78A :     
    P2_246.............. >C792 :     
    P2_247.............. >C79A :     
    P2_248.............. >C7A2 :     
    P2_249.............. >C7AA :     
    P2_250.............. >C7B2 :     
    P2_251.............. >C7BA :     
    P2_252.............. >C7C2 :     
    P2_253.............. >C7CA :     
    P2_254.............. >C7D2 :     
    P2_255.............. >C7DA :     
    P3.................. >00E3 :     
    PAD................. >8300 :     
    PADCON.............. >8350 :     
    PADVAR.............. >8352 :     
    PAD_MAX............. >83B2 :     
    PAL00............... >D576 :     
    PAL01............... >D586 :     
    PAL10............... >D596 :     
    PAL11............... >D5A6 :     
    PAL2................ >D516 :     
    PAL20............... >D5B6 :     
    PAL21............... >D5C6 :     
    PAL3................ >D526 :     
    PAL4................ >D536 :     
    PAL5................ >D546 :     
    PAL6................ >D556 :     
    PAL7................ >D566 :     
    PATTERNS_0_BANK_SELECT >601A :     
    PATTERNS_1_BANK_SELECT >6010 :     
    PATTERNS_2_BANK_SELECT >6016 :     
    PATTERNS_BASE_ADDR.. >6800 :     
    PATTERN_TABLE_BASE.. >1000 :     
    PATTERN_TABLE_P_0... >1000 :     
    PATTERN_TABLE_P_1... >1800 :     
    PATTERN_TABLE_P_2... >2000 :     
    PLANE_DEF........... >CEB4 :     
    PLANE_HANDLER....... >35D8 :     
    PLANE_HANDLER_1..... >35EC :     
    PLANE_HANDLER_2..... >35F8 :     
    PLAYER_COLLISIONS... >2470 :     
    PLAYER_COLLISIONS_1. >247A :     
    PLAYER_COLLISIONS_2. >24A6 :     
    PLAYER_COLLISIONS_3. >24AA :     
    PLAYER_DIED......... >8378 :     
    PLAYER_EXPLOSION_CENTER_HANDLER >3A20 :     
    PLAYER_EXPLOSION_CENTER_HANDLER_1 >3A3A :     
    PLAYER_EXPLOSION_CENTER_HANDLER_2 >3A6A :     
    PLAYER_EXPLOSION_CENTER_HANDLER_3 >3A44 :     
    PLAYER_EXPLOSION_HANDLER >3A70 :     
    PLAYER_EXPLOSION_HANDLER_1 >3AA2 :     
    PLAYER_EXPLOSION_HANDLER_2 >3AA6 :     
    PLAYER_EXPLOSION_VELOCITY_TABLE >3AAA :     
    PLAYER_FIRE......... >8376 :     
    PLAYER_SCALE_Z...... >8360 :     
    PLAYER_SHADOW....... >8374 :     
    PLAYER_SPRITE....... >8372 :     
    PLAYER_SPRITE_TYPES. >23C4 :     
    PLAYER_SPRITE_TYPES_DOWN >23D8 :     
    PLAYER_SPRITE_TYPES_UP >23CE :     
    PLAYER_START_X...... >FFC0 :     
    PLAYER_Y_MAX........ >00B2 :     
    PLAYER_Y_MIN........ >0048 :     
    PLAYER_Z_MAX........ >0047 :     
    PLAYER_Z_MIN........ >0008 :     
    PLAY_BOSS........... >A086 :     
    PLAY_EXPLOSION_1.... >A09E :     
    PLAY_EXPLOSION_2.... >A0B2 :     
    PLAY_EXPLOSION_3.... >A0C6 :     
    PLAY_EXTRA.......... >A06E :     
    PLAY_SHIELD......... >A03E :     
    PLAY_SHOT........... >A026 :     
    PLAY_SND............ >A104 :     
    PLAY_SND_1.......... >A122 :     
    PLAY_SND_3.......... >A144 :     
    PLAY_WARNING........ >A056 :     
    R0LB................ >8301 :     
    R10LB............... >8315 :     
    R11LB............... >8317 :     
    R12LB............... >8319 :     
    R13LB............... >831B :     
    R14LB............... >831D :     
    R15LB............... >831F :     
    R1LB................ >8303 :     
    R2LB................ >8305 :     
    R3LB................ >8307 :     
    R4LB................ >8309 :     
    R5LB................ >830B :     
    R6LB................ >830D :     
    R7LB................ >830F :     
    R8LB................ >8311 :     
    R9LB................ >8313 :     
    RAND................ >2BD2 :     
    RAND_NO............. >8354 :     
    RED_BULLET_2_HANDLER >3852 :     
    RED_BULLET_HANDLER.. >37EC :     
    RED_ROCKET_FIRE_TIME >008C :     
    RED_ROCKET_HANDLER.. >3984 :     
    RED_ROCKET_HANDLER_1 >39A2 :     
    RED_ROCKET_HANDLER_2 >39C0 :     
    RED_ROCKET_HANDLER_3 >39E4 :     
    RED_ROCKET_HANDLER_4 >3A0E :     
    RED_ROCKET_HANDLER_5 >3A1A :     
    RED_ROCKET_HIT_HANDLER >3B84 :     
    RED_ROCKET_HIT_HANDLER_1 >3BA0 :     
    RED_ROCKET_HIT_HANDLER_2 >3BA4 :     
    RED_ROCKET_HIT_HANDLER_3 >3BBC :     
    REPOSITION_PLAYER... >2774 :     
    RESET_SPRITES....... >2938 :     
    RESURRECT_PLAYER.... >275C :     
    RNDSD............... >83C0 :     
    ROCKET_LAUNCH_HANDLER >3662 :     
    ROCKET_LAUNCH_HANDLER_1 >369C :     
    ROCKET_LAUNCH_HANDLER_2 >36A8 :     
    ROCKET_LAUNCH_HANDLER_3 >36B4 :     
    ROCKET_LAUNCH_HANDLER_4 >36B8 :     
    ROCKET_LAUNCH_HANDLER_5 >36BC :     
    RUN_GAME_LOOP....... >202A :     
    RUN_GAME_LOOP_1..... >2048 :     
    SATELLITE_HANDLER... >3ADA :     
    SCORE............... >8382 :     
    SCREEN_HEIGHT....... >00F0 :     
    SCREEN_HEIGHT_CHARS. >001E :     
    SCREEN_WIDTH........ >0100 :     
    SCREEN_WIDTH_CHARS.. >0020 :     
    SCROLL.............. >26BE :     
    SCROLL_1............ >26E6 :     
    SCROLL_MAX.......... >835E :     
    SCROLL_POS.......... >8358 :     
    SCROLL_X............ >835A :     
    SCROLL_Y............ >835C :     
    SET_VDP_REGS........ >2114 :     
    SHADOW_DEF.......... >CEBE :     
    SHADOW_HANDLER...... >35FA :     
    SHADOW_HANDLER_1.... >361E :     
    SHADOW_HANDLER_2.... >3632 :     
    SHADOW_HANDLER_3.... >3638 :     
    SHIELD_HANDLER...... >3716 :     
    SHIELD_HANDLER_1.... >373A :     
    SILO_HIT_HANDLER.... >3B04 :     
    SILO_HIT_HANDLER_1.. >3B1C :     
    SMALL_EXPLODE_HIT_HANDLER >3B42 :     
    SMALL_EXPLOSION_1... >3710 :     
    SMALL_EXPLOSION_HANDLER >36F4 :     
    SNDWS............... >8320 :     
    SND_ATTN_START...... >0002 :     
    SND_ATTN_STEP....... >0003 :     
    SND_BOSS............ >A0F2 :     
    SND_CHANNEL_1....... >839E :     
    SND_CHANNEL_2....... >83A4 :     
    SND_CHANNEL_3....... >83AA :     
    SND_CHANNEL_4....... >83B0 :     
    SND_CHANNEL_ADDR.... >0000 :     
    SND_CHANNEL_ATTN.... >0003 :     
    SND_CHANNEL_DURATION >0002 :     
    SND_CHANNEL_FREQ.... >0004 :     
    SND_CHANNEL_SIZE.... >0006 :     
    SND_DURATION........ >0001 :     
    SND_EXPLOSION_1..... >A0F8 :     
    SND_EXPLOSION_2..... >A0FC :     
    SND_EXPLOSION_3..... >A100 :     
    SND_EXTRA........... >A0EC :     
    SND_FREQ_STEP....... >0004 :     
    SND_OPERATION....... >0000 :     
    SND_PLAYER.......... >A146 :     
    SND_PLAYER_1........ >A14A :     
    SND_PLAYER_2........ >A162 :     
    SND_PLAYER_3........ >A18C :     
    SND_PLAYER_4........ >A1AC :     
    SND_SHIELD.......... >A0E0 :     
    SND_SHOT............ >A0DA :     
    SND_TRACK_CHANNEL... >0000 :     
    SND_TRACK_DURATION_COUNT >0006 :     
    SND_TRACK_LOCATION.. >0002 :     
    SND_TRACK_REPEAT_COUNT >0007 :     
    SND_TRACK_SEQ_LOCATION >0004 :     
    SND_TRACK_SIZE...... >0008 :     
    SND_WARNING......... >A0E6 :     
    SORT_SPRITES........ >401A :     
    SORT_SPRITES_1...... >4026 :     
    SORT_SPRITES_2...... >4034 :     
    SORT_SPRITES_3...... >4054 :     
    SORT_SPRITES_4...... >4062 :     
    SOUND............... >8400 :     
    SPCHRD.............. >9000 :     
    SPCHWT.............. >9400 :     
    SPLIT_SCREEN........ >41D8 :     
    SPLIT_SCREEN_1...... >41F8 :     
    SPLIT_Y............. >421E :     
    SPLIT_Y_TOP......... >421F :     
    SPRITES............. >D462 :     
    SPRITES_END_PTR..... >836A :     
    SPRITE_ATTRS........ >428C :     
    SPRITE_ATTRS_ATTRIBUTES >0006 :     
    SPRITE_ATTRS_BLUE_GUN >42D4 :     
    SPRITE_ATTRS_BLUE_PLANE >4306 :     
    SPRITE_ATTRS_BLUE_PLANE_DOWN_L >44EE :     
    SPRITE_ATTRS_BLUE_PLANE_DOWN_M >44FC :     
    SPRITE_ATTRS_BLUE_PLANE_DOWN_S >450A :     
    SPRITE_ATTRS_BLUE_PLANE_DOWN_XS >4518 :     
    SPRITE_ATTRS_BLUE_PLANE_UP_L >44BA :     
    SPRITE_ATTRS_BLUE_PLANE_UP_M >44C8 :     
    SPRITE_ATTRS_BLUE_PLANE_UP_S >44D6 :     
    SPRITE_ATTRS_BLUE_PLANE_UP_XS >44E4 :     
    SPRITE_ATTRS_BOSS... >4522 :     
    SPRITE_ATTRS_BOSS_ROCKET_LAUNCHER >4568 :     
    SPRITE_ATTRS_BOSS_SHADOW >457E :     
    SPRITE_ATTRS_CX..... >0000 :     
    SPRITE_ATTRS_CY..... >0002 :     
    SPRITE_ATTRS_DEBRIS. >43F8 :     
    SPRITE_ATTRS_DEBRIS_500 >4406 :     
    SPRITE_ATTRS_END.... >45D4 :     
    SPRITE_ATTRS_EXPLOSION_1 >439E :     
    SPRITE_ATTRS_EXPLOSION_2 >43B4 :     
    SPRITE_ATTRS_GREEN_BULLET >441C :     
    SPRITE_ATTRS_GREEN_GUN >42E6 :     
    SPRITE_ATTRS_GREEN_GUN_2 >42F8 :     
    SPRITE_ATTRS_GREEN_ROCKET_1 >4314 :     
    SPRITE_ATTRS_GREEN_ROCKET_2 >4322 :     
    SPRITE_ATTRS_HIT_1.. >43D4 :     
    SPRITE_ATTRS_HIT_2.. >43EA :     
    SPRITE_ATTRS_N_SPRITES >0004 :     
    SPRITE_ATTRS_PLANE.. >428C :     
    SPRITE_ATTRS_PLANE_DOWN >443E :     
    SPRITE_ATTRS_PLANE_DOWN_M >4494 :     
    SPRITE_ATTRS_PLANE_DOWN_S >44A2 :     
    SPRITE_ATTRS_PLANE_DOWN_XS >44B0 :     
    SPRITE_ATTRS_PLANE_M >444C :     
    SPRITE_ATTRS_PLANE_S >445A :     
    SPRITE_ATTRS_PLANE_UP >4430 :     
    SPRITE_ATTRS_PLANE_UP_M >4472 :     
    SPRITE_ATTRS_PLANE_UP_S >4480 :     
    SPRITE_ATTRS_PLANE_UP_XS >448A :     
    SPRITE_ATTRS_PLANE_XS >4468 :     
    SPRITE_ATTRS_RADAR.. >42BE :     
    SPRITE_ATTRS_RED_BULLET >4426 :     
    SPRITE_ATTRS_RED_BULLET_2 >45B4 :     
    SPRITE_ATTRS_RED_ROCKET_1 >4598 :     
    SPRITE_ATTRS_RED_ROCKET_2 >45A6 :     
    SPRITE_ATTRS_ROCKET_LAUNCH_1 >4330 :     
    SPRITE_ATTRS_ROCKET_LAUNCH_2 >4346 :     
    SPRITE_ATTRS_SATELLITE >45BE :     
    SPRITE_ATTRS_SHADOW. >429A :     
    SPRITE_ATTRS_SHIELD. >435C :     
    SPRITE_ATTRS_SILO... >42A8 :     
    SPRITE_ATTRS_SIZE... >0006 :     
    SPRITE_ATTRS_SMALL_EXPLOSION >43CA :     
    SPRITE_ATTRS_TABLE.. >4228 :     
    SPRITE_ATTRS_WALL_LEFT >4372 :     
    SPRITE_ATTRS_WALL_RIGHT >4388 :     
    SPRITE_ATTR_TABLE... >0500 :     
    SPRITE_ATTR_TABLE_2. >0580 :     
    SPRITE_COLLISIONS... >412A :     
    SPRITE_COLLISIONS_1. >4132 :     
    SPRITE_COLLISIONS_1B >4172 :     
    SPRITE_COLLISIONS_1C >4186 :     
    SPRITE_COLLISIONS_1D >418C :     
    SPRITE_COLLISIONS_1E >4190 :     
    SPRITE_COLLISIONS_1F >416C :     
    SPRITE_COLLISIONS_1G >414E :     
    SPRITE_COLLISIONS_2. >4196 :     
    SPRITE_COLLISIONS_2A >41C2 :     
    SPRITE_COLLISIONS_3. >41C8 :     
    SPRITE_COLLISIONS_4. >41CE :     
    SPRITE_COLLISIONS_5. >41D4 :     
    SPRITE_COUNTER...... >0008 :     
    SPRITE_CREATE_X..... >00FF :     
    SPRITE_DEFS_0....... >CEC8 :     
    SPRITE_DEFS_1....... >CF70 :     
    SPRITE_DEFS_2....... >D1DA :     
    SPRITE_DEF_PTR...... >8368 :     
    SPRITE_DEF_SCROLL_X. >0000 :     
    SPRITE_DEF_SIZE..... >000A :     
    SPRITE_DEF_TYPE..... >0008 :     
    SPRITE_DEF_X........ >0002 :     
    SPRITE_DEF_Y........ >0004 :     
    SPRITE_DEF_Z........ >0006 :     
    SPRITE_PALETTES..... >D516 :     
    SPRITE_PATTERNS_0_BANK_SELECT >601C :     
    SPRITE_PATTERNS_1_BANK_SELECT >600E :     
    SPRITE_PATTERNS_2_BANK_SELECT >601E :     
    SPRITE_PATTERNS_BANK_SELECT >8370 :     
    SPRITE_PATTERN_TABLE_0 >2800 :     
    SPRITE_PATTERN_TABLE_1 >3000 :     
    SPRITE_PATTERN_TABLE_2 >3800 :     
    SPRITE_PATTERN_TABLE_BASE >2800 :     
    SPRITE_PATTERS_BASE_ADDR >6800 :     
    SPRITE_SIZE......... >000A :     
    SPRITE_TYPE......... >0000 :     
    SPRITE_TYPE_BLUE_GUN >CD34 :     
    SPRITE_TYPE_BLUE_PLANE >CD4C :     
    SPRITE_TYPE_BLUE_PLANE_DOWN_L >CE4C :     
    SPRITE_TYPE_BLUE_PLANE_DOWN_M >CE54 :     
    SPRITE_TYPE_BLUE_PLANE_DOWN_S >CE5C :     
    SPRITE_TYPE_BLUE_PLANE_DOWN_XS >CE64 :     
    SPRITE_TYPE_BLUE_PLANE_UP_L >CE2C :     
    SPRITE_TYPE_BLUE_PLANE_UP_M >CE34 :     
    SPRITE_TYPE_BLUE_PLANE_UP_S >CE3C :     
    SPRITE_TYPE_BLUE_PLANE_UP_XS >CE44 :     
    SPRITE_TYPE_BOSS.... >CE6C :     
    SPRITE_TYPE_BOSS_ROCKET_LAUNCHER >CE74 :     
    SPRITE_TYPE_BOSS_SHADOW >CE7C :     
    SPRITE_TYPE_DEBRIS.. >CDB4 :     
    SPRITE_TYPE_DEBRIS_500 >CDBC :     
    SPRITE_TYPE_EXPLOSION_1 >CD8C :     
    SPRITE_TYPE_EXPLOSION_2 >CD94 :     
    SPRITE_TYPE_GREEN_BULLET >CDC4 :     
    SPRITE_TYPE_GREEN_GUN >CD3C :     
    SPRITE_TYPE_GREEN_GUN_2 >CD44 :     
    SPRITE_TYPE_GREEN_ROCKET_1 >CD54 :     
    SPRITE_TYPE_GREEN_ROCKET_2 >CD5C :     
    SPRITE_TYPE_HANDLER. >0002 :     
    SPRITE_TYPE_HIT_1... >CDA4 :     
    SPRITE_TYPE_HIT_2... >CDAC :     
    SPRITE_TYPE_HIT_HANDLER >0004 :     
    SPRITE_TYPE_INDEX... >0000 :     
    SPRITE_TYPE_INDEX_BLUE_GUN >0004 :     
    SPRITE_TYPE_INDEX_BLUE_PLANE >0007 :     
    SPRITE_TYPE_INDEX_BLUE_PLANE_DOWN_L >0027 :     
    SPRITE_TYPE_INDEX_BLUE_PLANE_DOWN_M >0028 :     
    SPRITE_TYPE_INDEX_BLUE_PLANE_DOWN_S >0029 :     
    SPRITE_TYPE_INDEX_BLUE_PLANE_DOWN_XS >002A :     
    SPRITE_TYPE_INDEX_BLUE_PLANE_UP_L >0023 :     
    SPRITE_TYPE_INDEX_BLUE_PLANE_UP_M >0024 :     
    SPRITE_TYPE_INDEX_BLUE_PLANE_UP_S >0025 :     
    SPRITE_TYPE_INDEX_BLUE_PLANE_UP_XS >0026 :     
    SPRITE_TYPE_INDEX_BOSS >002B :     
    SPRITE_TYPE_INDEX_BOSS_ROCKET_LAUNCHER >002C :     
    SPRITE_TYPE_INDEX_BOSS_SHADOW >002D :     
    SPRITE_TYPE_INDEX_DEBRIS >0014 :     
    SPRITE_TYPE_INDEX_DEBRIS_500 >0015 :     
    SPRITE_TYPE_INDEX_EXPLOSION_1 >000F :     
    SPRITE_TYPE_INDEX_EXPLOSION_2 >0010 :     
    SPRITE_TYPE_INDEX_GREEN_BULLET >0016 :     
    SPRITE_TYPE_INDEX_GREEN_GUN >0005 :     
    SPRITE_TYPE_INDEX_GREEN_GUN_2 >0006 :     
    SPRITE_TYPE_INDEX_GREEN_ROCKET_1 >0008 :     
    SPRITE_TYPE_INDEX_GREEN_ROCKET_2 >0009 :     
    SPRITE_TYPE_INDEX_HIT_1 >0012 :     
    SPRITE_TYPE_INDEX_HIT_2 >0013 :     
    SPRITE_TYPE_INDEX_PLANE >0000 :     
    SPRITE_TYPE_INDEX_PLANE_DOWN >0019 :     
    SPRITE_TYPE_INDEX_PLANE_DOWN_M >0020 :     
    SPRITE_TYPE_INDEX_PLANE_DOWN_S >0021 :     
    SPRITE_TYPE_INDEX_PLANE_DOWN_XS >0022 :     
    SPRITE_TYPE_INDEX_PLANE_M >001A :     
    SPRITE_TYPE_INDEX_PLANE_S >001B :     
    SPRITE_TYPE_INDEX_PLANE_UP >0018 :     
    SPRITE_TYPE_INDEX_PLANE_UP_M >001D :     
    SPRITE_TYPE_INDEX_PLANE_UP_S >001E :     
    SPRITE_TYPE_INDEX_PLANE_UP_XS >001F :     
    SPRITE_TYPE_INDEX_PLANE_XS >001C :     
    SPRITE_TYPE_INDEX_RADAR >0003 :     
    SPRITE_TYPE_INDEX_RED_BULLET >0017 :     
    SPRITE_TYPE_INDEX_RED_BULLET_2 >0030 :     
    SPRITE_TYPE_INDEX_RED_ROCKET_1 >002E :     
    SPRITE_TYPE_INDEX_RED_ROCKET_2 >002F :     
    SPRITE_TYPE_INDEX_ROCKET_LAUNCH_1 >000A :     
    SPRITE_TYPE_INDEX_ROCKET_LAUNCH_2 >000B :     
    SPRITE_TYPE_INDEX_SATELLITE >0031 :     
    SPRITE_TYPE_INDEX_SHADOW >0001 :     
    SPRITE_TYPE_INDEX_SHIELD >000C :     
    SPRITE_TYPE_INDEX_SILO >0002 :     
    SPRITE_TYPE_INDEX_SMALL_EXPLOSION >0011 :     
    SPRITE_TYPE_INDEX_WALL_LEFT >000D :     
    SPRITE_TYPE_INDEX_WALL_RIGHT >000E :     
    SPRITE_TYPE_LETHAL.. >0006 :     
    SPRITE_TYPE_PLANE... >CD14 :     
    SPRITE_TYPE_PLANE_DOWN >CDDC :     
    SPRITE_TYPE_PLANE_DOWN_M >CE14 :     
    SPRITE_TYPE_PLANE_DOWN_S >CE1C :     
    SPRITE_TYPE_PLANE_DOWN_XS >CE24 :     
    SPRITE_TYPE_PLANE_M. >CDE4 :     
    SPRITE_TYPE_PLANE_S. >CDEC :     
    SPRITE_TYPE_PLANE_UP >CDD4 :     
    SPRITE_TYPE_PLANE_UP_M >CDFC :     
    SPRITE_TYPE_PLANE_UP_S >CE04 :     
    SPRITE_TYPE_PLANE_UP_XS >CE0C :     
    SPRITE_TYPE_PLANE_XS >CDF4 :     
    SPRITE_TYPE_PLAYER_EXPLOSION >CEA4 :     
    SPRITE_TYPE_PLAYER_EXPLOSION_CENTER >CE9C :     
    SPRITE_TYPE_RADAR... >CD2C :     
    SPRITE_TYPE_RED_BULLET >CDCC :     
    SPRITE_TYPE_RED_BULLET_2 >CE94 :     
    SPRITE_TYPE_RED_ROCKET_1 >CE84 :     
    SPRITE_TYPE_RED_ROCKET_2 >CE8C :     
    SPRITE_TYPE_ROCKET_LAUNCH_1 >CD64 :     
    SPRITE_TYPE_ROCKET_LAUNCH_2 >CD6C :     
    SPRITE_TYPE_SATELLITE >CEAC :     
    SPRITE_TYPE_SHADOW.. >CD1C :     
    SPRITE_TYPE_SHIELD.. >CD74 :     
    SPRITE_TYPE_SILO.... >CD24 :     
    SPRITE_TYPE_SIZE.... >0008 :     
    SPRITE_TYPE_SMALL_EXPLOSION >CD9C :     
    SPRITE_TYPE_WALL_LEFT >CD7C :     
    SPRITE_TYPE_WALL_RIGHT >CD84 :     
    SPRITE_X............ >0004 :     
    SPRITE_Y............ >0002 :     
    SPRITE_Z............ >0006 :     
    STACK............... >8340 :     
    START_GAME.......... >201E :     
    START_LEVEL......... >2022 :     
    START_SUB_LEVEL..... >2026 :     
    SUB_LEVELS.......... >A1B8 :     
    SUB_LEVEL_0......... >A1BE :     
    SUB_LEVEL_0_DATA.... >A200 :     
    SUB_LEVEL_0_SPRITES. >0010 :     
    SUB_LEVEL_1......... >A1D4 :     
    SUB_LEVEL_1_DATA.... >A202 :     
    SUB_LEVEL_2......... >A1EA :     
    SUB_LEVEL_2_DATA.... >A204 :     
    SUB_LEVEL_DATA...... >837E :     
    SUB_LEVEL_DIFF...... >0006 :     
    SUB_LEVEL_DIFF_END.. >0008 :     
    SUB_LEVEL_INDEX..... >837C :     
    SUB_LEVEL_MAP_BANK_SELECT >0000 :     
    SUB_LEVEL_MAP_WIDTH. >000C :     
    SUB_LEVEL_PALETTES.. >0014 :     
    SUB_LEVEL_PATTERNS_BANK_SELECT >0002 :     
    SUB_LEVEL_PLAYER_SCALE_Z >0010 :     
    SUB_LEVEL_SCROLL_MAX >000E :     
    SUB_LEVEL_SIZE...... >0016 :     
    SUB_LEVEL_SPRITE_DEF >000A :     
    SUB_LEVEL_SPRITE_PATTERNS_BANK_SELECT >0004 :     
    SUB_LEVEL_WALLS..... >0012 :     
    T1.................. >0080 :     
    T2.................. >00A0 :     
    T3.................. >00C0 :     
    TAT140.............. >BC8D :     
    TAT141.............. >BC8E :     
    TAT142.............. >BC8F :     
    TAT143.............. >BC90 :     
    TAT144.............. >BC91 :     
    TAT145.............. >BC92 :     
    TAT146.............. >BC93 :     
    TAT147.............. >BC94 :     
    TAT148.............. >BC95 :     
    TAT149.............. >BC96 :     
    TAT150.............. >BC97 :     
    TAT151.............. >BC98 :     
    TAT152.............. >BC99 :     
    TAT153.............. >BC9A :     
    TAT154.............. >BC9B :     
    TAT155.............. >BC9C :     
    TAT156.............. >BC9D :     
    TAT157.............. >BC9E :     
    TAT158.............. >BC9F :     
    TAT159.............. >BCA0 :     
    TAT160.............. >BCA1 :     
    TAT161.............. >BCA2 :     
    TAT162.............. >BCA3 :     
    TAT163.............. >BCA4 :     
    TAT164.............. >BCA5 :     
    TAT165.............. >BCA6 :     
    TAT166.............. >BCA7 :     
    TAT167.............. >BCA8 :     
    TAT168.............. >BCA9 :     
    TAT169.............. >BCAA :     
    TAT170.............. >BCAB :     
    TAT171.............. >BCAC :     
    TAT172.............. >BCAD :     
    TAT173.............. >BCAE :     
    TAT174.............. >BCAF :     
    TAT175.............. >BCB0 :     
    TAT176.............. >BCB1 :     
    TAT177.............. >BCB2 :     
    TAT178.............. >BCB3 :     
    TAT179.............. >BCB4 :     
    TAT180.............. >BCB5 :     
    TAT181.............. >BCB6 :     
    TAT182.............. >BCB7 :     
    TAT183.............. >BCB8 :     
    TAT184.............. >BCB9 :     
    TAT185.............. >BCBA :     
    TAT186.............. >BCBB :     
    TAT187.............. >BCBC :     
    TAT188.............. >BCBD :     
    TAT189.............. >BCBE :     
    TAT190.............. >BCBF :     
    TAT191.............. >BCC0 :     
    TAT192.............. >BCC1 :     
    TAT193.............. >BCC2 :     
    TAT194.............. >BCC3 :     
    TAT195.............. >BCC4 :     
    TAT196.............. >BCC5 :     
    TAT197.............. >BCC6 :     
    TAT198.............. >BCC7 :     
    TAT199.............. >BCC8 :     
    TAT200.............. >BCC9 :     
    TAT201.............. >BCCA :     
    TAT202.............. >BCCB :     
    TAT203.............. >BCCC :     
    TAT204.............. >BCCD :     
    TAT205.............. >BCCE :     
    TAT206.............. >BCCF :     
    TAT207.............. >BCD0 :     
    TAT208.............. >BCD1 :     
    TAT209.............. >BCD2 :     
    TAT210.............. >BCD3 :     
    TAT211.............. >BCD4 :     
    TAT212.............. >BCD5 :     
    TAT213.............. >BCD6 :     
    TAT214.............. >BCD7 :     
    TAT215.............. >BCD8 :     
    TAT216.............. >BCD9 :     
    TAT217.............. >BCDA :     
    TAT218.............. >BCDB :     
    TAT219.............. >BCDC :     
    TAT220.............. >BCDD :     
    TAT221.............. >BCDE :     
    TAT222.............. >BCDF :     
    TAT223.............. >BCE0 :     
    TAT224.............. >BCE1 :     
    TAT225.............. >BCE2 :     
    TAT226.............. >BCE3 :     
    TAT227.............. >BCE4 :     
    TAT228.............. >BCE5 :     
    TAT229.............. >BCE6 :     
    TAT230.............. >BCE7 :     
    TAT231.............. >BCE8 :     
    TAT232.............. >BCE9 :     
    TAT233.............. >BCEA :     
    TAT234.............. >BCEB :     
    TAT235.............. >BCEC :     
    TAT236.............. >BCED :     
    TAT237.............. >BCEE :     
    TAT238.............. >BCEF :     
    TAT239.............. >BCF0 :     
    TAT240.............. >BCF1 :     
    TAT241.............. >BCF2 :     
    TAT242.............. >BCF3 :     
    TAT243.............. >BCF4 :     
    TAT244.............. >BCF5 :     
    TAT245.............. >BCF6 :     
    TAT246.............. >BCF7 :     
    TAT247.............. >BCF8 :     
    TAT248.............. >BCF9 :     
    TAT249.............. >BCFA :     
    TAT250.............. >BCFB :     
    TAT251.............. >BCFC :     
    TAT252.............. >BCFD :     
    TAT253.............. >BCFE :     
    TAT254.............. >BCFF :     
    TAT255.............. >BD00 :     
    TILE_ATTR_BASE_ADDR. >6400 :     
    TILE_ATTR_TABLE..... >0400 :     
    TITLE............... >CBAC :     
    TITLE_PTR........... >2DFE :     
    TL2_CHARS........... >0074 :     
    TL2_FIRST_CHAR...... >008C :     
    TL2_LABELS.......... >2A02 :     
    TOP_SPRITES......... >4226 :     
    TXT_1000_PTS........ >D635 :     
    TXT_200_PTS......... >D62B :     
    TXT_CONGRATULATIONS. >D60A :     
    TXT_GAME_OVER....... >D652 :     
    TXT_GOOD............ >D63F :     
    TXT_HIGH_SCORES..... >D5EA :     
    TXT_PRESS_FIRE_TO_START >D5F6 :     
    TXT_VERSION......... >D5DE :     
    TXT_VERY_GOOD....... >D646 :     
    TXT_YOU_GET_BONUS... >D61C :     
    TXT_ZQX_ONE......... >D5D6 :     
    UPDATE_HIGH_SCORES.. >2A90 :     
    UPDATE_HIGH_SCORES_1 >2AA4 :     
    UPDATE_HIGH_SCORES_2 >2AB4 :     
    UPLOAD_CHARACTER.... >220C :     
    UPLOAD_CHARACTERS... >21A8 :     
    UPLOAD_CHARACTERS_0. >21CE :     
    UPLOAD_CHARACTERS_1. >21E4 :     
    UPLOAD_CHARACTERS_2. >21EC :     
    UPLOAD_CHARACTERS_3. >2202 :     
    UPLOAD_CHARACTERS_4. >2206 :     
    UPLOAD_CHARACTER_1.. >2242 :     
    UPLOAD_GPU_PROGRAM.. >2E78 :     
    UPLOAD_SPRITES...... >2150 :     
    UPLOAD_SPRITES_1.... >2162 :     
    UPLOAD_SPRITES_3.... >2198 :     
    UPLOAD_SPRITES_4.... >219E :     
    UPLOAD_SPRITES_5.... >21A2 :     
    UPLOAD_SPRITE_PATTERNS >289E :     
    UPPER_MEMORY_MAX.... >D66A :     
    USE_FUEL............ >2612 :     
    USE_FUEL_1.......... >2638 :     
    USE_FUEL_2.......... >263C :     
    VCLR................ >357E :     
    VCLR_1.............. >358E :     
    VDPRD............... >8800 :     
    VDPSTA.............. >8802 :     
    VDPWA............... >8C02 :     
    VDPWD............... >8C00 :     
    VDP_COLLISIONS...... >0BC0 :     
    VDP_GPU_STATUS...... >03C0 :     
    VDP_REGISTERS....... >2866 :     
    VDP_SCROLL_POS...... >03C2 :     
    VDP_SPRITE_BUFFER... >0600 :     
    VDP_STATUS.......... >8352 :     
    VDP_SUB_LEVEL....... >03C4 :     
    VDP_VARIABLES....... >03C0 :     
    VMBR................ >35BE :     
    VMBR_1.............. >35D0 :     
    VMBW................ >3550 :     
    VMBW_1.............. >355E :     
    VRAD................ >359C :     
    VSBR................ >35AA :     
    VSBW................ >3522 :     
    VSMW................ >3568 :     
    VSMW_1.............. >3576 :     
    VSWW................ >3536 :     
    VSYNC............... >2100 :     
    VSYNC_1............. >2108 :     
    VWAD................ >3510 :     
    VWTR................ >34FE :     
    W0.................. >00E4 :     
    W1.................. >00E5 :     
    W2.................. >00E6 :     
    W3.................. >00E7 :     
    WAIT................ >2C4A :     
    WAIT_1.............. >2C50 :     
    WAIT_2.............. >2C70 :     
    WAIT_3.............. >2C72 :     
    WAIT_FIRE_KEY_RELASED >2C78 :     
    WAIT_FIRE_KEY_RELASED_1 >2C82 :     
    WAIT_GPU............ >2EAE :     
    WAIT_GPU_1.......... >2EB0 :     
    WALLS............... >45D4 :     
    WALLS_0............. >45DA :     
    WALLS_1............. >45DC :     
    WALLS_2............. >45E6 :     
    WALLS_PTR........... >8380 :     
    WALL_HEIGHT......... >0002 :     
    WALL_HIT_HANDLER.... >3B5E :     
    WALL_SIZE........... >0004 :     
    WALL_X.............. >0000 :     
    WINDOW_LEFT......... >0010 :     
    WINDOW_TOP.......... >FFDC :     
    WINDOW_WIDTH........ >00E0 :     
    WRKSP............... >8300 :     
